 WebMind

 Timestamp is 4f0a5e54 (Mon Jan 09 11:26:12 2012)

 Preferred load address is 00400000

 Start         Length     Name                   Class
 0001:00000000 0018687cH .text                   CODE
 0001:0018687c 00002703H .text$AFX_AUX           CODE
 0001:00188f7f 00002900H .text$AFX_CMNCTL        CODE
 0001:0018b880 00001806H .text$AFX_COL1          CODE
 0001:0018d086 00000a81H .text$AFX_COL2          CODE
 0001:0018db07 0000906dH .text$AFX_CORE1         CODE
 0001:00196b74 00005340H .text$AFX_CORE2         CODE
 0001:0019beb4 00007155H .text$AFX_CORE3         CODE
 0001:001a3009 000082d0H .text$AFX_CORE4         CODE
 0001:001ab2d9 00002b7fH .text$AFX_INET          CODE
 0001:001ade60 00005602H .text$AFX_INIT          CODE
 0001:001b3462 00001b8cH .text$AFX_OLE1          CODE
 0001:001b4fee 0000018cH .text$AFX_OLE2          CODE
 0001:001b517a 00001396H .text$AFX_OLE3          CODE
 0001:001b6510 00001217H .text$AFX_OLE4          CODE
 0001:001b7727 00001bf1H .text$AFX_OLE5          CODE
 0001:001b9318 00000d3bH .text$AFX_PRNT          CODE
 0001:001ba053 000002beH .text$AFX_TERM          CODE
 0001:001ba320 000184b6H .text$x                 CODE
 0002:00000000 0002702cH .rdata                  DATA
 0002:00027030 00004924H .rdata$r                DATA
 0002:0002b958 00022e28H .xdata$x                DATA
 0002:0004e780 0000065dH .edata                  DATA
 0003:00000000 00000004H .CRT$XCA                DATA
 0003:00000004 00000030H .CRT$XCC                DATA
 0003:00000034 0000001cH .CRT$XCL                DATA
 0003:00000050 0000050cH .CRT$XCU                DATA
 0003:0000055c 00000004H .CRT$XCZ                DATA
 0003:00000560 00000004H .CRT$XIA                DATA
 0003:00000564 00000010H .CRT$XIC                DATA
 0003:00000574 00000004H .CRT$XIY                DATA
 0003:00000578 00000004H .CRT$XIZ                DATA
 0003:0000057c 00000004H .CRT$XPA                DATA
 0003:00000580 00000004H .CRT$XPX                DATA
 0003:00000584 00000004H .CRT$XPZ                DATA
 0003:00000588 00000004H .CRT$XTA                DATA
 0003:0000058c 00000004H .CRT$XTB                DATA
 0003:00000590 00000004H .CRT$XTZ                DATA
 0003:000005a0 00009fd6H .data                   DATA
 0003:0000a578 0000a1d0H .bss                    DATA
 0004:00000000 00000154H .idata$2                DATA
 0004:00000154 00000014H .idata$3                DATA
 0004:00000168 00000b5cH .idata$4                DATA
 0004:00000cc4 00000b5cH .idata$5                DATA
 0004:00001820 00002ee8H .idata$6                DATA
 0005:00000000 0000285cH .rsrc$01                DATA
 0005:00002860 000b7fd0H .rsrc$02                DATA

  Address         Publics by Value              Rva+Base     Lib:Object

 0001:00000000       ??_Estringdispid@CComTypeInfoHolder@ATL@@QAEPAXI@Z 00401000 f i AboutCtrl.obj
 0001:00000080       ??1stringdispid@CComTypeInfoHolder@ATL@@QAE@XZ 00401080 f i AboutCtrl.obj
 0001:000000a0       ??1CComBSTR@ATL@@QAE@XZ    004010a0 f i AboutCtrl.obj
 0001:000000c0       ?deg2rad@@YANH@Z           004010c0 f   AboutCtrl.obj
 0001:000000e0       ??0CAboutCtrl@@QAE@XZ      004010e0 f   AboutCtrl.obj
 0001:00000190       ?Serialize@CObject@@UAEXAAVCArchive@@@Z 00401190 f i AboutCtrl.obj
 0001:000001b0       ??0CString@@QAE@XZ         004011b0 f i AboutCtrl.obj
 0001:000001e0       ?DoDataExchange@CWnd@@MAEXPAVCDataExchange@@@Z 004011e0 f i AboutCtrl.obj
 0001:00000200       ?BeginModalState@CWnd@@UAEXXZ 00401200 f i AboutCtrl.obj
 0001:00000230       ?EndModalState@CWnd@@UAEXXZ 00401230 f i AboutCtrl.obj
 0001:00000260       ??0CStatic@@QAE@XZ         00401260 f i AboutCtrl.obj
 0001:00000290       ??_ECStatic@@UAEPAXI@Z     00401290 f i AboutCtrl.obj
 0001:00000290       ??_GCStatic@@UAEPAXI@Z     00401290 f i AboutCtrl.obj
 0001:000002d0       ??3CObject@@SGXPAX@Z       004012d0 f i AboutCtrl.obj
 0001:000002f0       ??_ECAboutCtrl@@UAEPAXI@Z  004012f0 f i AboutCtrl.obj
 0001:000002f0       ??_GCAboutCtrl@@UAEPAXI@Z  004012f0 f i AboutCtrl.obj
 0001:00000330       ??1CAboutCtrl@@UAE@XZ      00401330 f   AboutCtrl.obj
 0001:000003f0       ?GetMessageMap@CAboutCtrl@@MBEPBUAFX_MSGMAP@@XZ 004013f0 f   AboutCtrl.obj
 0001:00000410       ?OnPaint@CAboutCtrl@@IAEXXZ 00401410 f   AboutCtrl.obj
 0001:00000440       ?Initialize@CAboutCtrl@@IAEXXZ 00401440 f   AboutCtrl.obj
 0001:00000560       ??0CRect@@QAE@XZ           00401560 f i AboutCtrl.obj
 0001:00000580       ?Height@CRect@@QBEHXZ      00401580 f i AboutCtrl.obj
 0001:000005a0       ??BCRect@@QAEPAUtagRECT@@XZ 004015a0 f i AboutCtrl.obj
 0001:000005c0       ?GetClientRect@CWnd@@QBEXPAUtagRECT@@@Z 004015c0 f i AboutCtrl.obj
 0001:000005f0       ?GetDC@CWnd@@QAEPAVCDC@@XZ 004015f0 f i AboutCtrl.obj
 0001:00000620       ?ReleaseDC@CWnd@@QAEHPAVCDC@@@Z 00401620 f i AboutCtrl.obj
 0001:00000650       ?PreSubclassWindow@CAboutCtrl@@MAEXXZ 00401650 f   AboutCtrl.obj
 0001:00000690       ?SetTimer@CWnd@@QAEIIIP6GXPAUHWND__@@IIK@Z@Z 00401690 f i AboutCtrl.obj
 0001:000006c0       ?OnTimer@CAboutCtrl@@IAEXI@Z 004016c0 f   AboutCtrl.obj
 0001:000006f0       ?OnTimer@CWnd@@IAEXI@Z     004016f0 f i AboutCtrl.obj
 0001:00000710       ?AnimateLogo@CAboutCtrl@@IAEXXZ 00401710 f   AboutCtrl.obj
 0001:000009f0       ?Width@CRect@@QBEHXZ       004019f0 f i AboutCtrl.obj
 0001:00000a10       ?LoadPicture@CAboutCtrl@@IAEXHAAPAUHDC__@@AAH1PAU2@@Z 00401a10 f   AboutCtrl.obj
 0001:00000b90       ?AfxGetInstanceHandle@@YGPAUHINSTANCE__@@XZ 00401b90 f i AboutCtrl.obj
 0001:00000bb0       ?LoadCredits@CAboutCtrl@@IAEXAAPAUHDC__@@HHPAU2@@Z 00401bb0 f   AboutCtrl.obj
 0001:00000ee0       ?GetLength@CString@@QBEHXZ 00401ee0 f i AboutCtrl.obj
 0001:00000f00       ?GetData@CString@@IBEPAUCStringData@@XZ 00401f00 f i AboutCtrl.obj
 0001:00000f20       ?IsEmpty@CString@@QBEHXZ   00401f20 f i AboutCtrl.obj
 0001:00000f50       ??BCString@@QBEPBDXZ       00401f50 f i AboutCtrl.obj
 0001:00000f70       ?GetAt@CString@@QBEDH@Z    00401f70 f i AboutCtrl.obj
 0001:00000f90       ?SetCredits@CAboutCtrl@@QAEXPBD@Z 00401f90 f   AboutCtrl.obj
 0001:00001000       ??0CSize@@QAE@HH@Z         00402000 f i AddPopupDlg.obj
 0001:00001070       ??0CAddPopupDlg@@QAE@PAVCWnd@@@Z 00402070 f   AddPopupDlg.obj
 0001:00001100       ??_ECAddPopupDlg@@UAEPAXI@Z 00402100 f i AddPopupDlg.obj
 0001:00001100       ??_GCAddPopupDlg@@UAEPAXI@Z 00402100 f i AddPopupDlg.obj
 0001:00001140       ??1CAddPopupDlg@@UAE@XZ    00402140 f i AddPopupDlg.obj
 0001:000011a0       ?DoDataExchange@CAddPopupDlg@@MAEXPAVCDataExchange@@@Z 004021a0 f   AddPopupDlg.obj
 0001:000011f0       ?GetMessageMap@CAddPopupDlg@@MBEPBUAFX_MSGMAP@@XZ 004021f0 f   AddPopupDlg.obj
 0001:00001210       ?OnInitDialog@CAddPopupDlg@@MAEHXZ 00402210 f   AddPopupDlg.obj
 0001:00001280       ?id@?$ctype@G@std@@$D      00402280 f i AddPopupDlg.obj
 0001:000012d0       ?id@?$ctype@G@std@@$E      004022d0 f i AddPopupDlg.obj
 0001:000012e0       ??0CAddURLDropTarget@@QAE@XZ 004022e0 f   AddressBar.obj
 0001:00001310       ??_ECAddURLDropTarget@@UAEPAXI@Z 00402310 f i AddressBar.obj
 0001:00001310       ??_GCAddURLDropTarget@@UAEPAXI@Z 00402310 f i AddressBar.obj
 0001:00001350       ??1CAddURLDropTarget@@UAE@XZ 00402350 f   AddressBar.obj
 0001:00001380       ?OnDragEnter@CAddURLDropTarget@@UAEKPAVCWnd@@PAVCOleDataObject@@KVCPoint@@@Z 00402380 f   AddressBar.obj
 0001:000013c0       ?OnDragLeave@CAddURLDropTarget@@UAEXPAVCWnd@@@Z 004023c0 f   AddressBar.obj
 0001:000013f0       ?OnDragOver@CAddURLDropTarget@@UAEKPAVCWnd@@PAVCOleDataObject@@KVCPoint@@@Z 004023f0 f   AddressBar.obj
 0001:00001430       ?OnDrop@CAddURLDropTarget@@UAEHPAVCWnd@@PAVCOleDataObject@@KVCPoint@@@Z 00402430 f   AddressBar.obj
 0001:00001450       ??0CAddressBar@@QAE@XZ     00402450 f   AddressBar.obj
 0001:000014e0       ??0CComboBoxEx@@QAE@XZ     004024e0 f i AddressBar.obj
 0001:00001510       ??0CComboBox@@QAE@XZ       00402510 f i AddressBar.obj
 0001:00001540       ??_ECComboBox@@UAEPAXI@Z   00402540 f i AddressBar.obj
 0001:00001540       ??_GCComboBox@@UAEPAXI@Z   00402540 f i AddressBar.obj
 0001:00001580       ??_ECComboBoxEx@@UAEPAXI@Z 00402580 f i AddressBar.obj
 0001:00001580       ??_GCComboBoxEx@@UAEPAXI@Z 00402580 f i AddressBar.obj
 0001:000015c0       ??_ECAddressBar@@UAEPAXI@Z 004025c0 f i AddressBar.obj
 0001:000015c0       ??_GCAddressBar@@UAEPAXI@Z 004025c0 f i AddressBar.obj
 0001:00001600       ??1CAddressBar@@UAE@XZ     00402600 f   AddressBar.obj
 0001:00001680       ?GetMessageMap@CAddressBar@@MBEPBUAFX_MSGMAP@@XZ 00402680 f   AddressBar.obj
 0001:000016a0       ?OnSize@CAddressBar@@IAEXIHH@Z 004026a0 f   AddressBar.obj
 0001:000017c0       ??BCWnd@@QBEPAUHWND__@@XZ  004027c0 f i AddressBar.obj
 0001:000017f0       ?IsWindowVisible@CWnd@@QBEHXZ 004027f0 f i AddressBar.obj
 0001:00001810       ?OnSize@CWnd@@IAEXIHH@Z    00402810 f i AddressBar.obj
 0001:00001830       ?GetAddressBox@CAddressBar@@QAEPAVCComboBoxEx@@XZ 00402830 f   AddressBar.obj
 0001:00001850       ?Init@CAddressBar@@QAEXXZ  00402850 f   AddressBar.obj
 0001:000018c0       ??0CRect@@QAE@HHHH@Z       004028c0 f i AddressBar.obj
 0001:00001900       ?GetExtendedStyle@CComboBoxEx@@QBEKXZ 00402900 f i AddressBar.obj
 0001:00001930       ?SetExtendedStyle@CComboBoxEx@@QAEKKK@Z 00402930 f i AddressBar.obj
 0001:00001960       ?GetSelText@CAddressBar@@QAEXHAAVCString@@@Z 00402960 f   AddressBar.obj
 0001:000019f0       ?FindStringExact@CAddressBar@@QAEHHAAVCString@@@Z 004029f0 f   AddressBar.obj
 0001:00001ad0       ?CompareNoCase@CString@@QBEHPBD@Z 00402ad0 f i AddressBar.obj
 0001:00001b00       ?SendMessageA@CWnd@@QAEJIIJ@Z 00402b00 f i AddressBar.obj
 0001:00001b30       ?OnGetInfoTip@CAddressBar@@IAEXPAUtagNMHDR@@PAJ@Z 00402b30 f   AddressBar.obj
 0001:00001ca0       ??0CAddressBarEx@@QAE@XZ   00402ca0 f   AddressBarEx.obj
 0001:00001d20       ??0CAddDropTarget@@QAE@XZ  00402d20 f i AddressBarEx.obj
 0001:00001d50       ??_GCAddDropTarget@@UAEPAXI@Z 00402d50 f i AddressBarEx.obj
 0001:00001d50       ??_ECAddDropTarget@@UAEPAXI@Z 00402d50 f i AddressBarEx.obj
 0001:00001d90       ??1CAddDropTarget@@UAE@XZ  00402d90 f i AddressBarEx.obj
 0001:00001db0       ??_ECAddressBarEx@@UAEPAXI@Z 00402db0 f i AddressBarEx.obj
 0001:00001db0       ??_GCAddressBarEx@@UAEPAXI@Z 00402db0 f i AddressBarEx.obj
 0001:00001df0       ??1CAddressBarEx@@UAE@XZ   00402df0 f   AddressBarEx.obj
 0001:00001e70       ?GetMessageMap@CAddressBarEx@@MBEPBUAFX_MSGMAP@@XZ 00402e70 f   AddressBarEx.obj
 0001:00001e90       ?OnSize@CAddressBarEx@@IAEXIHH@Z 00402e90 f   AddressBarEx.obj
 0001:00001f80       ?GetAddressBox@CAddressBarEx@@QAEPAVCComboBoxEx@@XZ 00402f80 f   AddressBarEx.obj
 0001:00001fa0       ?Init@CAddressBarEx@@QAEXXZ 00402fa0 f   AddressBarEx.obj
 0001:00002050       ?AfxTrace@@YAXPBDZZ        00403050 f i AddressBarEx.obj
 0001:00002060       ?InitImage@CAddressBarEx@@QAEXXZ 00403060 f   AddressBarEx.obj
 0001:000021b0       ?GetSafeHandle@CImageList@@QBEPAU_IMAGELIST@@XZ 004031b0 f i AddressBarEx.obj
 0001:000021e0       ?SetImageList@CComboBoxEx@@QAEPAVCImageList@@PAV2@@Z 004031e0 f i AddressBarEx.obj
 0001:00002220       ?GetImageList@CComboBoxEx@@QBEPAVCImageList@@XZ 00403220 f i AddressBarEx.obj
 0001:00002250       ?OnDragScroll@CAddDropTarget@@UAEKPAVCWnd@@KVCPoint@@@Z 00403250 f   AddressBarEx.obj
 0001:00002270       ?OnDragEnter@CAddDropTarget@@UAEKPAVCWnd@@PAVCOleDataObject@@KVCPoint@@@Z 00403270 f   AddressBarEx.obj
 0001:00002290       ?OnDragLeave@CAddDropTarget@@UAEXPAVCWnd@@@Z 00403290 f   AddressBarEx.obj
 0001:000022b0       ?OnDragOver@CAddDropTarget@@UAEKPAVCWnd@@PAVCOleDataObject@@KVCPoint@@@Z 004032b0 f   AddressBarEx.obj
 0001:000022d0       ?OnDrop@CAddDropTarget@@UAEHPAVCWnd@@PAVCOleDataObject@@KVCPoint@@@Z 004032d0 f   AddressBarEx.obj
 0001:00002aa0       ??8@YG_NABVCString@@PBD@Z  00403aa0 f i AddressBarEx.obj
 0001:00002ad0       ?Compare@CString@@QBEHPBD@Z 00403ad0 f i AddressBarEx.obj
 0001:00002b00       ??8CWnd@@QBEHABV0@@Z       00403b00 f i AddressBarEx.obj
 0001:00002b30       ?GetSafeHwnd@CWnd@@QBEPAUHWND__@@XZ 00403b30 f i AddressBarEx.obj
 0001:00002b60       ?GetToolBarCtrl@CToolBar@@QBEAAVCToolBarCtrl@@XZ 00403b60 f i AddressBarEx.obj
 0001:00002b80       ?HitTest@CToolBarCtrl@@QBEHPAUtagPOINT@@@Z 00403b80 f i AddressBarEx.obj
 0001:00002bb0       ?GetEditCtrl@CComboBoxEx@@QAEPAVCEdit@@XZ 00403bb0 f i AddressBarEx.obj
 0001:00002be0       ?GetSelText@CAddressBarEx@@QAEXHAAVCString@@@Z 00403be0 f   AddressBarEx.obj
 0001:00002c70       ?FindStringExact@CAddressBarEx@@QAEHHAAVCString@@@Z 00403c70 f   AddressBarEx.obj
 0001:00002e10       ??0CAddToThisFavDlg@@QAE@PAVCWnd@@@Z 00403e10 f   AddToThisFavDlg.obj
 0001:00002f70       ??0CButton@@QAE@XZ         00403f70 f i AddToThisFavDlg.obj
 0001:00002fa0       ??_ECButton@@UAEPAXI@Z     00403fa0 f i AddToThisFavDlg.obj
 0001:00002fa0       ??_GCButton@@UAEPAXI@Z     00403fa0 f i AddToThisFavDlg.obj
 0001:00002fe0       ??_GCAddToThisFavDlg@@UAEPAXI@Z 00403fe0 f i AddToThisFavDlg.obj
 0001:00002fe0       ??_ECAddToThisFavDlg@@UAEPAXI@Z 00403fe0 f i AddToThisFavDlg.obj
 0001:00003020       ??1CAddToThisFavDlg@@UAE@XZ 00404020 f i AddToThisFavDlg.obj
 0001:00003130       ?DoDataExchange@CAddToThisFavDlg@@MAEXPAVCDataExchange@@@Z 00404130 f   AddToThisFavDlg.obj
 0001:00003260       ?GetMessageMap@CAddToThisFavDlg@@MBEPBUAFX_MSGMAP@@XZ 00404260 f   AddToThisFavDlg.obj
 0001:00003280       ?OnInitDialog@CAddToThisFavDlg@@MAEHXZ 00404280 f   AddToThisFavDlg.obj
 0001:000033c0       ?SetCheck@CButton@@QAEXH@Z 004043c0 f i AddToThisFavDlg.obj
 0001:000033f0       ?SetCurSel@CComboBox@@QAEHH@Z 004043f0 f i AddToThisFavDlg.obj
 0001:00003420       ?OnUseSpecial@CAddToThisFavDlg@@IAEXXZ 00404420 f   AddToThisFavDlg.obj
 0001:000034b0       ?GetCheck@CButton@@QBEHXZ  004044b0 f i AddToThisFavDlg.obj
 0001:000034e0       ?OnOK@CAddToThisFavDlg@@MAEXXZ 004044e0 f   AddToThisFavDlg.obj
 0001:00003630       ?GetCurSel@CComboBox@@QBEHXZ 00404630 f i AddToThisFavDlg.obj
 0001:00003660       ?GetItemData@CComboBox@@QBEKH@Z 00404660 f i AddToThisFavDlg.obj
 0001:00003750       ??0CAdvTabCtrl@@QAE@XZ     00404750 f   AdvTabCtrl.obj
 0001:00003850       ??0CFont@@QAE@XZ           00404850 f i AdvTabCtrl.obj
 0001:00003880       ??0CGdiObject@@QAE@XZ      00404880 f i AdvTabCtrl.obj
 0001:000038c0       ??0CObject@@IAE@XZ         004048c0 f i AdvTabCtrl.obj
 0001:000038e0       ??_ECGdiObject@@UAEPAXI@Z  004048e0 f i AdvTabCtrl.obj
 0001:000038e0       ??_GCGdiObject@@UAEPAXI@Z  004048e0 f i AdvTabCtrl.obj
 0001:00003920       ??1CGdiObject@@UAE@XZ      00404920 f i AdvTabCtrl.obj
 0001:00003980       ??1CObject@@UAE@XZ         00404980 f i AdvTabCtrl.obj
 0001:000039a0       ??_ECFont@@UAEPAXI@Z       004049a0 f i AdvTabCtrl.obj
 0001:000039a0       ??_GCFont@@UAEPAXI@Z       004049a0 f i AdvTabCtrl.obj
 0001:000039e0       ??1CFont@@UAE@XZ           004049e0 f i AdvTabCtrl.obj
 0001:00003a10       ??_ECAdvTabCtrl@@UAEPAXI@Z 00404a10 f i AdvTabCtrl.obj
 0001:00003a10       ??_GCAdvTabCtrl@@UAEPAXI@Z 00404a10 f i AdvTabCtrl.obj
 0001:00003a50       ??1CAdvTabCtrl@@UAE@XZ     00404a50 f   AdvTabCtrl.obj
 0001:00003ac0       ?GetMessageMap@CAdvTabCtrl@@MBEPBUAFX_MSGMAP@@XZ 00404ac0 f   AdvTabCtrl.obj
 0001:00003ae0       ?OnMouseMove@CAdvTabCtrl@@IAEXIVCPoint@@@Z 00404ae0 f   AdvTabCtrl.obj
 0001:00003c90       ?GetItem@CTabCtrl@@QBEHHPAUtagTCITEMA@@@Z 00404c90 f i AdvTabCtrl.obj
 0001:00003cc0       ?GetItemRect@CTabCtrl@@QBEHHPAUtagRECT@@@Z 00404cc0 f i AdvTabCtrl.obj
 0001:00003cf0       ?OnLButtonDown@CAdvTabCtrl@@IAEXIVCPoint@@@Z 00404cf0 f   AdvTabCtrl.obj
 0001:00003de0       ?GetCurSel@CTabCtrl@@QBEHXZ 00404de0 f i AdvTabCtrl.obj
 0001:00003e10       ?OnLButtonUp@CAdvTabCtrl@@IAEXIVCPoint@@@Z 00404e10 f   AdvTabCtrl.obj
 0001:00003ff0       ?AfxGetMainWnd@@YGPAVCWnd@@XZ 00404ff0 f i AdvTabCtrl.obj
 0001:00004030       ?PostMessageA@CWnd@@QAEHIIJ@Z 00405030 f i AdvTabCtrl.obj
 0001:00004060       ?InsertItem@CTabCtrl@@QAEHHPAUtagTCITEMA@@@Z 00405060 f i AdvTabCtrl.obj
 0001:00004090       ?DeleteItem@CTabCtrl@@QAEHH@Z 00405090 f i AdvTabCtrl.obj
 0001:000040c0       ?SetCurSel@CTabCtrl@@QAEHH@Z 004050c0 f i AdvTabCtrl.obj
 0001:000040f0       ?GetTabIDFromPoint@CAdvTabCtrl@@QAEHAAVCPoint@@@Z 004050f0 f   AdvTabCtrl.obj
 0001:00004130       ?HitTest@CTabCtrl@@QBEHPAUtagTCHITTESTINFO@@@Z 00405130 f i AdvTabCtrl.obj
 0001:00004160       ?OnLButtonDblClk@CAdvTabCtrl@@IAEXIVCPoint@@@Z 00405160 f   AdvTabCtrl.obj
 0001:000041b0       ?OnMButtonDown@CAdvTabCtrl@@IAEXIVCPoint@@@Z 004051b0 f   AdvTabCtrl.obj
 0001:00004200       ?OnMButtonDown@CWnd@@IAEXIVCPoint@@@Z 00405200 f i AdvTabCtrl.obj
 0001:00004220       ?ProcessClick@CAdvTabCtrl@@AAEXIVCPoint@@H@Z 00405220 f   AdvTabCtrl.obj
 0001:00004510       ?SetColours@CAdvTabCtrl@@QAEXKK@Z 00405510 f   AdvTabCtrl.obj
 0001:00004550       ?Invalidate@CWnd@@QAEXH@Z  00405550 f i AdvTabCtrl.obj
 0001:00004580       ?SetBKColours@CAdvTabCtrl@@QAEXKK@Z 00405580 f   AdvTabCtrl.obj
 0001:000045c0       ?OnRButtonDown@CAdvTabCtrl@@IAEXIVCPoint@@@Z 004055c0 f   AdvTabCtrl.obj
 0001:00004610       ?OnRButtonDown@CWnd@@IAEXIVCPoint@@@Z 00405610 f i AdvTabCtrl.obj
 0001:00004630       ?OnRButtonUp@CAdvTabCtrl@@IAEXIVCPoint@@@Z 00405630 f   AdvTabCtrl.obj
 0001:000046c0       ?OnRButtonUp@CWnd@@IAEXIVCPoint@@@Z 004056c0 f i AdvTabCtrl.obj
 0001:000046e0       ?ClickCloseDown@CAdvTabCtrl@@QAEHVCPoint@@@Z 004056e0 f   AdvTabCtrl.obj
 0001:00004800       ?SetCapture@CWnd@@QAEPAV1@XZ 00405800 f i AdvTabCtrl.obj
 0001:00004830       ?ClickCloseUp@CAdvTabCtrl@@QAEHVCPoint@@@Z 00405830 f   AdvTabCtrl.obj
 0001:00004960       ??0CAnimateIcon@@QAE@XZ    00405960 f   AnimateIcon.obj
 0001:000049a0       ??1CAnimateIcon@@QAE@XZ    004059a0 f   AnimateIcon.obj
 0001:000049e0       ?SetImageList@CAnimateIcon@@QAEHPAUHBITMAP__@@HK@Z 004059e0 f   AnimateIcon.obj
 0001:00004a50       ?ShowNextImage@CAnimateIcon@@QAEHXZ 00405a50 f   AnimateIcon.obj
 0001:00004b30       ?ExtractIconA@CImageList@@QAEPAUHICON__@@H@Z 00405b30 f i AnimateIcon.obj
 0001:00004b60       ?ShowFirstImage@CAnimateIcon@@QAEHXZ 00405b60 f   AnimateIcon.obj
 0001:00004c20       ?GetImageList@CAnimateIcon@@QAEPAVCImageList@@XZ 00405c20 f   AnimateIcon.obj
 0001:00004c40       ??0CAttribute@@QAE@XZ      00405c40 f   Attribute.obj
 0001:00004d10       ?RemoveAll@CStringArray@@QAEXXZ 00405d10 f i Attribute.obj
 0001:00004d30       ??_ECAttribute@@UAEPAXI@Z  00405d30 f i Attribute.obj
 0001:00004d30       ??_GCAttribute@@UAEPAXI@Z  00405d30 f i Attribute.obj
 0001:00004d70       ??0CAttribute@@QAE@ABV0@@Z 00405d70 f   Attribute.obj
 0001:00004e70       ??1CAttribute@@UAE@XZ      00405e70 f   Attribute.obj
 0001:00004f10       ?qucikSortSplits@CAttribute@@QAEXHH@Z 00405f10 f   Attribute.obj
 0001:00005100       ?setName@CAttribute@@QAEXPBD@Z 00406100 f   Attribute.obj
 0001:00005130       ?getName@CAttribute@@QBEPADXZ 00406130 f   Attribute.obj
 0001:00005150       ?setType@CAttribute@@QAEXW4AttrType@@@Z 00406150 f   Attribute.obj
 0001:00005170       ?getType@CAttribute@@QBE?AW4AttrType@@XZ 00406170 f   Attribute.obj
 0001:00005190       ?getSize@CAttribute@@QAEHXZ 00406190 f   Attribute.obj
 0001:000051d0       ?GetSize@CStringArray@@QBEHXZ 004061d0 f i Attribute.obj
 0001:000051f0       ?addDiscretValue@CAttribute@@QAEXVCString@@@Z 004061f0 f   Attribute.obj
 0001:00005250       ?Add@CStringArray@@QAEHABVCString@@@Z 00406250 f i Attribute.obj
 0001:00005290       ?addSplit@CAttribute@@QAEXN@Z 00406290 f   Attribute.obj
 0001:000052c0       ?getConstDiscretValue@CAttribute@@QBEABVCStringArray@@XZ 004062c0 f   Attribute.obj
 0001:000052e0       ?getDiscretValue@CAttribute@@QAEAAVCStringArray@@XZ 004062e0 f   Attribute.obj
 0001:00005300       ?clearDiscretValue@CAttribute@@QAEHXZ 00406300 f   Attribute.obj
 0001:00005320       ?isIgnore@CAttribute@@QBE_NXZ 00406320 f   Attribute.obj
 0001:00005340       ?setIgnore@CAttribute@@QAEX_N@Z 00406340 f   Attribute.obj
 0001:00005360       ?getSplits@CAttribute@@QBEABV?$CArray@NAAN@@XZ 00406360 f   Attribute.obj
 0001:00005380       ?getSplitNum@CAttribute@@QAEHXZ 00406380 f   Attribute.obj
 0001:000053a0       ?getSplit@CAttribute@@QAENH@Z 004063a0 f   Attribute.obj
 0001:000053d0       ?setPrecision@CAttribute@@QAEXN@Z 004063d0 f   Attribute.obj
 0001:00005400       ?getPrecision@CAttribute@@QBENXZ 00406400 f   Attribute.obj
 0001:00005420       ??4CAttribute@@QAEXABV0@@Z 00406420 f   Attribute.obj
 0001:000054c0       ?getDiscretIndex@CAttribute@@QAEHVCString@@@Z 004064c0 f   Attribute.obj
 0001:00005580       ??ACStringArray@@QAEAAVCString@@H@Z 00406580 f i Attribute.obj
 0001:000055b0       ?ElementAt@CStringArray@@QAEAAVCString@@H@Z 004065b0 f i Attribute.obj
 0001:000055e0       ?getDiscretValue@CAttribute@@QAE_NHAAVCString@@@Z 004065e0 f   Attribute.obj
 0001:00005630       ?getDiscretNumber@CAttribute@@QAEHXZ 00406630 f   Attribute.obj
 0001:00005650       ?serialize@CAttribute@@QAEHAAVCArchive@@@Z 00406650 f   Attribute.obj
 0001:00005930       ?IsStoring@CArchive@@QBEHXZ 00406930 f i Attribute.obj
 0001:00005960       ??6CArchive@@QAEAAV0@H@Z   00406960 f i Attribute.obj
 0001:00005990       ??6CArchive@@QAEAAV0@J@Z   00406990 f i Attribute.obj
 0001:000059e0       ??6CArchive@@QAEAAV0@N@Z   004069e0 f i Attribute.obj
 0001:00005a40       ??5CArchive@@QAEAAV0@AAH@Z 00406a40 f i Attribute.obj
 0001:00005a70       ??5CArchive@@QAEAAV0@AAN@Z 00406a70 f i Attribute.obj
 0001:00005ae0       ??5CArchive@@QAEAAV0@AAJ@Z 00406ae0 f i Attribute.obj
 0001:00005b50       ?dump@CAttribute@@QAEXXZ   00406b50 f   Attribute.obj
 0001:00005ca0       ??0?$CArray@NAAN@@QAE@XZ   00406ca0 f i Attribute.obj
 0001:00005cf0       ?GetSize@?$CArray@NAAN@@QBEHXZ 00406cf0 f i Attribute.obj
 0001:00005d10       ?RemoveAll@?$CArray@NAAN@@QAEXXZ 00406d10 f i Attribute.obj
 0001:00005d30       ?SetAt@?$CArray@NAAN@@QAEXHAAN@Z 00406d30 f i Attribute.obj
 0001:00005d60       ?Add@?$CArray@NAAN@@QAEHAAN@Z 00406d60 f i Attribute.obj
 0001:00005da0       ?Append@?$CArray@NAAN@@QAEHABV1@@Z 00406da0 f i Attribute.obj
 0001:00005e00       ??A?$CArray@NAAN@@QAEAANH@Z 00406e00 f i Attribute.obj
 0001:00005e30       ??1?$CArray@NAAN@@UAE@XZ   00406e30 f i Attribute.obj
 0001:00005ec0       ?Serialize@?$CArray@NAAN@@UAEXAAVCArchive@@@Z 00406ec0 f i Attribute.obj
 0001:00005f30       ??_G?$CArray@NAAN@@UAEPAXI@Z 00406f30 f i Attribute.obj
 0001:00005f30       ??_E?$CArray@NAAN@@UAEPAXI@Z 00406f30 f i Attribute.obj
 0001:00005f70       ?SetSize@?$CArray@NAAN@@QAEXHH@Z 00406f70 f i Attribute.obj
 0001:000061a0       ?ElementAt@?$CArray@NAAN@@QAEAANH@Z 004071a0 f i Attribute.obj
 0001:000061d0       ?SetAtGrow@?$CArray@NAAN@@QAEXHAAN@Z 004071d0 f i Attribute.obj
 0001:00006220       ?CopyElements@@YGXPANPBNH@Z 00407220 f i Attribute.obj
 0001:00006270       ?DestructElements@@YGXPANH@Z 00407270 f i Attribute.obj
 0001:000062a0       ?SerializeElements@@YGXAAVCArchive@@PANH@Z 004072a0 f i Attribute.obj
 0001:000062f0       ?ConstructElements@@YGXPANH@Z 004072f0 f i Attribute.obj
 0001:00006350       ??2@YAPAXIPAX@Z            00407350 f i Attribute.obj
 0001:00006370       ??0CBaseTabCtrl@@QAE@XZ    00407370 f   BaseTabCtrl.obj
 0001:00006420       ??0CTabCtrl@@QAE@XZ        00407420 f i BaseTabCtrl.obj
 0001:00006450       ??_ECTabCtrl@@UAEPAXI@Z    00407450 f i BaseTabCtrl.obj
 0001:00006450       ??_GCTabCtrl@@UAEPAXI@Z    00407450 f i BaseTabCtrl.obj
 0001:00006490       ??_ECBaseTabCtrl@@UAEPAXI@Z 00407490 f i BaseTabCtrl.obj
 0001:00006490       ??_GCBaseTabCtrl@@UAEPAXI@Z 00407490 f i BaseTabCtrl.obj
 0001:000064d0       ??1CBaseTabCtrl@@UAE@XZ    004074d0 f   BaseTabCtrl.obj
 0001:00006500       ?GetMessageMap@CBaseTabCtrl@@MBEPBUAFX_MSGMAP@@XZ 00407500 f   BaseTabCtrl.obj
 0001:00006520       ?logging@CBaseTabCtrl@@QAEHVCString@@00@Z 00407520 f   BaseTabCtrl.obj
 0001:00006770       ?SetUnSelColor@CBaseTabCtrl@@QAEXK@Z 00407770 f   BaseTabCtrl.obj
 0001:000067b0       ?SetSelFontColor@CBaseTabCtrl@@QAEXK@Z 004077b0 f   BaseTabCtrl.obj
 0001:000067f0       ?SetUnSelFontColor@CBaseTabCtrl@@QAEXK@Z 004077f0 f   BaseTabCtrl.obj
 0001:00006830       ?SetSepColor@CBaseTabCtrl@@QAEXK@Z 00407830 f   BaseTabCtrl.obj
 0001:00006870       ?SetTabStyle@CBaseTabCtrl@@QAEXH@Z 00407870 f   BaseTabCtrl.obj
 0001:000068e0       ?SetTabPos@CBaseTabCtrl@@QAEXH@Z 004078e0 f   BaseTabCtrl.obj
 0001:00006920       ?DrawItem@CBaseTabCtrl@@MAEXPAUtagDRAWITEMSTRUCT@@@Z 00407920 f   BaseTabCtrl.obj
 0001:00006940       ?DrawItemBorder@CBaseTabCtrl@@MAEXPAUtagDRAWITEMSTRUCT@@@Z 00407940 f   BaseTabCtrl.obj
 0001:00006960       ?DrawMainBorder@CBaseTabCtrl@@MAEXPAUtagDRAWITEMSTRUCT@@@Z 00407960 f   BaseTabCtrl.obj
 0001:00006980       ?GetTabColor@CBaseTabCtrl@@MAEKH@Z 00407980 f   BaseTabCtrl.obj
 0001:000069a0       ?GetTabTextColor@CBaseTabCtrl@@MAEKH@Z 004079a0 f   BaseTabCtrl.obj
 0001:000069c0       ?PreSubclassWindow@CBaseTabCtrl@@MAEXXZ 004079c0 f   BaseTabCtrl.obj
 0001:00006a00       ?OnEraseBkgnd@CBaseTabCtrl@@IAEHPAVCDC@@@Z 00407a00 f   BaseTabCtrl.obj
 0001:00006b90       ?OnEraseBkgnd@CWnd@@IAEHPAVCDC@@@Z 00407b90 f i BaseTabCtrl.obj
 0001:00006bb0       ?GetItemCount@CTabCtrl@@QBEHXZ 00407bb0 f i BaseTabCtrl.obj
 0001:00006be0       ?OnPaint@CBaseTabCtrl@@IAEXXZ 00407be0 f   BaseTabCtrl.obj
 0001:00006f10       ??4CRect@@QAEXABUtagRECT@@@Z 00407f10 f i BaseTabCtrl.obj
 0001:00006f40       ?GetSafeHdc@CDC@@QBEPAUHDC__@@XZ 00407f40 f i BaseTabCtrl.obj
 0001:00006f70       ?GetFont@CWnd@@QBEPAVCFont@@XZ 00407f70 f i BaseTabCtrl.obj
 0001:00006fa0       ?FromHandle@CFont@@SGPAV1@PAUHFONT__@@@Z 00407fa0 f i BaseTabCtrl.obj
 0001:00006fc0       ?AdjustRect@CTabCtrl@@QAEXHPAUtagRECT@@@Z 00407fc0 f i BaseTabCtrl.obj
 0001:000070f0       ?LoadBehaviorFeatureFromXML@BehaviorFeatureAnalysis@@QAEXVCString@@@Z 004080f0 f   BehaviorFeatureAnalysis.obj
 0001:00009730       ??0MCD_CSTR@@QAE@PBD@Z     0040a730 f i BehaviorFeatureAnalysis.obj
 0001:00009750       ??0CMarkup@@QAE@XZ         0040a750 f i BehaviorFeatureAnalysis.obj
 0001:000097c0       ?GetChildData@CMarkup@@QAE?AVCString@@XZ 0040a7c0 f i BehaviorFeatureAnalysis.obj
 0001:00009800       ?Calc_SOM_Prediction_Value@BehaviorFeatureAnalysis@@QAENXZ 0040a800 f   BehaviorFeatureAnalysis.obj
 0001:00009870       ?Calc_DEP_Prediction_Value@BehaviorFeatureAnalysis@@QAENXZ 0040a870 f   BehaviorFeatureAnalysis.obj
 0001:00009920       ?Calc_ANX_Prediction_Value@BehaviorFeatureAnalysis@@QAENXZ 0040a920 f   BehaviorFeatureAnalysis.obj
 0001:000099d0       ?Calc_PSD_Prediction_Value@BehaviorFeatureAnalysis@@QAENXZ 0040a9d0 f   BehaviorFeatureAnalysis.obj
 0001:00009a70       ?Calc_HYP_Prediction_Value@BehaviorFeatureAnalysis@@QAENXZ 0040aa70 f   BehaviorFeatureAnalysis.obj
 0001:00009af0       ?Calc_UNR_Prediction_Value@BehaviorFeatureAnalysis@@QAENXZ 0040aaf0 f   BehaviorFeatureAnalysis.obj
 0001:00009bb0       ?Calc_HMA_Prediction_Value@BehaviorFeatureAnalysis@@QAENXZ 0040abb0 f   BehaviorFeatureAnalysis.obj
 0001:00009c70       ?SaveBehaviorFeatureToXML@BehaviorFeatureAnalysis@@QAEXXZ 0040ac70 f   BehaviorFeatureAnalysis.obj
 0001:0000d090       ??0CTime@@QAE@ABV0@@Z      0040e090 f i BehaviorFeatureAnalysis.obj
 0001:0000d0c0       ??0MCD_CSTR@@QAE@ABVCString@@@Z 0040e0c0 f i BehaviorFeatureAnalysis.obj
 0001:0000d0f0       ?AddElem@CMarkup@@QAE_NUMCD_CSTR@@0H@Z 0040e0f0 f i BehaviorFeatureAnalysis.obj
 0001:0000d130       ??BMCD_CSTR@@QBEPBDXZ      0040e130 f i BehaviorFeatureAnalysis.obj
 0001:0000d150       ?AddElem@CMarkup@@QAE_NUMCD_CSTR@@HH@Z 0040e150 f i BehaviorFeatureAnalysis.obj
 0001:0000d180       ?SetAttrib@CMarkup@@QAE_NUMCD_CSTR@@0H@Z 0040e180 f i BehaviorFeatureAnalysis.obj
 0001:0000d1c0       ??0CHighTime@@QAE@XZ       0040e1c0 f i BehaviorFeatureAnalysis.obj
 0001:0000d1f0       ?UpdateBehaviorFeature_PAN_EmotionClassify@BehaviorFeatureAnalysis@@SAXHH@Z 0040e1f0 f   BehaviorFeatureAnalysis.obj
 0001:0000d260       ?UpdateBehaviorFeature_PTN_ContentClassify@BehaviorFeatureAnalysis@@SAXHH@Z 0040e260 f   BehaviorFeatureAnalysis.obj
 0001:0000d320       ?UpdateBehaviorFeature_ONB_Weekend@BehaviorFeatureAnalysis@@SAXH@Z 0040e320 f   BehaviorFeatureAnalysis.obj
 0001:0000d3f0       ?UpdateBehaviorFeature_ONB_WorkDay@BehaviorFeatureAnalysis@@SAXH@Z 0040e3f0 f   BehaviorFeatureAnalysis.obj
 0001:0000d4a0       ?UpdateBehaviorFeature_ONB_StaySecond@BehaviorFeatureAnalysis@@SAXH@Z 0040e4a0 f   BehaviorFeatureAnalysis.obj
 0001:0000d570       ?UpdateBehaviorFeature_ONB_StartTime@BehaviorFeatureAnalysis@@SAXH@Z 0040e570 f   BehaviorFeatureAnalysis.obj
 0001:0000d7a0       ??0BehaviorFeatureHistoryAnalysis@@QAE@XZ 0040e7a0 f   BehaviorFeatureHistoryAnalysis.obj
 0001:0000d940       ??1?$map@VCHighTime@@NU?$less@VCHighTime@@@std@@V?$allocator@N@3@@std@@QAE@XZ 0040e940 f i BehaviorFeatureHistoryAnalysis.obj
 0001:0000d960       ??1?$map@VCString@@NU?$less@VCString@@@std@@V?$allocator@N@3@@std@@QAE@XZ 0040e960 f i BehaviorFeatureHistoryAnalysis.obj
 0001:0000d980       ?LoadBehaviorFeatureHistoryAnalysis@BehaviorFeatureHistoryAnalysis@@QAEXVCString@@@Z 0040e980 f   BehaviorFeatureHistoryAnalysis.obj
 0001:0000ed70       ?GetAttrib@CMarkup@@QBE?AVCString@@UMCD_CSTR@@@Z 0040fd70 f i BehaviorFeatureHistoryAnalysis.obj
 0001:0000edc0       ??1?$pair@VCString@@N@std@@QAE@XZ 0040fdc0 f i BehaviorFeatureHistoryAnalysis.obj
 0001:0000ede0       ??1?$pair@$$CBVCString@@N@std@@QAE@XZ 0040fde0 f i BehaviorFeatureHistoryAnalysis.obj
 0001:0000ee00       ?UpdateBehaviorFeatureHistory@BehaviorFeatureHistoryAnalysis@@QAEXXZ 0040fe00 f   BehaviorFeatureHistoryAnalysis.obj
 0001:0000f010       ?SaveEmotionPredictionsHistory@BehaviorFeatureHistoryAnalysis@@QAEXVCString@@@Z 00410010 f   BehaviorFeatureHistoryAnalysis.obj
 0001:0000f380       ??0CHighTime@@QAE@ABV0@@Z  00410380 f i BehaviorFeatureHistoryAnalysis.obj
 0001:0000f3b0       ??4CHighTime@@QAEABV0@ABV0@@Z 004103b0 f i BehaviorFeatureHistoryAnalysis.obj
 0001:0000f3f0       ?AddAttrib@CMarkup@@QAE_NUMCD_CSTR@@0@Z 004103f0 f i BehaviorFeatureHistoryAnalysis.obj
 0001:0000f430       ??0?$map@VCHighTime@@NU?$less@VCHighTime@@@std@@V?$allocator@N@3@@std@@QAE@ABU?$less@VCHighTime@@@1@ABV?$allocator@N@1@@Z 00410430 f i BehaviorFeatureHistoryAnalysis.obj
 0001:0000f460       ?begin@?$map@VCHighTime@@NU?$less@VCHighTime@@@std@@V?$allocator@N@3@@std@@QAE?AViterator@?$_Tree@VCHighTime@@U?$pair@$$CBVCHighTime@@N@std@@U_Kfn@?$map@VCHighTime@@NU?$less@VCHighTime@@@std@@V?$allocator@N@3@@3@U?$less@VCHighTime@@@3@V?$allocator@N@3@@2@XZ 00410460 f i BehaviorFeatureHistoryAnalysis.obj
 0001:0000f490       ?end@?$map@VCHighTime@@NU?$less@VCHighTime@@@std@@V?$allocator@N@3@@std@@QAE?AViterator@?$_Tree@VCHighTime@@U?$pair@$$CBVCHighTime@@N@std@@U_Kfn@?$map@VCHighTime@@NU?$less@VCHighTime@@@std@@V?$allocator@N@3@@3@U?$less@VCHighTime@@@3@V?$allocator@N@3@@2@XZ 00410490 f i BehaviorFeatureHistoryAnalysis.obj
 0001:0000f4c0       ??A?$map@VCHighTime@@NU?$less@VCHighTime@@@std@@V?$allocator@N@3@@std@@QAEAANABVCHighTime@@@Z 004104c0 f i BehaviorFeatureHistoryAnalysis.obj
 0001:0000f510       ?insert@?$map@VCHighTime@@NU?$less@VCHighTime@@@std@@V?$allocator@N@3@@std@@QAE?AU?$pair@Viterator@?$_Tree@VCHighTime@@U?$pair@$$CBVCHighTime@@N@std@@U_Kfn@?$map@VCHighTime@@NU?$less@VCHighTime@@@std@@V?$allocator@N@3@@3@U?$less@VCHighTime@@@3@V?$allocator@N@3@@std@@_N@2@ABU?$pair@$$CBVCHighTime@@N@2@@Z 00410510 f i BehaviorFeatureHistoryAnalysis.obj
 0001:0000f560       ??1?$_Tree@VCHighTime@@U?$pair@$$CBVCHighTime@@N@std@@U_Kfn@?$map@VCHighTime@@NU?$less@VCHighTime@@@std@@V?$allocator@N@3@@3@U?$less@VCHighTime@@@3@V?$allocator@N@3@@std@@QAE@XZ 00410560 f i BehaviorFeatureHistoryAnalysis.obj
 0001:0000f620       ??Citerator@?$_Tree@VCHighTime@@U?$pair@$$CBVCHighTime@@N@std@@U_Kfn@?$map@VCHighTime@@NU?$less@VCHighTime@@@std@@V?$allocator@N@3@@3@U?$less@VCHighTime@@@3@V?$allocator@N@3@@std@@QBEPAU?$pair@$$CBVCHighTime@@N@2@XZ 00410620 f i BehaviorFeatureHistoryAnalysis.obj
 0001:0000f640       ??Eiterator@?$_Tree@VCHighTime@@U?$pair@$$CBVCHighTime@@N@std@@U_Kfn@?$map@VCHighTime@@NU?$less@VCHighTime@@@std@@V?$allocator@N@3@@3@U?$less@VCHighTime@@@3@V?$allocator@N@3@@std@@QAE?AV012@H@Z 00410640 f i BehaviorFeatureHistoryAnalysis.obj
 0001:0000f670       ??9iterator@?$_Tree@VCHighTime@@U?$pair@$$CBVCHighTime@@N@std@@U_Kfn@?$map@VCHighTime@@NU?$less@VCHighTime@@@std@@V?$allocator@N@3@@3@U?$less@VCHighTime@@@3@V?$allocator@N@3@@std@@QBE_NABV012@@Z 00410670 f i BehaviorFeatureHistoryAnalysis.obj
 0001:0000f6a0       ??0?$map@VCString@@NU?$less@VCString@@@std@@V?$allocator@N@3@@std@@QAE@ABU?$less@VCString@@@1@ABV?$allocator@N@1@@Z 004106a0 f i BehaviorFeatureHistoryAnalysis.obj
 0001:0000f6d0       ?insert@?$map@VCString@@NU?$less@VCString@@@std@@V?$allocator@N@3@@std@@QAE?AU?$pair@Viterator@?$_Tree@VCString@@U?$pair@$$CBVCString@@N@std@@U_Kfn@?$map@VCString@@NU?$less@VCString@@@std@@V?$allocator@N@3@@3@U?$less@VCString@@@3@V?$allocator@N@3@@std@@_N@2@ABU?$pair@$$CBVCString@@N@2@@Z 004106d0 f i BehaviorFeatureHistoryAnalysis.obj
 0001:0000f720       ?count@?$map@VCString@@NU?$less@VCString@@@std@@V?$allocator@N@3@@std@@QBEIABVCString@@@Z 00410720 f i BehaviorFeatureHistoryAnalysis.obj
 0001:0000f750       ??1?$_Tree@VCString@@U?$pair@$$CBVCString@@N@std@@U_Kfn@?$map@VCString@@NU?$less@VCString@@@std@@V?$allocator@N@3@@3@U?$less@VCString@@@3@V?$allocator@N@3@@std@@QAE@XZ 00410750 f i BehaviorFeatureHistoryAnalysis.obj
 0001:0000f810       ??0?$pair@VCString@@N@std@@QAE@ABVCString@@ABN@Z 00410810 f i BehaviorFeatureHistoryAnalysis.obj
 0001:0000f850       ??0?$pair@VCHighTime@@N@std@@QAE@ABVCHighTime@@ABN@Z 00410850 f i BehaviorFeatureHistoryAnalysis.obj
 0001:0000f890       ??0?$_Tree@VCHighTime@@U?$pair@$$CBVCHighTime@@N@std@@U_Kfn@?$map@VCHighTime@@NU?$less@VCHighTime@@@std@@V?$allocator@N@3@@3@U?$less@VCHighTime@@@3@V?$allocator@N@3@@std@@QAE@ABU?$less@VCHighTime@@@1@_NABV?$allocator@N@1@@Z 00410890 f i BehaviorFeatureHistoryAnalysis.obj
 0001:0000f8d0       ?begin@?$_Tree@VCHighTime@@U?$pair@$$CBVCHighTime@@N@std@@U_Kfn@?$map@VCHighTime@@NU?$less@VCHighTime@@@std@@V?$allocator@N@3@@3@U?$less@VCHighTime@@@3@V?$allocator@N@3@@std@@QAE?AViterator@12@XZ 004108d0 f i BehaviorFeatureHistoryAnalysis.obj
 0001:0000f910       ?end@?$_Tree@VCHighTime@@U?$pair@$$CBVCHighTime@@N@std@@U_Kfn@?$map@VCHighTime@@NU?$less@VCHighTime@@@std@@V?$allocator@N@3@@3@U?$less@VCHighTime@@@3@V?$allocator@N@3@@std@@QAE?AViterator@12@XZ 00410910 f i BehaviorFeatureHistoryAnalysis.obj
 0001:0000f940       ?insert@?$_Tree@VCHighTime@@U?$pair@$$CBVCHighTime@@N@std@@U_Kfn@?$map@VCHighTime@@NU?$less@VCHighTime@@@std@@V?$allocator@N@3@@3@U?$less@VCHighTime@@@3@V?$allocator@N@3@@std@@QAE?AU?$pair@Viterator@?$_Tree@VCHighTime@@U?$pair@$$CBVCHighTime@@N@std@@U_Kfn@?$map@VCHighTime@@NU?$less@VCHighTime@@@std@@V?$allocator@N@3@@3@U?$less@VCHighTime@@@3@V?$allocator@N@3@@std@@_N@2@ABU?$pair@$$CBVCHighTime@@N@2@@Z 00410940 f i BehaviorFeatureHistoryAnalysis.obj
 0001:0000fb50       ?erase@?$_Tree@VCHighTime@@U?$pair@$$CBVCHighTime@@N@std@@U_Kfn@?$map@VCHighTime@@NU?$less@VCHighTime@@@std@@V?$allocator@N@3@@3@U?$less@VCHighTime@@@3@V?$allocator@N@3@@std@@QAE?AViterator@12@V312@0@Z 00410b50 f i BehaviorFeatureHistoryAnalysis.obj
 0001:0000fc60       ?_Freenode@?$_Tree@VCHighTime@@U?$pair@$$CBVCHighTime@@N@std@@U_Kfn@?$map@VCHighTime@@NU?$less@VCHighTime@@@std@@V?$allocator@N@3@@3@U?$less@VCHighTime@@@3@V?$allocator@N@3@@std@@IAEXPAU_Node@12@@Z 00410c60 f i BehaviorFeatureHistoryAnalysis.obj
 0001:0000fc90       ??0?$pair@$$CBVCHighTime@@N@std@@QAE@ABVCHighTime@@ABN@Z 00410c90 f i BehaviorFeatureHistoryAnalysis.obj
 0001:0000fcd0       ??Diterator@?$_Tree@VCHighTime@@U?$pair@$$CBVCHighTime@@N@std@@U_Kfn@?$map@VCHighTime@@NU?$less@VCHighTime@@@std@@V?$allocator@N@3@@3@U?$less@VCHighTime@@@3@V?$allocator@N@3@@std@@QBEAAU?$pair@$$CBVCHighTime@@N@2@XZ 00410cd0 f i BehaviorFeatureHistoryAnalysis.obj
 0001:0000fd00       ??Eiterator@?$_Tree@VCHighTime@@U?$pair@$$CBVCHighTime@@N@std@@U_Kfn@?$map@VCHighTime@@NU?$less@VCHighTime@@@std@@V?$allocator@N@3@@3@U?$less@VCHighTime@@@3@V?$allocator@N@3@@std@@QAEAAV012@XZ 00410d00 f i BehaviorFeatureHistoryAnalysis.obj
 0001:0000fd20       ??8iterator@?$_Tree@VCHighTime@@U?$pair@$$CBVCHighTime@@N@std@@U_Kfn@?$map@VCHighTime@@NU?$less@VCHighTime@@@std@@V?$allocator@N@3@@3@U?$less@VCHighTime@@@3@V?$allocator@N@3@@std@@QBE_NABV012@@Z 00410d20 f i BehaviorFeatureHistoryAnalysis.obj
 0001:0000fd50       ??0?$_Tree@VCString@@U?$pair@$$CBVCString@@N@std@@U_Kfn@?$map@VCString@@NU?$less@VCString@@@std@@V?$allocator@N@3@@3@U?$less@VCString@@@3@V?$allocator@N@3@@std@@QAE@ABU?$less@VCString@@@1@_NABV?$allocator@N@1@@Z 00410d50 f i BehaviorFeatureHistoryAnalysis.obj
 0001:0000fd90       ?begin@?$_Tree@VCString@@U?$pair@$$CBVCString@@N@std@@U_Kfn@?$map@VCString@@NU?$less@VCString@@@std@@V?$allocator@N@3@@3@U?$less@VCString@@@3@V?$allocator@N@3@@std@@QAE?AViterator@12@XZ 00410d90 f i BehaviorFeatureHistoryAnalysis.obj
 0001:0000fdd0       ?end@?$_Tree@VCString@@U?$pair@$$CBVCString@@N@std@@U_Kfn@?$map@VCString@@NU?$less@VCString@@@std@@V?$allocator@N@3@@3@U?$less@VCString@@@3@V?$allocator@N@3@@std@@QAE?AViterator@12@XZ 00410dd0 f i BehaviorFeatureHistoryAnalysis.obj
 0001:0000fe00       ?insert@?$_Tree@VCString@@U?$pair@$$CBVCString@@N@std@@U_Kfn@?$map@VCString@@NU?$less@VCString@@@std@@V?$allocator@N@3@@3@U?$less@VCString@@@3@V?$allocator@N@3@@std@@QAE?AU?$pair@Viterator@?$_Tree@VCString@@U?$pair@$$CBVCString@@N@std@@U_Kfn@?$map@VCString@@NU?$less@VCString@@@std@@V?$allocator@N@3@@3@U?$less@VCString@@@3@V?$allocator@N@3@@std@@_N@2@ABU?$pair@$$CBVCString@@N@2@@Z 00410e00 f i BehaviorFeatureHistoryAnalysis.obj
 0001:00010010       ?erase@?$_Tree@VCString@@U?$pair@$$CBVCString@@N@std@@U_Kfn@?$map@VCString@@NU?$less@VCString@@@std@@V?$allocator@N@3@@3@U?$less@VCString@@@3@V?$allocator@N@3@@std@@QAE?AViterator@12@V312@0@Z 00411010 f i BehaviorFeatureHistoryAnalysis.obj
 0001:00010120       ?count@?$_Tree@VCString@@U?$pair@$$CBVCString@@N@std@@U_Kfn@?$map@VCString@@NU?$less@VCString@@@std@@V?$allocator@N@3@@3@U?$less@VCString@@@3@V?$allocator@N@3@@std@@QBEIABVCString@@@Z 00411120 f i BehaviorFeatureHistoryAnalysis.obj
 0001:00010170       ?_Freenode@?$_Tree@VCString@@U?$pair@$$CBVCString@@N@std@@U_Kfn@?$map@VCString@@NU?$less@VCString@@@std@@V?$allocator@N@3@@3@U?$less@VCString@@@3@V?$allocator@N@3@@std@@IAEXPAU_Node@12@@Z 00411170 f i BehaviorFeatureHistoryAnalysis.obj
 0001:000101a0       ??0?$pair@Viterator@?$_Tree@VCString@@U?$pair@$$CBVCString@@N@std@@U_Kfn@?$map@VCString@@NU?$less@VCString@@@std@@V?$allocator@N@3@@3@U?$less@VCString@@@3@V?$allocator@N@3@@std@@_N@std@@QAE@ABViterator@?$_Tree@VCString@@U?$pair@$$CBVCString@@N@std@@U_Kfn@?$map@VCString@@NU?$less@VCString@@@std@@V?$allocator@N@3@@3@U?$less@VCString@@@3@V?$allocator@N@3@@1@AB_N@Z 004111a0 f i BehaviorFeatureHistoryAnalysis.obj
 0001:000101d0       ??0?$pair@Viterator@?$_Tree@VCHighTime@@U?$pair@$$CBVCHighTime@@N@std@@U_Kfn@?$map@VCHighTime@@NU?$less@VCHighTime@@@std@@V?$allocator@N@3@@3@U?$less@VCHighTime@@@3@V?$allocator@N@3@@std@@_N@std@@QAE@ABViterator@?$_Tree@VCHighTime@@U?$pair@$$CBVCHighTime@@N@std@@U_Kfn@?$map@VCHighTime@@NU?$less@VCHighTime@@@std@@V?$allocator@N@3@@3@U?$less@VCHighTime@@@3@V?$allocator@N@3@@1@AB_N@Z 004111d0 f i BehaviorFeatureHistoryAnalysis.obj
 0001:00010200       ??R_Kfn@?$map@VCHighTime@@NU?$less@VCHighTime@@@std@@V?$allocator@N@3@@std@@QBEABVCHighTime@@ABU?$pair@$$CBVCHighTime@@N@2@@Z 00411200 f i BehaviorFeatureHistoryAnalysis.obj
 0001:00010220       ??R?$less@VCHighTime@@@std@@QBE_NABVCHighTime@@0@Z 00411220 f i BehaviorFeatureHistoryAnalysis.obj
 0001:00010250       ??MCHighTime@@QBE_NABV0@@Z 00411250 f i BehaviorFeatureHistoryAnalysis.obj
 0001:000102b0       ?deallocate@?$allocator@N@std@@QAEXPAXI@Z 004112b0 f i BehaviorFeatureHistoryAnalysis.obj
 0001:000102e0       ?_Key@?$_Tree@VCHighTime@@U?$pair@$$CBVCHighTime@@N@std@@U_Kfn@?$map@VCHighTime@@NU?$less@VCHighTime@@@std@@V?$allocator@N@3@@3@U?$less@VCHighTime@@@3@V?$allocator@N@3@@std@@KAABVCHighTime@@PAU_Node@12@@Z 004112e0 f i BehaviorFeatureHistoryAnalysis.obj
 0001:00010310       ?_Left@?$_Tree@VCHighTime@@U?$pair@$$CBVCHighTime@@N@std@@U_Kfn@?$map@VCHighTime@@NU?$less@VCHighTime@@@std@@V?$allocator@N@3@@3@U?$less@VCHighTime@@@3@V?$allocator@N@3@@std@@KAAAPAU_Node@12@PAU312@@Z 00411310 f i BehaviorFeatureHistoryAnalysis.obj
 0001:00010330       ?_Right@?$_Tree@VCHighTime@@U?$pair@$$CBVCHighTime@@N@std@@U_Kfn@?$map@VCHighTime@@NU?$less@VCHighTime@@@std@@V?$allocator@N@3@@3@U?$less@VCHighTime@@@3@V?$allocator@N@3@@std@@KAAAPAU_Node@12@PAU312@@Z 00411330 f i BehaviorFeatureHistoryAnalysis.obj
 0001:00010350       ?_Value@?$_Tree@VCHighTime@@U?$pair@$$CBVCHighTime@@N@std@@U_Kfn@?$map@VCHighTime@@NU?$less@VCHighTime@@@std@@V?$allocator@N@3@@3@U?$less@VCHighTime@@@3@V?$allocator@N@3@@std@@KAAAU?$pair@$$CBVCHighTime@@N@2@PAU_Node@12@@Z 00411350 f i BehaviorFeatureHistoryAnalysis.obj
 0001:00010370       ?size@?$_Tree@VCHighTime@@U?$pair@$$CBVCHighTime@@N@std@@U_Kfn@?$map@VCHighTime@@NU?$less@VCHighTime@@@std@@V?$allocator@N@3@@3@U?$less@VCHighTime@@@3@V?$allocator@N@3@@std@@QBEIXZ 00411370 f i BehaviorFeatureHistoryAnalysis.obj
 0001:00010390       ?erase@?$_Tree@VCHighTime@@U?$pair@$$CBVCHighTime@@N@std@@U_Kfn@?$map@VCHighTime@@NU?$less@VCHighTime@@@std@@V?$allocator@N@3@@3@U?$less@VCHighTime@@@3@V?$allocator@N@3@@std@@QAE?AViterator@12@V312@@Z 00411390 f i BehaviorFeatureHistoryAnalysis.obj
 0001:00010be0       ?_Erase@?$_Tree@VCHighTime@@U?$pair@$$CBVCHighTime@@N@std@@U_Kfn@?$map@VCHighTime@@NU?$less@VCHighTime@@@std@@V?$allocator@N@3@@3@U?$less@VCHighTime@@@3@V?$allocator@N@3@@std@@IAEXPAU_Node@12@@Z 00411be0 f i BehaviorFeatureHistoryAnalysis.obj
 0001:00010c60       ?_Init@?$_Tree@VCHighTime@@U?$pair@$$CBVCHighTime@@N@std@@U_Kfn@?$map@VCHighTime@@NU?$less@VCHighTime@@@std@@V?$allocator@N@3@@3@U?$less@VCHighTime@@@3@V?$allocator@N@3@@std@@IAEXXZ 00411c60 f i BehaviorFeatureHistoryAnalysis.obj
 0001:00010d70       ?_Insert@?$_Tree@VCHighTime@@U?$pair@$$CBVCHighTime@@N@std@@U_Kfn@?$map@VCHighTime@@NU?$less@VCHighTime@@@std@@V?$allocator@N@3@@3@U?$less@VCHighTime@@@3@V?$allocator@N@3@@std@@IAE?AViterator@12@PAU_Node@12@0ABU?$pair@$$CBVCHighTime@@N@2@@Z 00411d70 f i BehaviorFeatureHistoryAnalysis.obj
 0001:00011200       ?_Lmost@?$_Tree@VCHighTime@@U?$pair@$$CBVCHighTime@@N@std@@U_Kfn@?$map@VCHighTime@@NU?$less@VCHighTime@@@std@@V?$allocator@N@3@@3@U?$less@VCHighTime@@@3@V?$allocator@N@3@@std@@IAEAAPAU_Node@12@XZ 00412200 f i BehaviorFeatureHistoryAnalysis.obj
 0001:00011230       ?_Rmost@?$_Tree@VCHighTime@@U?$pair@$$CBVCHighTime@@N@std@@U_Kfn@?$map@VCHighTime@@NU?$less@VCHighTime@@@std@@V?$allocator@N@3@@3@U?$less@VCHighTime@@@3@V?$allocator@N@3@@std@@IAEAAPAU_Node@12@XZ 00412230 f i BehaviorFeatureHistoryAnalysis.obj
 0001:00011260       ?_Root@?$_Tree@VCHighTime@@U?$pair@$$CBVCHighTime@@N@std@@U_Kfn@?$map@VCHighTime@@NU?$less@VCHighTime@@@std@@V?$allocator@N@3@@3@U?$less@VCHighTime@@@3@V?$allocator@N@3@@std@@IAEAAPAU_Node@12@XZ 00412260 f i BehaviorFeatureHistoryAnalysis.obj
 0001:00011290       ?_Inc@const_iterator@?$_Tree@VCHighTime@@U?$pair@$$CBVCHighTime@@N@std@@U_Kfn@?$map@VCHighTime@@NU?$less@VCHighTime@@@std@@V?$allocator@N@3@@3@U?$less@VCHighTime@@@3@V?$allocator@N@3@@std@@QAEXXZ 00412290 f i BehaviorFeatureHistoryAnalysis.obj
 0001:00011330       ?_Mynode@const_iterator@?$_Tree@VCHighTime@@U?$pair@$$CBVCHighTime@@N@std@@U_Kfn@?$map@VCHighTime@@NU?$less@VCHighTime@@@std@@V?$allocator@N@3@@3@U?$less@VCHighTime@@@3@V?$allocator@N@3@@std@@QBEPAU_Node@23@XZ 00412330 f i BehaviorFeatureHistoryAnalysis.obj
 0001:00011350       ??0iterator@?$_Tree@VCHighTime@@U?$pair@$$CBVCHighTime@@N@std@@U_Kfn@?$map@VCHighTime@@NU?$less@VCHighTime@@@std@@V?$allocator@N@3@@3@U?$less@VCHighTime@@@3@V?$allocator@N@3@@std@@QAE@PAU_Node@12@@Z 00412350 f i BehaviorFeatureHistoryAnalysis.obj
 0001:00011380       ??Fiterator@?$_Tree@VCHighTime@@U?$pair@$$CBVCHighTime@@N@std@@U_Kfn@?$map@VCHighTime@@NU?$less@VCHighTime@@@std@@V?$allocator@N@3@@3@U?$less@VCHighTime@@@3@V?$allocator@N@3@@std@@QAEAAV012@XZ 00412380 f i BehaviorFeatureHistoryAnalysis.obj
 0001:000113a0       ??R_Kfn@?$map@VCString@@NU?$less@VCString@@@std@@V?$allocator@N@3@@std@@QBEABVCString@@ABU?$pair@$$CBVCString@@N@2@@Z 004123a0 f i BehaviorFeatureHistoryAnalysis.obj
 0001:000113c0       ??R?$less@VCString@@@std@@QBE_NABVCString@@0@Z 004123c0 f i BehaviorFeatureHistoryAnalysis.obj
 0001:000113f0       ??M@YG_NABVCString@@0@Z    004123f0 f i BehaviorFeatureHistoryAnalysis.obj
 0001:00011420       ?_Key@?$_Tree@VCString@@U?$pair@$$CBVCString@@N@std@@U_Kfn@?$map@VCString@@NU?$less@VCString@@@std@@V?$allocator@N@3@@3@U?$less@VCString@@@3@V?$allocator@N@3@@std@@KAABVCString@@PAU_Node@12@@Z 00412420 f i BehaviorFeatureHistoryAnalysis.obj
 0001:00011450       ?_Left@?$_Tree@VCString@@U?$pair@$$CBVCString@@N@std@@U_Kfn@?$map@VCString@@NU?$less@VCString@@@std@@V?$allocator@N@3@@3@U?$less@VCString@@@3@V?$allocator@N@3@@std@@KAAAPAU_Node@12@PAU312@@Z 00412450 f i BehaviorFeatureHistoryAnalysis.obj
 0001:00011470       ?_Right@?$_Tree@VCString@@U?$pair@$$CBVCString@@N@std@@U_Kfn@?$map@VCString@@NU?$less@VCString@@@std@@V?$allocator@N@3@@3@U?$less@VCString@@@3@V?$allocator@N@3@@std@@KAAAPAU_Node@12@PAU312@@Z 00412470 f i BehaviorFeatureHistoryAnalysis.obj
 0001:00011490       ?size@?$_Tree@VCString@@U?$pair@$$CBVCString@@N@std@@U_Kfn@?$map@VCString@@NU?$less@VCString@@@std@@V?$allocator@N@3@@3@U?$less@VCString@@@3@V?$allocator@N@3@@std@@QBEIXZ 00412490 f i BehaviorFeatureHistoryAnalysis.obj
 0001:000114b0       ?erase@?$_Tree@VCString@@U?$pair@$$CBVCString@@N@std@@U_Kfn@?$map@VCString@@NU?$less@VCString@@@std@@V?$allocator@N@3@@3@U?$less@VCString@@@3@V?$allocator@N@3@@std@@QAE?AViterator@12@V312@@Z 004124b0 f i BehaviorFeatureHistoryAnalysis.obj
 0001:00011d00       ?equal_range@?$_Tree@VCString@@U?$pair@$$CBVCString@@N@std@@U_Kfn@?$map@VCString@@NU?$less@VCString@@@std@@V?$allocator@N@3@@3@U?$less@VCString@@@3@V?$allocator@N@3@@std@@QBE?AU?$pair@Vconst_iterator@?$_Tree@VCString@@U?$pair@$$CBVCString@@N@std@@U_Kfn@?$map@VCString@@NU?$less@VCString@@@std@@V?$allocator@N@3@@3@U?$less@VCString@@@3@V?$allocator@N@3@@std@@V123@@2@ABVCString@@@Z 00412d00 f i BehaviorFeatureHistoryAnalysis.obj
 0001:00011d50       ?_Erase@?$_Tree@VCString@@U?$pair@$$CBVCString@@N@std@@U_Kfn@?$map@VCString@@NU?$less@VCString@@@std@@V?$allocator@N@3@@3@U?$less@VCString@@@3@V?$allocator@N@3@@std@@IAEXPAU_Node@12@@Z 00412d50 f i BehaviorFeatureHistoryAnalysis.obj
 0001:00011dd0       ?_Init@?$_Tree@VCString@@U?$pair@$$CBVCString@@N@std@@U_Kfn@?$map@VCString@@NU?$less@VCString@@@std@@V?$allocator@N@3@@3@U?$less@VCString@@@3@V?$allocator@N@3@@std@@IAEXXZ 00412dd0 f i BehaviorFeatureHistoryAnalysis.obj
 0001:00011ee0       ?_Insert@?$_Tree@VCString@@U?$pair@$$CBVCString@@N@std@@U_Kfn@?$map@VCString@@NU?$less@VCString@@@std@@V?$allocator@N@3@@3@U?$less@VCString@@@3@V?$allocator@N@3@@std@@IAE?AViterator@12@PAU_Node@12@0ABU?$pair@$$CBVCString@@N@2@@Z 00412ee0 f i BehaviorFeatureHistoryAnalysis.obj
 0001:00012370       ?_Lmost@?$_Tree@VCString@@U?$pair@$$CBVCString@@N@std@@U_Kfn@?$map@VCString@@NU?$less@VCString@@@std@@V?$allocator@N@3@@3@U?$less@VCString@@@3@V?$allocator@N@3@@std@@IAEAAPAU_Node@12@XZ 00413370 f i BehaviorFeatureHistoryAnalysis.obj
 0001:000123a0       ?_Rmost@?$_Tree@VCString@@U?$pair@$$CBVCString@@N@std@@U_Kfn@?$map@VCString@@NU?$less@VCString@@@std@@V?$allocator@N@3@@3@U?$less@VCString@@@3@V?$allocator@N@3@@std@@IAEAAPAU_Node@12@XZ 004133a0 f i BehaviorFeatureHistoryAnalysis.obj
 0001:000123d0       ?_Root@?$_Tree@VCString@@U?$pair@$$CBVCString@@N@std@@U_Kfn@?$map@VCString@@NU?$less@VCString@@@std@@V?$allocator@N@3@@3@U?$less@VCString@@@3@V?$allocator@N@3@@std@@IAEAAPAU_Node@12@XZ 004133d0 f i BehaviorFeatureHistoryAnalysis.obj
 0001:00012400       ?_Mynode@const_iterator@?$_Tree@VCString@@U?$pair@$$CBVCString@@N@std@@U_Kfn@?$map@VCString@@NU?$less@VCString@@@std@@V?$allocator@N@3@@3@U?$less@VCString@@@3@V?$allocator@N@3@@std@@QBEPAU_Node@23@XZ 00413400 f i BehaviorFeatureHistoryAnalysis.obj
 0001:00012420       ??0iterator@?$_Tree@VCString@@U?$pair@$$CBVCString@@N@std@@U_Kfn@?$map@VCString@@NU?$less@VCString@@@std@@V?$allocator@N@3@@3@U?$less@VCString@@@3@V?$allocator@N@3@@std@@QAE@PAU_Node@12@@Z 00413420 f i BehaviorFeatureHistoryAnalysis.obj
 0001:00012450       ??Eiterator@?$_Tree@VCString@@U?$pair@$$CBVCString@@N@std@@U_Kfn@?$map@VCString@@NU?$less@VCString@@@std@@V?$allocator@N@3@@3@U?$less@VCString@@@3@V?$allocator@N@3@@std@@QAE?AV012@H@Z 00413450 f i BehaviorFeatureHistoryAnalysis.obj
 0001:00012480       ??Fiterator@?$_Tree@VCString@@U?$pair@$$CBVCString@@N@std@@U_Kfn@?$map@VCString@@NU?$less@VCString@@@std@@V?$allocator@N@3@@3@U?$less@VCString@@@3@V?$allocator@N@3@@std@@QAEAAV012@XZ 00413480 f i BehaviorFeatureHistoryAnalysis.obj
 0001:000124a0       ??8iterator@?$_Tree@VCString@@U?$pair@$$CBVCString@@N@std@@U_Kfn@?$map@VCString@@NU?$less@VCString@@@std@@V?$allocator@N@3@@3@U?$less@VCString@@@3@V?$allocator@N@3@@std@@QBE_NABV012@@Z 004134a0 f i BehaviorFeatureHistoryAnalysis.obj
 0001:000124d0       ??9iterator@?$_Tree@VCString@@U?$pair@$$CBVCString@@N@std@@U_Kfn@?$map@VCString@@NU?$less@VCString@@@std@@V?$allocator@N@3@@3@U?$less@VCString@@@3@V?$allocator@N@3@@std@@QBE_NABV012@@Z 004134d0 f i BehaviorFeatureHistoryAnalysis.obj
 0001:00012500       ?_Color@?$_Tree@VCHighTime@@U?$pair@$$CBVCHighTime@@N@std@@U_Kfn@?$map@VCHighTime@@NU?$less@VCHighTime@@@std@@V?$allocator@N@3@@3@U?$less@VCHighTime@@@3@V?$allocator@N@3@@std@@KAAAW4_Redbl@12@PAU_Node@12@@Z 00413500 f i BehaviorFeatureHistoryAnalysis.obj
 0001:00012520       ?_Parent@?$_Tree@VCHighTime@@U?$pair@$$CBVCHighTime@@N@std@@U_Kfn@?$map@VCHighTime@@NU?$less@VCHighTime@@@std@@V?$allocator@N@3@@3@U?$less@VCHighTime@@@3@V?$allocator@N@3@@std@@KAAAPAU_Node@12@PAU312@@Z 00413520 f i BehaviorFeatureHistoryAnalysis.obj
 0001:00012540       ?_Lrotate@?$_Tree@VCHighTime@@U?$pair@$$CBVCHighTime@@N@std@@U_Kfn@?$map@VCHighTime@@NU?$less@VCHighTime@@@std@@V?$allocator@N@3@@3@U?$less@VCHighTime@@@3@V?$allocator@N@3@@std@@IAEXPAU_Node@12@@Z 00413540 f i BehaviorFeatureHistoryAnalysis.obj
 0001:00012670       ?_Max@?$_Tree@VCHighTime@@U?$pair@$$CBVCHighTime@@N@std@@U_Kfn@?$map@VCHighTime@@NU?$less@VCHighTime@@@std@@V?$allocator@N@3@@3@U?$less@VCHighTime@@@3@V?$allocator@N@3@@std@@KAPAU_Node@12@PAU312@@Z 00413670 f i BehaviorFeatureHistoryAnalysis.obj
 0001:000126b0       ?_Min@?$_Tree@VCHighTime@@U?$pair@$$CBVCHighTime@@N@std@@U_Kfn@?$map@VCHighTime@@NU?$less@VCHighTime@@@std@@V?$allocator@N@3@@3@U?$less@VCHighTime@@@3@V?$allocator@N@3@@std@@KAPAU_Node@12@PAU312@@Z 004136b0 f i BehaviorFeatureHistoryAnalysis.obj
 0001:000126f0       ?_Rrotate@?$_Tree@VCHighTime@@U?$pair@$$CBVCHighTime@@N@std@@U_Kfn@?$map@VCHighTime@@NU?$less@VCHighTime@@@std@@V?$allocator@N@3@@3@U?$less@VCHighTime@@@3@V?$allocator@N@3@@std@@IAEXPAU_Node@12@@Z 004136f0 f i BehaviorFeatureHistoryAnalysis.obj
 0001:00012820       ?_Buynode@?$_Tree@VCHighTime@@U?$pair@$$CBVCHighTime@@N@std@@U_Kfn@?$map@VCHighTime@@NU?$less@VCHighTime@@@std@@V?$allocator@N@3@@3@U?$less@VCHighTime@@@3@V?$allocator@N@3@@std@@IAEPAU_Node@12@PAU312@W4_Redbl@12@@Z 00413820 f i BehaviorFeatureHistoryAnalysis.obj
 0001:00012870       ?_Consval@?$_Tree@VCHighTime@@U?$pair@$$CBVCHighTime@@N@std@@U_Kfn@?$map@VCHighTime@@NU?$less@VCHighTime@@@std@@V?$allocator@N@3@@3@U?$less@VCHighTime@@@3@V?$allocator@N@3@@std@@IAEXPAU?$pair@$$CBVCHighTime@@N@2@ABU32@@Z 00413870 f i BehaviorFeatureHistoryAnalysis.obj
 0001:000128a0       ?_Destval@?$_Tree@VCHighTime@@U?$pair@$$CBVCHighTime@@N@std@@U_Kfn@?$map@VCHighTime@@NU?$less@VCHighTime@@@std@@V?$allocator@N@3@@3@U?$less@VCHighTime@@@3@V?$allocator@N@3@@std@@IAEXPAU?$pair@$$CBVCHighTime@@N@2@@Z 004138a0 f i BehaviorFeatureHistoryAnalysis.obj
 0001:000128d0       ??0const_iterator@?$_Tree@VCHighTime@@U?$pair@$$CBVCHighTime@@N@std@@U_Kfn@?$map@VCHighTime@@NU?$less@VCHighTime@@@std@@V?$allocator@N@3@@3@U?$less@VCHighTime@@@3@V?$allocator@N@3@@std@@QAE@PAU_Node@12@@Z 004138d0 f i BehaviorFeatureHistoryAnalysis.obj
 0001:000128f0       ?_Dec@const_iterator@?$_Tree@VCHighTime@@U?$pair@$$CBVCHighTime@@N@std@@U_Kfn@?$map@VCHighTime@@NU?$less@VCHighTime@@@std@@V?$allocator@N@3@@3@U?$less@VCHighTime@@@3@V?$allocator@N@3@@std@@QAEXXZ 004138f0 f i BehaviorFeatureHistoryAnalysis.obj
 0001:000129d0       ?_Color@?$_Tree@VCString@@U?$pair@$$CBVCString@@N@std@@U_Kfn@?$map@VCString@@NU?$less@VCString@@@std@@V?$allocator@N@3@@3@U?$less@VCString@@@3@V?$allocator@N@3@@std@@KAAAW4_Redbl@12@PAU_Node@12@@Z 004139d0 f i BehaviorFeatureHistoryAnalysis.obj
 0001:000129f0       ?_Parent@?$_Tree@VCString@@U?$pair@$$CBVCString@@N@std@@U_Kfn@?$map@VCString@@NU?$less@VCString@@@std@@V?$allocator@N@3@@3@U?$less@VCString@@@3@V?$allocator@N@3@@std@@KAAAPAU_Node@12@PAU312@@Z 004139f0 f i BehaviorFeatureHistoryAnalysis.obj
 0001:00012a10       ?_Value@?$_Tree@VCString@@U?$pair@$$CBVCString@@N@std@@U_Kfn@?$map@VCString@@NU?$less@VCString@@@std@@V?$allocator@N@3@@3@U?$less@VCString@@@3@V?$allocator@N@3@@std@@KAAAU?$pair@$$CBVCString@@N@2@PAU_Node@12@@Z 00413a10 f i BehaviorFeatureHistoryAnalysis.obj
 0001:00012a30       ?lower_bound@?$_Tree@VCString@@U?$pair@$$CBVCString@@N@std@@U_Kfn@?$map@VCString@@NU?$less@VCString@@@std@@V?$allocator@N@3@@3@U?$less@VCString@@@3@V?$allocator@N@3@@std@@QBE?AVconst_iterator@12@ABVCString@@@Z 00413a30 f i BehaviorFeatureHistoryAnalysis.obj
 0001:00012a70       ?upper_bound@?$_Tree@VCString@@U?$pair@$$CBVCString@@N@std@@U_Kfn@?$map@VCString@@NU?$less@VCString@@@std@@V?$allocator@N@3@@3@U?$less@VCString@@@3@V?$allocator@N@3@@std@@QBE?AVconst_iterator@12@ABVCString@@@Z 00413a70 f i BehaviorFeatureHistoryAnalysis.obj
 0001:00012ab0       ?_Lrotate@?$_Tree@VCString@@U?$pair@$$CBVCString@@N@std@@U_Kfn@?$map@VCString@@NU?$less@VCString@@@std@@V?$allocator@N@3@@3@U?$less@VCString@@@3@V?$allocator@N@3@@std@@IAEXPAU_Node@12@@Z 00413ab0 f i BehaviorFeatureHistoryAnalysis.obj
 0001:00012be0       ?_Max@?$_Tree@VCString@@U?$pair@$$CBVCString@@N@std@@U_Kfn@?$map@VCString@@NU?$less@VCString@@@std@@V?$allocator@N@3@@3@U?$less@VCString@@@3@V?$allocator@N@3@@std@@KAPAU_Node@12@PAU312@@Z 00413be0 f i BehaviorFeatureHistoryAnalysis.obj
 0001:00012c20       ?_Min@?$_Tree@VCString@@U?$pair@$$CBVCString@@N@std@@U_Kfn@?$map@VCString@@NU?$less@VCString@@@std@@V?$allocator@N@3@@3@U?$less@VCString@@@3@V?$allocator@N@3@@std@@KAPAU_Node@12@PAU312@@Z 00413c20 f i BehaviorFeatureHistoryAnalysis.obj
 0001:00012c60       ?_Rrotate@?$_Tree@VCString@@U?$pair@$$CBVCString@@N@std@@U_Kfn@?$map@VCString@@NU?$less@VCString@@@std@@V?$allocator@N@3@@3@U?$less@VCString@@@3@V?$allocator@N@3@@std@@IAEXPAU_Node@12@@Z 00413c60 f i BehaviorFeatureHistoryAnalysis.obj
 0001:00012d90       ?_Buynode@?$_Tree@VCString@@U?$pair@$$CBVCString@@N@std@@U_Kfn@?$map@VCString@@NU?$less@VCString@@@std@@V?$allocator@N@3@@3@U?$less@VCString@@@3@V?$allocator@N@3@@std@@IAEPAU_Node@12@PAU312@W4_Redbl@12@@Z 00413d90 f i BehaviorFeatureHistoryAnalysis.obj
 0001:00012de0       ?_Consval@?$_Tree@VCString@@U?$pair@$$CBVCString@@N@std@@U_Kfn@?$map@VCString@@NU?$less@VCString@@@std@@V?$allocator@N@3@@3@U?$less@VCString@@@3@V?$allocator@N@3@@std@@IAEXPAU?$pair@$$CBVCString@@N@2@ABU32@@Z 00413de0 f i BehaviorFeatureHistoryAnalysis.obj
 0001:00012e10       ?_Destval@?$_Tree@VCString@@U?$pair@$$CBVCString@@N@std@@U_Kfn@?$map@VCString@@NU?$less@VCString@@@std@@V?$allocator@N@3@@3@U?$less@VCString@@@3@V?$allocator@N@3@@std@@IAEXPAU?$pair@$$CBVCString@@N@2@@Z 00413e10 f i BehaviorFeatureHistoryAnalysis.obj
 0001:00012e40       ??0const_iterator@?$_Tree@VCString@@U?$pair@$$CBVCString@@N@std@@U_Kfn@?$map@VCString@@NU?$less@VCString@@@std@@V?$allocator@N@3@@3@U?$less@VCString@@@3@V?$allocator@N@3@@std@@QAE@PAU_Node@12@@Z 00413e40 f i BehaviorFeatureHistoryAnalysis.obj
 0001:00012e60       ?_Dec@const_iterator@?$_Tree@VCString@@U?$pair@$$CBVCString@@N@std@@U_Kfn@?$map@VCString@@NU?$less@VCString@@@std@@V?$allocator@N@3@@3@U?$less@VCString@@@3@V?$allocator@N@3@@std@@QAEXXZ 00413e60 f i BehaviorFeatureHistoryAnalysis.obj
 0001:00012f40       ??Eiterator@?$_Tree@VCString@@U?$pair@$$CBVCString@@N@std@@U_Kfn@?$map@VCString@@NU?$less@VCString@@@std@@V?$allocator@N@3@@3@U?$less@VCString@@@3@V?$allocator@N@3@@std@@QAEAAV012@XZ 00413f40 f i BehaviorFeatureHistoryAnalysis.obj
 0001:00012f60       ??0?$pair@Vconst_iterator@?$_Tree@VCString@@U?$pair@$$CBVCString@@N@std@@U_Kfn@?$map@VCString@@NU?$less@VCString@@@std@@V?$allocator@N@3@@3@U?$less@VCString@@@3@V?$allocator@N@3@@std@@V123@@std@@QAE@ABVconst_iterator@?$_Tree@VCString@@U?$pair@$$CBVCString@@N@std@@U_Kfn@?$map@VCString@@NU?$less@VCString@@@std@@V?$allocator@N@3@@3@U?$less@VCString@@@3@V?$allocator@N@3@@1@0@Z 00413f60 f i BehaviorFeatureHistoryAnalysis.obj
 0001:00012f90       ?_Charalloc@?$allocator@N@std@@QAEPADI@Z 00413f90 f i BehaviorFeatureHistoryAnalysis.obj
 0001:00012fc0       ?_Lbound@?$_Tree@VCString@@U?$pair@$$CBVCString@@N@std@@U_Kfn@?$map@VCString@@NU?$less@VCString@@@std@@V?$allocator@N@3@@3@U?$less@VCString@@@3@V?$allocator@N@3@@std@@IBEPAU_Node@12@ABVCString@@@Z 00413fc0 f i BehaviorFeatureHistoryAnalysis.obj
 0001:00013050       ?_Ubound@?$_Tree@VCString@@U?$pair@$$CBVCString@@N@std@@U_Kfn@?$map@VCString@@NU?$less@VCString@@@std@@V?$allocator@N@3@@3@U?$less@VCString@@@3@V?$allocator@N@3@@std@@IBEPAU_Node@12@ABVCString@@@Z 00414050 f i BehaviorFeatureHistoryAnalysis.obj
 0001:000130e0       ??0const_iterator@?$_Tree@VCString@@U?$pair@$$CBVCString@@N@std@@U_Kfn@?$map@VCString@@NU?$less@VCString@@@std@@V?$allocator@N@3@@3@U?$less@VCString@@@3@V?$allocator@N@3@@std@@QAE@ABViterator@12@@Z 004140e0 f i BehaviorFeatureHistoryAnalysis.obj
 0001:00013110       ?_Inc@const_iterator@?$_Tree@VCString@@U?$pair@$$CBVCString@@N@std@@U_Kfn@?$map@VCString@@NU?$less@VCString@@@std@@V?$allocator@N@3@@3@U?$less@VCString@@@3@V?$allocator@N@3@@std@@QAEXXZ 00414110 f i BehaviorFeatureHistoryAnalysis.obj
 0001:000131b0       ?_Root@?$_Tree@VCString@@U?$pair@$$CBVCString@@N@std@@U_Kfn@?$map@VCString@@NU?$less@VCString@@@std@@V?$allocator@N@3@@3@U?$less@VCString@@@3@V?$allocator@N@3@@std@@IBEAAPAU_Node@12@XZ 004141b0 f i BehaviorFeatureHistoryAnalysis.obj
 0001:000131e0       ??0?$pair@$$CBVCString@@N@std@@QAE@ABU?$pair@VCString@@N@1@@Z 004141e0 f i BehaviorFeatureHistoryAnalysis.obj
 0001:00013220       ??0?$pair@$$CBVCHighTime@@N@std@@QAE@ABU?$pair@VCHighTime@@N@1@@Z 00414220 f i BehaviorFeatureHistoryAnalysis.obj
 0001:00013260       ?_Distance@std@@YAXVconst_iterator@?$_Tree@VCString@@U?$pair@$$CBVCString@@N@std@@U_Kfn@?$map@VCString@@NU?$less@VCString@@@std@@V?$allocator@N@3@@3@U?$less@VCString@@@3@V?$allocator@N@3@@1@0AAI@Z 00414260 f i BehaviorFeatureHistoryAnalysis.obj
 0001:000132a0       ?swap@std@@YAXAAW4_Redbl@?$_Tree@VCHighTime@@U?$pair@$$CBVCHighTime@@N@std@@U_Kfn@?$map@VCHighTime@@NU?$less@VCHighTime@@@std@@V?$allocator@N@3@@3@U?$less@VCHighTime@@@3@V?$allocator@N@3@@1@0@Z 004142a0 f i BehaviorFeatureHistoryAnalysis.obj
 0001:000132d0       ?swap@std@@YAXAAW4_Redbl@?$_Tree@VCString@@U?$pair@$$CBVCString@@N@std@@U_Kfn@?$map@VCString@@NU?$less@VCString@@@std@@V?$allocator@N@3@@3@U?$less@VCString@@@3@V?$allocator@N@3@@1@0@Z 004142d0 f i BehaviorFeatureHistoryAnalysis.obj
 0001:00013300       ?_Construct@std@@YAXPAU?$pair@$$CBVCHighTime@@N@1@ABU21@@Z 00414300 f i BehaviorFeatureHistoryAnalysis.obj
 0001:00013380       ??3@YAXPAX0@Z              00414380 f i BehaviorFeatureHistoryAnalysis.obj
 0001:00013390       ?_Destroy@std@@YAXPAU?$pair@$$CBVCHighTime@@N@1@@Z 00414390 f i BehaviorFeatureHistoryAnalysis.obj
 0001:000133a0       ?_Construct@std@@YAXPAU?$pair@$$CBVCString@@N@1@ABU21@@Z 004143a0 f i BehaviorFeatureHistoryAnalysis.obj
 0001:00013420       ?_Destroy@std@@YAXPAU?$pair@$$CBVCString@@N@1@@Z 00414420 f i BehaviorFeatureHistoryAnalysis.obj
 0001:00013440       ?_Allocate@std@@YAPADHPAD@Z 00414440 f i BehaviorFeatureHistoryAnalysis.obj
 0001:00013470       ??0?$pair@$$CBVCHighTime@@N@std@@QAE@ABU01@@Z 00414470 f i BehaviorFeatureHistoryAnalysis.obj
 0001:000134b0       ??0?$pair@$$CBVCString@@N@std@@QAE@ABU01@@Z 004144b0 f i BehaviorFeatureHistoryAnalysis.obj
 0001:000134f0       ??_G?$pair@$$CBVCString@@N@std@@QAEPAXI@Z 004144f0 f i BehaviorFeatureHistoryAnalysis.obj
 0001:00013530       ?_Iter_cat@std@@YA?AUbidirectional_iterator_tag@1@ABU?$iterator@Ubidirectional_iterator_tag@std@@U?$pair@$$CBVCString@@N@2@H@1@@Z 00414530 f i BehaviorFeatureHistoryAnalysis.obj
 0001:00013560       ?_Distance@std@@YAXVconst_iterator@?$_Tree@VCString@@U?$pair@$$CBVCString@@N@std@@U_Kfn@?$map@VCString@@NU?$less@VCString@@@std@@V?$allocator@N@3@@3@U?$less@VCString@@@3@V?$allocator@N@3@@1@0AAIUbidirectional_iterator_tag@1@@Z 00414560 f i BehaviorFeatureHistoryAnalysis.obj
 0001:000135e0       ??Econst_iterator@?$_Tree@VCString@@U?$pair@$$CBVCString@@N@std@@U_Kfn@?$map@VCString@@NU?$less@VCString@@@std@@V?$allocator@N@3@@3@U?$less@VCString@@@3@V?$allocator@N@3@@std@@QAEAAV012@XZ 004145e0 f i BehaviorFeatureHistoryAnalysis.obj
 0001:00013600       ??9const_iterator@?$_Tree@VCString@@U?$pair@$$CBVCString@@N@std@@U_Kfn@?$map@VCString@@NU?$less@VCString@@@std@@V?$allocator@N@3@@3@U?$less@VCString@@@3@V?$allocator@N@3@@std@@QBE_NABV012@@Z 00414600 f i BehaviorFeatureHistoryAnalysis.obj
 0001:00013630       ??8const_iterator@?$_Tree@VCString@@U?$pair@$$CBVCString@@N@std@@U_Kfn@?$map@VCString@@NU?$less@VCString@@@std@@V?$allocator@N@3@@3@U?$less@VCString@@@3@V?$allocator@N@3@@std@@QBE_NABV012@@Z 00414630 f i BehaviorFeatureHistoryAnalysis.obj
 0001:00013660       ??0CBitMapButton@@QAE@XZ   00414660 f   BitMapButton.obj
 0001:00013690       ??_ECBitMapButton@@UAEPAXI@Z 00414690 f i BitMapButton.obj
 0001:00013690       ??_GCBitMapButton@@UAEPAXI@Z 00414690 f i BitMapButton.obj
 0001:000136d0       ??1CBitMapButton@@UAE@XZ   004146d0 f   BitMapButton.obj
 0001:00013700       ?GetMessageMap@CBitMapButton@@MBEPBUAFX_MSGMAP@@XZ 00414700 f   BitMapButton.obj
 0001:00013720       ?serializeNode@CTreeRecord@@QAEHAAVCArchive@@@Z 00414720 f   C45Learner.obj
 0001:00013c00       ??1AFX_EXCEPTION_LINK@@QAE@XZ 00414c00 f i C45Learner.obj
 0001:00013c20       ??6CArchive@@QAEAAV0@F@Z   00414c20 f i C45Learner.obj
 0001:00013c50       ??6CArchive@@QAEAAV0@G@Z   00414c50 f i C45Learner.obj
 0001:00013ca0       ??5CArchive@@QAEAAV0@AAF@Z 00414ca0 f i C45Learner.obj
 0001:00013cd0       ??5CArchive@@QAEAAV0@AAG@Z 00414cd0 f i C45Learner.obj
 0001:00013d40       ?getDiscretNumber@CDataSet@@QAEHH@Z 00414d40 f i C45Learner.obj
 0001:00013da0       ?isAttContinuous@CDataSet@@QAE_NH@Z 00414da0 f i C45Learner.obj
 0001:00013dd0       ?serialize@CTreeRecord@@QAEHAAVCArchive@@@Z 00414dd0 f   C45Learner.obj
 0001:00013fc0       ??0CTreeRecord@@QAE@XZ     00414fc0 f i C45Learner.obj
 0001:00014080       ??0CRuleRec@@QAE@XZ        00415080 f i C45Learner.obj
 0001:000140f0       ??1CRuleRec@@UAE@XZ        004150f0 f i C45Learner.obj
 0001:00014160       ??_GCRuleRec@@UAEPAXI@Z    00415160 f i C45Learner.obj
 0001:00014160       ??_ECRuleRec@@UAEPAXI@Z    00415160 f i C45Learner.obj
 0001:000141a0       ??0C45Learner@@QAE@XZ      004151a0 f   C45Learner.obj
 0001:00014330       ??_GC45Learner@@UAEPAXI@Z  00415330 f i C45Learner.obj
 0001:00014330       ??_EC45Learner@@UAEPAXI@Z  00415330 f i C45Learner.obj
 0001:00014370       ??1C45Learner@@UAE@XZ      00415370 f   C45Learner.obj
 0001:00014530       ?setDataSet@C45Learner@@QAEXPAVCDataSet@@@Z 00415530 f   C45Learner.obj
 0001:000145d0       ?getAttSize@CDataSet@@QAEHXZ 004155d0 f i C45Learner.obj
 0001:000145f0       ?getClassNum@CDataSet@@QAEHXZ 004155f0 f i C45Learner.obj
 0001:00014620       ?getMaxDiscrVal@CDataSet@@QAEHXZ 00415620 f i C45Learner.obj
 0001:00014680       ?Save@C45Learner@@QAEHPBD@Z 00415680 f   C45Learner.obj
 0001:00014770       ?Load@C45Learner@@QAEHPBD@Z 00415770 f   C45Learner.obj
 0001:000148e0       ?Evaluate@C45Learner@@QAEXXZ 004158e0 f   C45Learner.obj
 0001:00014930       ?CalPrecisionRecall@C45Learner@@QAEXH@Z 00415930 f   C45Learner.obj
 0001:00014b10       ?Predict@C45Learner@@QAEXXZ 00415b10 f   C45Learner.obj
 0001:00014b40       ?buildClassifier@C45Learner@@QAEXXZ 00415b40 f   C45Learner.obj
 0001:00014be0       ?OneTree@C45Learner@@QAEXXZ 00415be0 f   C45Learner.obj
 0001:00014ca0       ?InitialiseTreeData@C45Learner@@QAEXXZ 00415ca0 f   C45Learner.obj
 0001:00015110       ?isIgnore@CDataSet@@QAE_NH@Z 00416110 f i C45Learner.obj
 0001:00015160       ?DeInitialiseTreeData@C45Learner@@QAEXXZ 00416160 f   C45Learner.obj
 0001:000153b0       ?InitialiseWeights@C45Learner@@QAEXXZ 004163b0 f   C45Learner.obj
 0001:00015400       ?FormTree@C45Learner@@QAEPAVCTreeRecord@@HH@Z 00416400 f   C45Learner.obj
 0001:00015bd0       ?CountItems@C45Learner@@QAENHH@Z 00416bd0 f   C45Learner.obj
 0001:00015c60       ?Class@C45Learner@@QAEHH@Z 00416c60 f   C45Learner.obj
 0001:00015ca0       ?Leaf@C45Learner@@QAEPAVCTreeRecord@@PANFNN@Z 00416ca0 f   C45Learner.obj
 0001:00015e00       ?Group@C45Learner@@QAEHFHHPAVCTreeRecord@@@Z 00416e00 f   C45Learner.obj
 0001:000160a0       ?Swap@C45Learner@@QAEXHH@Z 004170a0 f   C45Learner.obj
 0001:00016120       ?DVal@C45Learner@@QAEFHH@Z 00417120 f   C45Learner.obj
 0001:00016160       ?CVal@C45Learner@@QAENHH@Z 00417160 f   C45Learner.obj
 0001:00016190       ?EvalSubset@C45Learner@@QAEXFHHN@Z 00417190 f   C45Learner.obj
 0001:00016c50       ?ComputeFrequencies@C45Learner@@QAEXFHH@Z 00417c50 f   C45Learner.obj
 0001:00016d90       ?ResetFreq@C45Learner@@QAEXF@Z 00417d90 f   C45Learner.obj
 0001:00016e40       ?DiscrKnownBaseInfo@C45Learner@@QAENNF@Z 00417e40 f   C45Learner.obj
 0001:00016f70       ?ComputeGain@C45Learner@@QAENNNFN@Z 00417f70 f   C45Learner.obj
 0001:00017080       ?TotalInfo@C45Learner@@QAENQANFF@Z 00418080 f   C45Learner.obj
 0001:00017180       ?Worth@C45Learner@@QAENNNN@Z 00418180 f   C45Learner.obj
 0001:00017220       ?Combine@C45Learner@@QAEXFFF@Z 00418220 f   C45Learner.obj
 0001:000173c0       ?Uncombine@C45Learner@@QAEXFF@Z 004183c0 f   C45Learner.obj
 0001:000174b0       ?EvalDiscreteAtt@C45Learner@@QAEXFHHN@Z 004184b0 f   C45Learner.obj
 0001:000175e0       ?EvalContinuousAtt@C45Learner@@QAEXFHH@Z 004185e0 f   C45Learner.obj
 0001:00017b90       ?Quicksort@C45Learner@@QAEXHHF@Z 00418b90 f   C45Learner.obj
 0001:00017cc0       ?SubsetTest@C45Learner@@QAEXPAVCTreeRecord@@F@Z 00418cc0 f   C45Learner.obj
 0001:00017de0       ?Sprout@C45Learner@@QAEXPAVCTreeRecord@@F@Z 00418de0 f   C45Learner.obj
 0001:00017e60       ?DiscreteTest@C45Learner@@QAEXPAVCTreeRecord@@F@Z 00418e60 f   C45Learner.obj
 0001:00017ec0       ?ContinTest@C45Learner@@QAEXPAVCTreeRecord@@F@Z 00418ec0 f   C45Learner.obj
 0001:00017f60       ?GreatestValueBelow@C45Learner@@QAENFN@Z 00418f60 f   C45Learner.obj
 0001:00018000       ?BestTree@C45Learner@@QAEFXZ 00419000 f   C45Learner.obj
 0001:000182e0       ?FormTarget@C45Learner@@QAEXH@Z 004192e0 f   C45Learner.obj
 0001:000184d0       ?FormInitialWindow@C45Learner@@QAEXXZ 004194d0 f   C45Learner.obj
 0001:00018580       ?Shuffle@C45Learner@@QAEXXZ 00419580 f   C45Learner.obj
 0001:00018620       ?Iterate@C45Learner@@QAEPAVCTreeRecord@@HH@Z 00419620 f   C45Learner.obj
 0001:000187e0       ?Category@C45Learner@@QAEFHPAVCTreeRecord@@@Z 004197e0 f   C45Learner.obj
 0001:000188e0       ?Classify@C45Learner@@QAEXHPAVCTreeRecord@@N@Z 004198e0 f   C45Learner.obj
 0001:00018c70       ?ReleaseTree@C45Learner@@QAEXPAVCTreeRecord@@@Z 00419c70 f   C45Learner.obj
 0001:00018dc0       ??_GCTreeRecord@@QAEPAXI@Z 00419dc0 f i C45Learner.obj
 0001:00018e00       ??1CTreeRecord@@QAE@XZ     00419e00 f i C45Learner.obj
 0001:00018e70       ?CopyTree@C45Learner@@QAEPAVCTreeRecord@@PAV2@@Z 00419e70 f   C45Learner.obj
 0001:00019090       ?Prune@C45Learner@@QAE_NPAVCTreeRecord@@@Z 0041a090 f   C45Learner.obj
 0001:000192a0       ?EstimateErrors@C45Learner@@QAENPAVCTreeRecord@@HHF_N@Z 0041a2a0 f   C45Learner.obj
 0001:000197b0       ?CheckPossibleValues@C45Learner@@QAEXPAVCTreeRecord@@@Z 0041a7b0 f   C45Learner.obj
 0001:000199a0       ?AddErrs@C45Learner@@QAENNN@Z 0041a9a0 f   C45Learner.obj
 0001:00019ba0       ?SoftenThresh@C45Learner@@QAEXPAVCTreeRecord@@@Z 0041aba0 f   C45Learner.obj
 0001:00019ce0       ?ScanTree@C45Learner@@QAEXPAVCTreeRecord@@HH@Z 0041ace0 f   C45Learner.obj
 0001:0001a2f0       ?Evaluate@C45Learner@@QAEX_NF@Z 0041b2f0 f   C45Learner.obj
 0001:0001a4e0       ?Evaluate@C45Learner@@QAEX_NPAVCTreeRecord@@@Z 0041b4e0 f   C45Learner.obj
 0001:0001a6a0       ?PrintConfusionMatrix@C45Learner@@QAEXXZ 0041b6a0 f   C45Learner.obj
 0001:0001a970       ?getDiscretValue@CDataSet@@QAE_NHHAAVCString@@@Z 0041b970 f i C45Learner.obj
 0001:0001a9c0       ?ExportDot@C45Learner@@QAEXPAVCTreeRecord@@PBD1@Z 0041b9c0 f   C45Learner.obj
 0001:0001aa50       ?ExportDotLine@C45Learner@@QAEXPAVCTreeRecord@@PAU_iobuf@@@Z 0041ba50 f   C45Learner.obj
 0001:0001ab90       ?getAttName@CDataSet@@QAEXHAAVCString@@@Z 0041bb90 f i C45Learner.obj
 0001:0001abe0       ?TreeSize@C45Learner@@QAEHXZ 0041bbe0 f   C45Learner.obj
 0001:0001ac10       ?TreeSize@C45Learner@@QAEHPAVCTreeRecord@@@Z 0041bc10 f   C45Learner.obj
 0001:0001ac80       ?Predict@C45Learner@@QAEXPAVCTreeRecord@@@Z 0041bc80 f   C45Learner.obj
 0001:0001acf0       ?SetClass@C45Learner@@QAEXHH@Z 0041bcf0 f   C45Learner.obj
 0001:0001ad40       ?CalcLayout@C45Learner@@QAEXXZ 0041bd40 f   C45Learner.obj
 0001:0001add0       ?CalcLeafNum@C45Learner@@QAEXPAVCTreeRecord@@H@Z 0041bdd0 f   C45Learner.obj
 0001:0001ae90       ?CalcDegree@C45Learner@@QAEXPAVCTreeRecord@@N@Z 0041be90 f   C45Learner.obj
 0001:0001af10       ?DrawMarker@C45Learner@@QAEXAAVCDC@@HH@Z 0041bf10 f   C45Learner.obj
 0001:0001b000       ??1CPen@@UAE@XZ            0041c000 f i C45Learner.obj
 0001:0001b030       ??_ECPen@@UAEPAXI@Z        0041c030 f i C45Learner.obj
 0001:0001b030       ??_GCPen@@UAEPAXI@Z        0041c030 f i C45Learner.obj
 0001:0001b070       ??1CBrush@@UAE@XZ          0041c070 f i C45Learner.obj
 0001:0001b0a0       ??_ECBrush@@UAEPAXI@Z      0041c0a0 f i C45Learner.obj
 0001:0001b0a0       ??_GCBrush@@UAEPAXI@Z      0041c0a0 f i C45Learner.obj
 0001:0001b0e0       ?Ellipse@CDC@@QAEHPBUtagRECT@@@Z 0041c0e0 f i C45Learner.obj
 0001:0001b120       ?DrawArrow@C45Learner@@QAEXAAVCDC@@HHHH@Z 0041c120 f   C45Learner.obj
 0001:0001b280       ?DrawTextA@C45Learner@@QAEXAAVCDC@@ABVCString@@HHK@Z 0041c280 f   C45Learner.obj
 0001:0001b320       ?GetTextMetricsA@CDC@@QBEHPAUtagTEXTMETRICA@@@Z 0041c320 f i C45Learner.obj
 0001:0001b350       ?DrawDiscTree@C45Learner@@QAEXAAVCDC@@@Z 0041c350 f   C45Learner.obj
 0001:0001b530       ?GetWindow@CDC@@QBEPAVCWnd@@XZ 0041c530 f i C45Learner.obj
 0001:0001b560       ?DrawDiscTreeNode@C45Learner@@QAEXAAVCDC@@PAVCTreeRecord@@NH@Z 0041c560 f   C45Learner.obj
 0001:0001b950       ?getClassName@CDataSet@@QAEXHAAVCString@@@Z 0041c950 f i C45Learner.obj
 0001:0001b9b0       ?DrawDecisionTree@C45Learner@@QAEXAAVCDC@@@Z 0041c9b0 f   C45Learner.obj
 0001:0001ba30       ?DrawDecisionTreeNode@C45Learner@@QAEXAAVCDC@@PAVCTreeRecord@@NH@Z 0041ca30 f   C45Learner.obj
 0001:0001bdd0       ?getQueryRules@C45Learner@@QAEXAAVCRuleSet@@@Z 0041cdd0 f   C45Learner.obj
 0001:0001be10       ?SaveRules@C45Learner@@QAEXABVCString@@@Z 0041ce10 f   C45Learner.obj
 0001:0001beb0       ?dump@CRuleSet@@QAEXXZ     0041ceb0 f i C45Learner.obj
 0001:0001bf30       ?dump@CRuleRec@@QAEXXZ     0041cf30 f i C45Learner.obj
 0001:0001bfc0       ?dump@CRuleCondition@@QAEXXZ 0041cfc0 f i C45Learner.obj
 0001:0001c0f0       ?GetRuleSet@C45Learner@@IAEXPAVCTreeRecord@@AAVCRuleSet@@@Z 0041d0f0 f   C45Learner.obj
 0001:0001c280       ?IsFullyQuery@CRuleRec@@QAE_NXZ 0041d280 f i C45Learner.obj
 0001:0001c3b0       ??ACString@@QBEDH@Z        0041d3b0 f i C45Learner.obj
 0001:0001c3d0       ?GetSize@CRuleRec@@QAEHXZ  0041d3d0 f i C45Learner.obj
 0001:0001c3f0       ?PrintOutRules@C45Learner@@QAEXXZ 0041d3f0 f   C45Learner.obj
 0001:0001c430       ?PrintConditions@C45Learner@@IAEXPAVCTreeRecord@@@Z 0041d430 f   C45Learner.obj
 0001:0001c570       ?TraverseConditions@C45Learner@@IAEXPAVCTreeRecord@@@Z 0041d570 f   C45Learner.obj
 0001:0001c8b0       ?insert@CRuleRec@@QAEXHHABVCString@@HN@Z 0041d8b0 f i C45Learner.obj
 0001:0001c940       ??0CRuleCondition@@QAE@HHABVCString@@HN@Z 0041d940 f i C45Learner.obj
 0001:0001ca30       ??1CRuleCondition@@UAE@XZ  0041da30 f i C45Learner.obj
 0001:0001ca90       ??_GCRuleCondition@@UAEPAXI@Z 0041da90 f i C45Learner.obj
 0001:0001ca90       ??_ECRuleCondition@@UAEPAXI@Z 0041da90 f i C45Learner.obj
 0001:0001cad0       ?insert@CRuleRec@@QAEXAAVCRuleCondition@@@Z 0041dad0 f i C45Learner.obj
 0001:0001d030       ?IsEmpty@CRuleRec@@QAEHXZ  0041e030 f i C45Learner.obj
 0001:0001d060       ?append@CRuleRec@@QAEXABV1@@Z 0041e060 f i C45Learner.obj
 0001:0001d120       ??0CRuleCondition@@QAE@XZ  0041e120 f i C45Learner.obj
 0001:0001d1d0       ??4CRuleCondition@@QAEXABV0@@Z 0041e1d0 f i C45Learner.obj
 0001:0001d240       ?GetSize@?$CArray@VCAttribute@@AAV1@@@QBEHXZ 0041e240 f i C45Learner.obj
 0001:0001d260       ??A?$CArray@VCAttribute@@AAV1@@@QAEAAVCAttribute@@H@Z 0041e260 f i C45Learner.obj
 0001:0001d290       ??0?$CArray@VCRuleCondition@@AAV1@@@QAE@XZ 0041e290 f i C45Learner.obj
 0001:0001d2e0       ?GetSize@?$CArray@VCRuleCondition@@AAV1@@@QBEHXZ 0041e2e0 f i C45Learner.obj
 0001:0001d300       ?RemoveAll@?$CArray@VCRuleCondition@@AAV1@@@QAEXXZ 0041e300 f i C45Learner.obj
 0001:0001d320       ?Add@?$CArray@VCRuleCondition@@AAV1@@@QAEHAAVCRuleCondition@@@Z 0041e320 f i C45Learner.obj
 0001:0001d360       ??A?$CArray@VCRuleCondition@@AAV1@@@QAEAAVCRuleCondition@@H@Z 0041e360 f i C45Learner.obj
 0001:0001d390       ??A?$CArray@VCRuleCondition@@AAV1@@@QBE?AVCRuleCondition@@H@Z 0041e390 f i C45Learner.obj
 0001:0001d3d0       ?InsertAt@?$CArray@VCRuleCondition@@AAV1@@@QAEXHAAVCRuleCondition@@H@Z 0041e3d0 f i C45Learner.obj
 0001:0001d4c0       ??1?$CArray@VCRuleCondition@@AAV1@@@UAE@XZ 0041e4c0 f i C45Learner.obj
 0001:0001d550       ?Serialize@?$CArray@VCRuleCondition@@AAV1@@@UAEXAAVCArchive@@@Z 0041e550 f i C45Learner.obj
 0001:0001d5c0       ?GetSize@?$CArray@VCRuleRec@@AAV1@@@QBEHXZ 0041e5c0 f i C45Learner.obj
 0001:0001d5e0       ?Add@?$CArray@VCRuleRec@@AAV1@@@QAEHAAVCRuleRec@@@Z 0041e5e0 f i C45Learner.obj
 0001:0001d620       ??A?$CArray@VCRuleRec@@AAV1@@@QAEAAVCRuleRec@@H@Z 0041e620 f i C45Learner.obj
 0001:0001d650       ?InsertAt@?$CArray@VCRuleRec@@AAV1@@@QAEXHAAVCRuleRec@@H@Z 0041e650 f i C45Learner.obj
 0001:0001d740       ??4CRuleRec@@QAEXABV0@@Z   0041e740 f i C45Learner.obj
 0001:0001d810       ??_G?$CArray@VCRuleCondition@@AAV1@@@UAEPAXI@Z 0041e810 f i C45Learner.obj
 0001:0001d810       ??_E?$CArray@VCRuleCondition@@AAV1@@@UAEPAXI@Z 0041e810 f i C45Learner.obj
 0001:0001d850       ?ElementAt@?$CArray@VCAttribute@@AAV1@@@QAEAAVCAttribute@@H@Z 0041e850 f i C45Learner.obj
 0001:0001d880       ?SetSize@?$CArray@VCRuleCondition@@AAV1@@@QAEXHH@Z 0041e880 f i C45Learner.obj
 0001:0001dac0       ?GetAt@?$CArray@VCRuleCondition@@AAV1@@@QBE?AVCRuleCondition@@H@Z 0041eac0 f i C45Learner.obj
 0001:0001db00       ??0CRuleCondition@@QAE@ABV0@@Z 0041eb00 f i C45Learner.obj
 0001:0001dbc0       ?ElementAt@?$CArray@VCRuleCondition@@AAV1@@@QAEAAVCRuleCondition@@H@Z 0041ebc0 f i C45Learner.obj
 0001:0001dbf0       ?SetAtGrow@?$CArray@VCRuleCondition@@AAV1@@@QAEXHAAVCRuleCondition@@@Z 0041ebf0 f i C45Learner.obj
 0001:0001dc40       ?DestructElements@@YGXPAVCRuleCondition@@H@Z 0041ec40 f i C45Learner.obj
 0001:0001dc80       ?ConstructElements@@YGXPAVCRuleCondition@@H@Z 0041ec80 f i C45Learner.obj
 0001:0001dd30       ?SerializeElements@@YGXAAVCArchive@@PAVCRuleCondition@@H@Z 0041ed30 f i C45Learner.obj
 0001:0001dd80       ?SetSize@?$CArray@VCRuleRec@@AAV1@@@QAEXHH@Z 0041ed80 f i C45Learner.obj
 0001:0001dfc0       ?ElementAt@?$CArray@VCRuleRec@@AAV1@@@QAEAAVCRuleRec@@H@Z 0041efc0 f i C45Learner.obj
 0001:0001dff0       ?SetAtGrow@?$CArray@VCRuleRec@@AAV1@@@QAEXHAAVCRuleRec@@@Z 0041eff0 f i C45Learner.obj
 0001:0001e040       ?DestructElements@@YGXPAVCRuleRec@@H@Z 0041f040 f i C45Learner.obj
 0001:0001e080       ?ConstructElements@@YGXPAVCRuleRec@@H@Z 0041f080 f i C45Learner.obj
 0001:0001e1b0       ??0CChevBar@@QAE@XZ        0041f1b0 f   ChevBar.obj
 0001:0001e260       ??_GCChevBar@@UAEPAXI@Z    0041f260 f i ChevBar.obj
 0001:0001e260       ??_ECChevBar@@UAEPAXI@Z    0041f260 f i ChevBar.obj
 0001:0001e2a0       ??1CChevBar@@UAE@XZ        0041f2a0 f i ChevBar.obj
 0001:0001e330       ?GetMessageMap@CChevBar@@MBEPBUAFX_MSGMAP@@XZ 0041f330 f   ChevBar.obj
 0001:0001e350       ?OnChevronPushed@CChevBar@@IAEXPAUtagNMHDR@@PAJ@Z 0041f350 f   ChevBar.obj
 0001:0001efe0       ??0CPoint@@QAE@XZ          0041ffe0 f i ChevBar.obj
 0001:0001f000       ??0CMenu@@QAE@XZ           00420000 f i ChevBar.obj
 0001:0001f040       ??_ECMenu@@UAEPAXI@Z       00420040 f i ChevBar.obj
 0001:0001f040       ??_GCMenu@@UAEPAXI@Z       00420040 f i ChevBar.obj
 0001:0001f080       ??1CMenu@@UAE@XZ           00420080 f i ChevBar.obj
 0001:0001f0e0       ?CreatePopupMenu@CMenu@@QAEHXZ 004200e0 f i ChevBar.obj
 0001:0001f110       ?AppendMenuA@CMenu@@QAEHIIPBD@Z 00420110 f i ChevBar.obj
 0001:0001f140       ?GetMenuStringA@CMenu@@QBEHIAAVCString@@I@Z 00420140 f i ChevBar.obj
 0001:0001f1d0       ?GetSubMenu@CMenu@@QBEPAV1@H@Z 004201d0 f i ChevBar.obj
 0001:0001f200       ?GetWindowRect@CWnd@@QBEXPAUtagRECT@@@Z 00420200 f i ChevBar.obj
 0001:0001f230       ?ClientToScreen@CWnd@@QBEXPAUtagPOINT@@@Z 00420230 f i ChevBar.obj
 0001:0001f260       ?IsButtonEnabled@CToolBarCtrl@@QBEHH@Z 00420260 f i ChevBar.obj
 0001:0001f290       ?IsButtonChecked@CToolBarCtrl@@QBEHH@Z 00420290 f i ChevBar.obj
 0001:0001f2c0       ?IsButtonPressed@CToolBarCtrl@@QBEHH@Z 004202c0 f i ChevBar.obj
 0001:0001f2f0       ?GetButton@CToolBarCtrl@@QBEHHPAU_TBBUTTON@@@Z 004202f0 f i ChevBar.obj
 0001:0001f320       ?GetButtonCount@CToolBarCtrl@@QBEHXZ 00420320 f i ChevBar.obj
 0001:0001f350       ?GetImageList@CToolBarCtrl@@QBEPAVCImageList@@XZ 00420350 f i ChevBar.obj
 0001:0001f380       ?GetBandInfo@CReBarCtrl@@QBEHIPAUtagREBARBANDINFOA@@@Z 00420380 f i ChevBar.obj
 0001:0001f3b0       ?GetReBarCtrl@CChevBar@@QBEAAVCReBarCtrl@@XZ 004203b0 f i ChevBar.obj
 0001:0001f3d0       ?OnHeightChange@CChevBar@@IAEXPAUtagNMHDR@@PAJ@Z 004203d0 f   ChevBar.obj
 0001:0001f410       ?OnShowBand@CChevBar@@IAEJIJ@Z 00420410 f   ChevBar.obj
 0001:0001f4f0       ?_AddBar@CChevBar@@IAEHPAVCWnd@@PAUtagREBARBANDINFOA@@@Z 004204f0 f   ChevBar.obj
 0001:0001f600       ??0CSize@@QAE@XZ           00420600 f i ChevBar.obj
 0001:0001f620       ?Size@CRect@@QBE?AVCSize@@XZ 00420620 f i ChevBar.obj
 0001:0001f670       ?AddBar@CChevBar@@QAEHPAVCWnd@@PBDPAVCBitmap@@K@Z 00420670 f   ChevBar.obj
 0001:0001f6e0       ??BCBitmap@@QBEPAUHBITMAP__@@XZ 004206e0 f i ChevBar.obj
 0001:0001f710       ?AddBar@CChevBar@@QAEHPAVCWnd@@KKPBDK@Z 00420710 f   ChevBar.obj
 0001:0001f770       ?Create@CChevBar@@QAEHPAVCWnd@@KKI@Z 00420770 f   ChevBar.obj
 0001:0001f820       ?SetRectEmpty@CRect@@QAEXXZ 00420820 f i ChevBar.obj
 0001:0001f840       ?OnNcCreate@CChevBar@@IAEHPAUtagCREATESTRUCTA@@@Z 00420840 f   ChevBar.obj
 0001:0001f8a0       ?OnNcCreate@CWnd@@IAEHPAUtagCREATESTRUCTA@@@Z 004208a0 f i ChevBar.obj
 0001:0001f8c0       ?OnRecalcParent@CChevBar@@IAEXXZ 004208c0 f   ChevBar.obj
 0001:0001f8f0       ?OnUpdateCmdUI@CChevBar@@UAEXPAVCFrameWnd@@H@Z 004208f0 f   ChevBar.obj
 0001:0001f910       ?CalcFixedLayout@CChevBar@@UAE?AVCSize@@HH@Z 00420910 f   ChevBar.obj
 0001:0001fc40       ?IsRectEmpty@CRect@@QBEHXZ 00420c40 f i ChevBar.obj
 0001:0001fc60       ??_5CRect@@QAEXABUtagRECT@@@Z 00420c60 f i ChevBar.obj
 0001:0001fc90       ?CalcDynamicLayout@CChevBar@@UAE?AVCSize@@HK@Z 00420c90 f   ChevBar.obj
 0001:0001fce0       ?OnEraseBkgnd@CChevBar@@IAEHPAVCDC@@@Z 00420ce0 f   ChevBar.obj
 0001:0001fd00       ?OnNcCalcSize@CChevBar@@IAEXHPAUtagNCCALCSIZE_PARAMS@@@Z 00420d00 f   ChevBar.obj
 0001:0001fd90       ?OnNcPaint@CChevBar@@IAEXXZ 00420d90 f   ChevBar.obj
 0001:0001fdc0       ?OnPaint@CChevBar@@IAEXXZ  00420dc0 f   ChevBar.obj
 0001:0001fde0       ?WindowProc@CChevBar@@MAEJIIJ@Z 00420de0 f   ChevBar.obj
 0001:0001fe40       ?GetOwner@CWnd@@QBEPAV1@XZ 00420e40 f i ChevBar.obj
 0001:0001fe80       ?GetParent@CWnd@@QBEPAV1@XZ 00420e80 f i ChevBar.obj
 0001:0001feb0       ?GetRuntimeClass@CChevBar@@UBEPAUCRuntimeClass@@XZ 00420eb0 f   ChevBar.obj
 0001:0001fed0       ?CopyMenu@CChevBar@@QAEPAUHMENU__@@PAU2@@Z 00420ed0 f   ChevBar.obj
 0001:00020220       ?GetAt@?$CArray@PAVCExternalUtilItem@@PAV1@@@QBEPAVCExternalUtilItem@@H@Z 00421220 f i ChevBar.obj
 0001:00020310       ?CreateObject@CChildFrame@@SGPAVCObject@@XZ 00421310 f   ChildFrm.obj
 0001:00020380       ??2CObject@@SGPAXI@Z       00421380 f i ChildFrm.obj
 0001:000203a0       ?GetRuntimeClass@CChildFrame@@UBEPAUCRuntimeClass@@XZ 004213a0 f   ChildFrm.obj
 0001:000203c0       ?GetMessageMap@CChildFrame@@MBEPBUAFX_MSGMAP@@XZ 004213c0 f   ChildFrm.obj
 0001:000203e0       ??0CChildFrame@@QAE@XZ     004213e0 f   ChildFrm.obj
 0001:000204d0       ??_ECChildFrame@@UAEPAXI@Z 004214d0 f i ChildFrm.obj
 0001:000204d0       ??_GCChildFrame@@UAEPAXI@Z 004214d0 f i ChildFrm.obj
 0001:00020510       ??1CMDIChildWnd@@UAE@XZ    00421510 f i ChildFrm.obj
 0001:00020530       ??1CChildFrame@@UAE@XZ     00421530 f   ChildFrm.obj
 0001:000205c0       ?PreCreateWindow@CChildFrame@@UAEHAAUtagCREATESTRUCTA@@@Z 004215c0 f   ChildFrm.obj
 0001:000206b0       ?OnClose@CChildFrame@@IAEXXZ 004216b0 f   ChildFrm.obj
 0001:00020c10       ??9@YG_NABVCString@@PBD@Z  00421c10 f i ChildFrm.obj
 0001:00020c40       ?MDIActivate@CMDIFrameWnd@@QAEXPAVCWnd@@@Z 00421c40 f i ChildFrm.obj
 0001:00020c80       ?OnCreateClient@CChildFrame@@MAEHPAUtagCREATESTRUCTA@@PAUCCreateContext@@@Z 00421c80 f   ChildFrm.obj
 0001:00020df0       ?OnCmdMsg@CChildFrame@@UAEHIHPAXPAUAFX_CMDHANDLERINFO@@@Z 00421df0 f   ChildFrm.obj
 0001:00020e90       ?GetWindow@CWnd@@QBEPAV1@I@Z 00421e90 f i ChildFrm.obj
 0001:00020ec0       ?OnViewSetFocus@CChildFrame@@IAEXIJ@Z 00421ec0 f   ChildFrm.obj
 0001:00020f30       ?ViewSetFocus@CChildFrame@@QAEXXZ 00421f30 f   ChildFrm.obj
 0001:00020fc0       ?OnMDIActivate@CChildFrame@@IAEXHPAVCWnd@@0@Z 00421fc0 f   ChildFrm.obj
 0001:00021560       ??8@YG_NABVCString@@0@Z    00422560 f i ChildFrm.obj
 0001:00021590       ?MDINext@CMDIFrameWnd@@QAEXXZ 00422590 f i ChildFrm.obj
 0001:000215c0       ??1CInputPassword@@UAE@XZ  004225c0 f i ChildFrm.obj
 0001:00021620       ?OnSysCommand@CChildFrame@@IAEXIJ@Z 00422620 f   ChildFrm.obj
 0001:00021680       ?OnSize@CChildFrame@@IAEXIHH@Z 00422680 f   ChildFrm.obj
 0001:00021740       ?OnNcActivate@CChildFrame@@IAEHH@Z 00422740 f   ChildFrm.obj
 0001:00021770       ?OnNcPaint@CChildFrame@@IAEXXZ 00422770 f   ChildFrm.obj
 0001:000217a0       ?OnNcPaint@CWnd@@IAEXXZ    004227a0 f i ChildFrm.obj
 0001:00021800       ?UTF_8ToUnicode@ChineseCode@@SAXPAGPAD@Z 00422800 f   ChineseCode.obj
 0001:00021860       ?UnicodeToUTF_8@ChineseCode@@SAXPADVCString@@@Z 00422860 f   ChineseCode.obj
 0001:00021920       ?UnicodeToGB2312@ChineseCode@@SAXPADG@Z 00422920 f   ChineseCode.obj
 0001:00021950       ?Gb2312ToUnicode@ChineseCode@@SAXPAGPAD@Z 00422950 f   ChineseCode.obj
 0001:00021980       ?UTF_8ToGB2312@ChineseCode@@SAXAAV?$basic_string@DU?$char_traits@D@std@@V?$allocator@D@2@@std@@PADH@Z 00422980 f   ChineseCode.obj
 0001:00021a80       ??4?$basic_string@DU?$char_traits@D@std@@V?$allocator@D@2@@std@@QAEAAV01@PBD@Z 00422a80 f i ChineseCode.obj
 0001:00021ab0       ?assign@?$basic_string@DU?$char_traits@D@std@@V?$allocator@D@2@@std@@QAEAAV12@PBD@Z 00422ab0 f i ChineseCode.obj
 0001:00021ae0       ?length@?$char_traits@D@std@@SAIPBD@Z 00422ae0 f i ChineseCode.obj
 0001:00021b00       ?assign@?$basic_string@DU?$char_traits@D@std@@V?$allocator@D@2@@std@@QAEAAV12@PBDI@Z 00422b00 f i ChineseCode.obj
 0001:00021b60       ?copy@?$char_traits@D@std@@SAPADPADPBDI@Z 00422b60 f i ChineseCode.obj
 0001:00021b90       ?_Eos@?$basic_string@DU?$char_traits@D@std@@V?$allocator@D@2@@std@@AAEXI@Z 00422b90 f i ChineseCode.obj
 0001:00021bd0       ?assign@?$char_traits@D@std@@SAXAADABD@Z 00422bd0 f i ChineseCode.obj
 0001:00021bf0       ?_Grow@?$basic_string@DU?$char_traits@D@std@@V?$allocator@D@2@@std@@AAE_NI_N@Z 00422bf0 f i ChineseCode.obj
 0001:00021d30       ?_Tidy@?$basic_string@DU?$char_traits@D@std@@V?$allocator@D@2@@std@@AAEX_N@Z 00422d30 f i ChineseCode.obj
 0001:00021df0       ?_Refcnt@?$basic_string@DU?$char_traits@D@std@@V?$allocator@D@2@@std@@AAEAAEPBD@Z 00422df0 f i ChineseCode.obj
 0001:00021e10       ?deallocate@?$allocator@D@std@@QAEXPAXI@Z 00422e10 f i ChineseCode.obj
 0001:00021e40       ?max_size@?$basic_string@DU?$char_traits@D@std@@V?$allocator@D@2@@std@@QBEIXZ 00422e40 f i ChineseCode.obj
 0001:00021e80       ?_Copy@?$basic_string@DU?$char_traits@D@std@@V?$allocator@D@2@@std@@AAEXI@Z 00422e80 f i ChineseCode.obj
 0001:00021fc0       ?allocate@?$allocator@D@std@@QAEPADIPBX@Z 00422fc0 f i ChineseCode.obj
 0001:00021ff0       ?max_size@?$allocator@D@std@@QBEIXZ 00422ff0 f i ChineseCode.obj
 0001:000220f0       ??0CCleanAll@@QAE@PAVCWnd@@@Z 004230f0 f   CleanAll.obj
 0001:00022170       ??_ECCleanAll@@UAEPAXI@Z   00423170 f i CleanAll.obj
 0001:00022170       ??_GCCleanAll@@UAEPAXI@Z   00423170 f i CleanAll.obj
 0001:000221b0       ??1CCleanAll@@UAE@XZ       004231b0 f i CleanAll.obj
 0001:000221d0       ?DoDataExchange@CCleanAll@@MAEXPAVCDataExchange@@@Z 004231d0 f   CleanAll.obj
 0001:00022290       ?GetMessageMap@CCleanAll@@MBEPBUAFX_MSGMAP@@XZ 00423290 f   CleanAll.obj
 0001:000222b0       ?OnSelectAll@CCleanAll@@IAEXXZ 004232b0 f   CleanAll.obj
 0001:00022320       ?OnSelectNone@CCleanAll@@IAEXXZ 00423320 f   CleanAll.obj
 0001:00022390       ?OnInitDialog@CCleanAll@@MAEHXZ 00423390 f   CleanAll.obj
 0001:00022480       ?OnOK@CCleanAll@@MAEXXZ    00423480 f   CleanAll.obj
 0001:00022620       ??0CCollectorDlg@@QAE@PAVCWnd@@@Z 00423620 f   CollectorDlg.obj
 0001:000226e0       ??0CEdit@@QAE@XZ           004236e0 f i CollectorDlg.obj
 0001:00022710       ??_ECEdit@@UAEPAXI@Z       00423710 f i CollectorDlg.obj
 0001:00022710       ??_GCEdit@@UAEPAXI@Z       00423710 f i CollectorDlg.obj
 0001:00022750       ??0CTxtDropTarget@@QAE@XZ  00423750 f i CollectorDlg.obj
 0001:00022780       ??_GCTxtDropTarget@@UAEPAXI@Z 00423780 f i CollectorDlg.obj
 0001:00022780       ??_ECTxtDropTarget@@UAEPAXI@Z 00423780 f i CollectorDlg.obj
 0001:000227c0       ??1CTxtDropTarget@@UAE@XZ  004237c0 f i CollectorDlg.obj
 0001:000227e0       ??_GCCollectorDlg@@UAEPAXI@Z 004237e0 f i CollectorDlg.obj
 0001:000227e0       ??_ECCollectorDlg@@UAEPAXI@Z 004237e0 f i CollectorDlg.obj
 0001:00022820       ??1CCollectorDlg@@UAE@XZ   00423820 f i CollectorDlg.obj
 0001:000228c0       ?DoDataExchange@CCollectorDlg@@MAEXPAVCDataExchange@@@Z 004238c0 f   CollectorDlg.obj
 0001:00022930       ?GetMessageMap@CCollectorDlg@@MBEPBUAFX_MSGMAP@@XZ 00423930 f   CollectorDlg.obj
 0001:00022950       ?OnClose@CCollectorDlg@@IAEXXZ 00423950 f   CollectorDlg.obj
 0001:00022980       ?OnClose@CWnd@@IAEXXZ      00423980 f i CollectorDlg.obj
 0001:000229a0       ?OnDestroy@CCollectorDlg@@IAEXXZ 004239a0 f   CollectorDlg.obj
 0001:000229e0       ?SaveCollector@CCollectorDlg@@AAEXXZ 004239e0 f   CollectorDlg.obj
 0001:00022bd0       ?OnSize@CCollectorDlg@@IAEXIHH@Z 00423bd0 f   CollectorDlg.obj
 0001:00022c90       ?OnDragScroll@CTxtDropTarget@@UAEKPAVCWnd@@KVCPoint@@@Z 00423c90 f   CollectorDlg.obj
 0001:00022cb0       ?OnDragEnter@CTxtDropTarget@@UAEKPAVCWnd@@PAVCOleDataObject@@KVCPoint@@@Z 00423cb0 f   CollectorDlg.obj
 0001:00022cd0       ?OnDragLeave@CTxtDropTarget@@UAEXPAVCWnd@@@Z 00423cd0 f   CollectorDlg.obj
 0001:00022cf0       ?OnDragOver@CTxtDropTarget@@UAEKPAVCWnd@@PAVCOleDataObject@@KVCPoint@@@Z 00423cf0 f   CollectorDlg.obj
 0001:00022d10       ?SaveText@CTxtDropTarget@@QAEXVCString@@H@Z 00423d10 f   CollectorDlg.obj
 0001:00023220       ?SeekToBegin@CFile@@QAEXXZ 00424220 f i CollectorDlg.obj
 0001:00023250       ?ReplaceSel@CEdit@@QAEXPBDH@Z 00424250 f i CollectorDlg.obj
 0001:00023280       ?SetSel@CEdit@@QAEXHHH@Z   00424280 f i CollectorDlg.obj
 0001:000232d0       ?OnDrop@CTxtDropTarget@@UAEHPAVCWnd@@PAVCOleDataObject@@KVCPoint@@@Z 004242d0 f   CollectorDlg.obj
 0001:00023c10       ?OnCreate@CCollectorDlg@@IAEHPAUtagCREATESTRUCTA@@@Z 00424c10 f   CollectorDlg.obj
 0001:00023c60       ?SetIcon@CWnd@@QAEPAUHICON__@@PAU2@H@Z 00424c60 f i CollectorDlg.obj
 0001:00023c90       ?OnCreate@CWnd@@IAEHPAUtagCREATESTRUCTA@@@Z 00424c90 f i CollectorDlg.obj
 0001:00023cb0       ?OnInitDialog@CCollectorDlg@@MAEHXZ 00424cb0 f   CollectorDlg.obj
 0001:00024360       ?SetLimitText@CEdit@@QAEXI@Z 00425360 f i CollectorDlg.obj
 0001:00024390       ?GetBarStyle@CControlBar@@QAEKXZ 00425390 f i CollectorDlg.obj
 0001:000243b0       ?GetToolTips@CToolBarCtrl@@QBEPAVCToolTipCtrl@@XZ 004253b0 f i CollectorDlg.obj
 0001:000243e0       ?SetImageList@CToolBarCtrl@@QAEPAVCImageList@@PAV2@@Z 004253e0 f i CollectorDlg.obj
 0001:00024420       ?OnCollectorMode@CCollectorDlg@@QAEXXZ 00425420 f   CollectorDlg.obj
 0001:00024480       ?CollectorSetTrans@CCollectorDlg@@QAEXH@Z 00425480 f   CollectorDlg.obj
 0001:000244c0       ?CollectorTrans@CCollectorDlg@@QAEHH@Z 004254c0 f   CollectorDlg.obj
 0001:00024570       ?OnCollectorClean@CCollectorDlg@@QAEXXZ 00425570 f   CollectorDlg.obj
 0001:000245d0       ?CleanOutputCollector@CCollectorDlg@@QAEXXZ 004255d0 f   CollectorDlg.obj
 0001:00024600       ?OnCollectorSave@CCollectorDlg@@QAEXXZ 00425600 f   CollectorDlg.obj
 0001:000247b0       ??1CFileDialog@@UAE@XZ     004257b0 f i CollectorDlg.obj
 0001:00024810       ??1CCommonDialog@@UAE@XZ   00425810 f i CollectorDlg.obj
 0001:00024830       ?OnCollectorTxt@CCollectorDlg@@QAEXXZ 00425830 f   CollectorDlg.obj
 0001:00024900       ?CheckButton@CToolBarCtrl@@QAEHHH@Z 00425900 f i CollectorDlg.obj
 0001:00024940       ?OnCollectorOutput@CCollectorDlg@@QAEXXZ 00425940 f   CollectorDlg.obj
 0001:00024a20       ?OnCollectorScript@CCollectorDlg@@QAEXXZ 00425a20 f   CollectorDlg.obj
 0001:00024af0       ?OnRunScript@CCollectorDlg@@QAEXXZ 00425af0 f   CollectorDlg.obj
 0001:00024c20       ?GetSel@CEdit@@QBEXAAH0@Z  00425c20 f i CollectorDlg.obj
 0001:00024c50       ?OnOpenSelectedText@CCollectorDlg@@QAEXXZ 00425c50 f   CollectorDlg.obj
 0001:00025170       ?OnOpenCursorLine@CCollectorDlg@@QAEXXZ 00426170 f   CollectorDlg.obj
 0001:000258e0       ?GetLine@CEdit@@QBEHHPADH@Z 004268e0 f i CollectorDlg.obj
 0001:00025920       ?LineFromChar@CEdit@@QBEHH@Z 00426920 f i CollectorDlg.obj
 0001:00025950       ?LineIndex@CEdit@@QBEHH@Z  00426950 f i CollectorDlg.obj
 0001:00025980       ?PreTranslateMessage@CCollectorDlg@@UAEHPAUtagMSG@@@Z 00426980 f   CollectorDlg.obj
 0001:00025a20       ?OnLButtonDblClk@CCollectorDlg@@IAEXIVCPoint@@@Z 00426a20 f   CollectorDlg.obj
 0001:00025a50       ?OnLButtonDblClk@CWnd@@IAEXIVCPoint@@@Z 00426a50 f i CollectorDlg.obj
 0001:00025b30       ??0CComboBar@@QAE@XZ       00426b30 f   ComboBar.obj
 0001:00025bb0       ??_ECComboBar@@UAEPAXI@Z   00426bb0 f i ComboBar.obj
 0001:00025bb0       ??_GCComboBar@@UAEPAXI@Z   00426bb0 f i ComboBar.obj
 0001:00025bf0       ??1CComboBar@@UAE@XZ       00426bf0 f   ComboBar.obj
 0001:00025c70       ?GetMessageMap@CComboBar@@MBEPBUAFX_MSGMAP@@XZ 00426c70 f   ComboBar.obj
 0001:00025c90       ?OnSize@CComboBar@@IAEXIHH@Z 00426c90 f   ComboBar.obj
 0001:00025d90       ?Init@CComboBar@@QAEXXZ    00426d90 f   ComboBar.obj
 0001:00025e40       ?InitImage@CComboBar@@QAEXXZ 00426e40 f   ComboBar.obj
 0001:000261d0       ?Add@CImageList@@QAEHPAUHICON__@@@Z 004271d0 f i ComboBar.obj
 0001:00026200       ?InitButton@CComboBar@@QAEXXZ 00427200 f   ComboBar.obj
 0001:00026480       ?DeleteButton@CToolBarCtrl@@QAEHH@Z 00427480 f i ComboBar.obj
 0001:000264b0       ?GetSelText@CComboBar@@QAEXHAAVCString@@@Z 004274b0 f   ComboBar.obj
 0001:00026540       ?FindStringExact@CComboBar@@QAEHHAAVCString@@@Z 00427540 f   ComboBar.obj
 0001:00026620       ?GetUpperBound@?$CArray@PAVCSearch@@PAV1@@@QBEHXZ 00427620 f i ComboBar.obj
 0001:00026640       ?GetAt@?$CArray@PAVCSearch@@PAV1@@@QBEPAVCSearch@@H@Z 00427640 f i ComboBar.obj
 0001:000266b0       ??0Connection@@QAE@XZ      004276b0 f   Connection.obj
 0001:00026740       ??_GConnection@@UAEPAXI@Z  00427740 f i Connection.obj
 0001:00026740       ??_EConnection@@UAEPAXI@Z  00427740 f i Connection.obj
 0001:00026780       ??1Connection@@UAE@XZ      00427780 f   Connection.obj
 0001:00026800       ?chomp@@YAPADPAD@Z         00427800 f   Connection.obj
 0001:00026890       ?toHex@Connection@@SADE@Z  00427890 f   Connection.obj
 0001:000268d0       ?urlEncoding@Connection@@SA?AVCString@@AAV2@@Z 004278d0 f   Connection.obj
 0001:00026b90       ?UnicodeToUTF_8@Connection@@SAXPADPAG@Z 00427b90 f   Connection.obj
 0001:00026c00       ?Gb2312ToUnicode@Connection@@SAXPAGPAD@Z 00427c00 f   Connection.obj
 0001:00026c30       ?GB2312ToUTF_8@Connection@@SAXAAVCString@@V2@H@Z 00427c30 f   Connection.obj
 0001:00026d90       ?UrlUTF8@Connection@@SA?AVCString@@V2@@Z 00427d90 f   Connection.obj
 0001:00026fe0       ?Retrieve@Connection@@QAEHPBDAAVCString@@@Z 00427fe0 f   Connection.obj
 0001:00027e00       ?getURL@CUrl@@QBEPBDXZ     00428e00 f i Connection.obj
 0001:00027e20       ?GetContent@Connection@@QAE?AVCString@@XZ 00428e20 f   Connection.obj
 0001:00027e60       ?GetContentType@Connection@@QAE?AVCString@@XZ 00428e60 f   Connection.obj
 0001:00027ea0       ?GetContentLength@Connection@@QAEHXZ 00428ea0 f   Connection.obj
 0001:00027ec0       ?GetHeader@Connection@@QAEHAAVCString@@@Z 00428ec0 f   Connection.obj
 0001:00028a10       ?SetOption@CInternetSession@@QAEHKKK@Z 00429a10 f i Connection.obj
 0001:00028a40       ?ParseHeader@Connection@@AAEXPAVCHttpFile@@@Z 00429a40 f   Connection.obj
 0001:00028d40       ??1?$map@VCString@@HU?$less@VCString@@@std@@V?$allocator@H@3@@std@@QAE@XZ 00429d40 f i ContentAnalysis.obj
 0001:00028ec0       ?ConvertToMd5@ContentAnalysis@@SA?AVCString@@V2@@Z 00429ec0 f   ContentAnalysis.obj
 0001:00028f30       ?LoadContentAnalysisHistory@ContentAnalysis@@SAXVCString@@@Z 00429f30 f   ContentAnalysis.obj
 0001:000292e0       ?GetChildAttrib@CMarkup@@QBE?AVCString@@UMCD_CSTR@@@Z 0042a2e0 f i ContentAnalysis.obj
 0001:00029330       ??1?$pair@VCString@@H@std@@QAE@XZ 0042a330 f i ContentAnalysis.obj
 0001:00029350       ??1?$pair@$$CBVCString@@H@std@@QAE@XZ 0042a350 f i ContentAnalysis.obj
 0001:00029370       ?SaveContentAnalysisHistory@ContentAnalysis@@SAXVCString@@@Z 0042a370 f   ContentAnalysis.obj
 0001:00029780       ?GetDoc@CMarkup@@QBEABVCString@@XZ 0042a780 f i ContentAnalysis.obj
 0001:000297a0       ??_D?$basic_ofstream@DU?$char_traits@D@std@@@std@@QAEXXZ 0042a7a0 f i ContentAnalysis.obj
 0001:000297d0       ?UpdateContentAnalysisHistory@ContentAnalysis@@SAXVCString@@0@Z 0042a7d0 f   ContentAnalysis.obj
 0001:000299b0       ?AnalysisPAN_EmotionCategory@ContentAnalysis@@SAXXZ 0042a9b0 f   ContentAnalysis.obj
 0001:00029be0       ?EmotionCategoryFrequencyRating@ContentAnalysis@@SAXNH@Z 0042abe0 f   ContentAnalysis.obj
 0001:00029d00       ?AnalysisPTN_ContentCategory@ContentAnalysis@@SAXXZ 0042ad00 f   ContentAnalysis.obj
 0001:0002a0c0       ?ContentCategoryFrequencyRating@ContentAnalysis@@SAXNH@Z 0042b0c0 f   ContentAnalysis.obj
 0001:0002a1a0       ??6?$basic_ostream@DU?$char_traits@D@std@@@std@@QAEAAV01@PBX@Z 0042b1a0 f i ContentAnalysis.obj
 0001:0002a330       ??1locale@std@@QAE@XZ      0042b330 f i ContentAnalysis.obj
 0001:0002a380       ?_Decref@facet@locale@std@@QAEPAV123@XZ 0042b380 f i ContentAnalysis.obj
 0001:0002a3e0       ?getloc@ios_base@std@@QBE?AVlocale@2@XZ 0042b3e0 f i ContentAnalysis.obj
 0001:0002a420       ??0locale@std@@QAE@ABV01@@Z 0042b420 f i ContentAnalysis.obj
 0001:0002a450       ?_Incref@facet@locale@std@@QAEXXZ 0042b450 f i ContentAnalysis.obj
 0001:0002a490       ??1?$basic_ios@DU?$char_traits@D@std@@@std@@UAE@XZ 0042b490 f i ContentAnalysis.obj
 0001:0002a4c0       ?setstate@?$basic_ios@DU?$char_traits@D@std@@@std@@QAEXH_N@Z 0042b4c0 f i ContentAnalysis.obj
 0001:0002a500       ?rdstate@ios_base@std@@QBEHXZ 0042b500 f i ContentAnalysis.obj
 0001:0002a520       ?rdbuf@?$basic_ios@DU?$char_traits@D@std@@@std@@QBEPAV?$basic_streambuf@DU?$char_traits@D@std@@@2@XZ 0042b520 f i ContentAnalysis.obj
 0001:0002a540       ??0?$map@VCString@@HU?$less@VCString@@@std@@V?$allocator@H@3@@std@@QAE@ABU?$less@VCString@@@1@ABV?$allocator@H@1@@Z 0042b540 f i ContentAnalysis.obj
 0001:0002a570       ?begin@?$map@VCString@@HU?$less@VCString@@@std@@V?$allocator@H@3@@std@@QAE?AViterator@?$_Tree@VCString@@U?$pair@$$CBVCString@@H@std@@U_Kfn@?$map@VCString@@HU?$less@VCString@@@std@@V?$allocator@H@3@@3@U?$less@VCString@@@3@V?$allocator@H@3@@2@XZ 0042b570 f i ContentAnalysis.obj
 0001:0002a5a0       ?end@?$map@VCString@@HU?$less@VCString@@@std@@V?$allocator@H@3@@std@@QAE?AViterator@?$_Tree@VCString@@U?$pair@$$CBVCString@@H@std@@U_Kfn@?$map@VCString@@HU?$less@VCString@@@std@@V?$allocator@H@3@@3@U?$less@VCString@@@3@V?$allocator@H@3@@2@XZ 0042b5a0 f i ContentAnalysis.obj
 0001:0002a5d0       ??A?$map@VCString@@HU?$less@VCString@@@std@@V?$allocator@H@3@@std@@QAEAAHABVCString@@@Z 0042b5d0 f i ContentAnalysis.obj
 0001:0002a660       ?insert@?$map@VCString@@HU?$less@VCString@@@std@@V?$allocator@H@3@@std@@QAE?AU?$pair@Viterator@?$_Tree@VCString@@U?$pair@$$CBVCString@@H@std@@U_Kfn@?$map@VCString@@HU?$less@VCString@@@std@@V?$allocator@H@3@@3@U?$less@VCString@@@3@V?$allocator@H@3@@std@@_N@2@ABU?$pair@$$CBVCString@@H@2@@Z 0042b660 f i ContentAnalysis.obj
 0001:0002a6b0       ?count@?$map@VCString@@HU?$less@VCString@@@std@@V?$allocator@H@3@@std@@QBEIABVCString@@@Z 0042b6b0 f i ContentAnalysis.obj
 0001:0002a6e0       ??1?$_Tree@VCString@@U?$pair@$$CBVCString@@H@std@@U_Kfn@?$map@VCString@@HU?$less@VCString@@@std@@V?$allocator@H@3@@3@U?$less@VCString@@@3@V?$allocator@H@3@@std@@QAE@XZ 0042b6e0 f i ContentAnalysis.obj
 0001:0002a7a0       ??Citerator@?$_Tree@VCString@@U?$pair@$$CBVCString@@H@std@@U_Kfn@?$map@VCString@@HU?$less@VCString@@@std@@V?$allocator@H@3@@3@U?$less@VCString@@@3@V?$allocator@H@3@@std@@QBEPAU?$pair@$$CBVCString@@H@2@XZ 0042b7a0 f i ContentAnalysis.obj
 0001:0002a7c0       ??Eiterator@?$_Tree@VCString@@U?$pair@$$CBVCString@@H@std@@U_Kfn@?$map@VCString@@HU?$less@VCString@@@std@@V?$allocator@H@3@@3@U?$less@VCString@@@3@V?$allocator@H@3@@std@@QAE?AV012@H@Z 0042b7c0 f i ContentAnalysis.obj
 0001:0002a7f0       ??9iterator@?$_Tree@VCString@@U?$pair@$$CBVCString@@H@std@@U_Kfn@?$map@VCString@@HU?$less@VCString@@@std@@V?$allocator@H@3@@3@U?$less@VCString@@@3@V?$allocator@H@3@@std@@QBE_NABV012@@Z 0042b7f0 f i ContentAnalysis.obj
 0001:0002a820       ??0?$pair@VCString@@H@std@@QAE@ABVCString@@ABH@Z 0042b820 f i ContentAnalysis.obj
 0001:0002a850       ??0?$basic_ofstream@DU?$char_traits@D@std@@@std@@QAE@XZ 0042b850 f i ContentAnalysis.obj
 0001:0002a900       ??1?$basic_ostream@DU?$char_traits@D@std@@@std@@UAE@XZ 0042b900 f i ContentAnalysis.obj
 0001:0002a930       ??1?$basic_ofstream@DU?$char_traits@D@std@@@std@@UAE@XZ 0042b930 f i ContentAnalysis.obj
 0001:0002a9a0       ?open@?$basic_ofstream@DU?$char_traits@D@std@@@std@@QAEXPBDH@Z 0042b9a0 f i ContentAnalysis.obj
 0001:0002a9f0       ?close@?$basic_ofstream@DU?$char_traits@D@std@@@std@@QAEXXZ 0042b9f0 f i ContentAnalysis.obj
 0001:0002aa30       ??1?$basic_filebuf@DU?$char_traits@D@std@@@std@@UAE@XZ 0042ba30 f i ContentAnalysis.obj
 0001:0002aad0       ??1?$basic_streambuf@DU?$char_traits@D@std@@@std@@UAE@XZ 0042bad0 f i ContentAnalysis.obj
 0001:0002ab00       ?overflow@?$basic_streambuf@DU?$char_traits@D@std@@@std@@MAEHH@Z 0042bb00 f i ContentAnalysis.obj
 0001:0002ab20       ?eof@?$char_traits@D@std@@SAHXZ 0042bb20 f i ContentAnalysis.obj
 0001:0002ab40       ?pbackfail@?$basic_streambuf@DU?$char_traits@D@std@@@std@@MAEHH@Z 0042bb40 f i ContentAnalysis.obj
 0001:0002ab60       ?showmanyc@?$basic_streambuf@DU?$char_traits@D@std@@@std@@MAEHXZ 0042bb60 f i ContentAnalysis.obj
 0001:0002ab80       ?underflow@?$basic_streambuf@DU?$char_traits@D@std@@@std@@MAEHXZ 0042bb80 f i ContentAnalysis.obj
 0001:0002aba0       ?uflow@?$basic_streambuf@DU?$char_traits@D@std@@@std@@MAEHXZ 0042bba0 f i ContentAnalysis.obj
 0001:0002ac10       ?to_int_type@?$char_traits@D@std@@SAHABD@Z 0042bc10 f i ContentAnalysis.obj
 0001:0002ac30       ?eq_int_type@?$char_traits@D@std@@SA_NABH0@Z 0042bc30 f i ContentAnalysis.obj
 0001:0002ac50       ?xsgetn@?$basic_streambuf@DU?$char_traits@D@std@@@std@@MAEHPADH@Z 0042bc50 f i ContentAnalysis.obj
 0001:0002ad60       ?to_char_type@?$char_traits@D@std@@SADABH@Z 0042bd60 f i ContentAnalysis.obj
 0001:0002ad80       ?xsputn@?$basic_streambuf@DU?$char_traits@D@std@@@std@@MAEHPBDH@Z 0042bd80 f i ContentAnalysis.obj
 0001:0002ae80       ?seekoff@?$basic_streambuf@DU?$char_traits@D@std@@@std@@MAE?AV?$fpos@H@2@JW4seekdir@ios_base@2@H@Z 0042be80 f i ContentAnalysis.obj
 0001:0002aeb0       ?seekpos@?$basic_streambuf@DU?$char_traits@D@std@@@std@@MAE?AV?$fpos@H@2@V32@H@Z 0042beb0 f i ContentAnalysis.obj
 0001:0002aee0       ?setbuf@?$basic_streambuf@DU?$char_traits@D@std@@@std@@MAEPAV12@PADH@Z 0042bee0 f i ContentAnalysis.obj
 0001:0002af00       ?sync@?$basic_streambuf@DU?$char_traits@D@std@@@std@@MAEHXZ 0042bf00 f i ContentAnalysis.obj
 0001:0002af20       ?imbue@?$basic_streambuf@DU?$char_traits@D@std@@@std@@MAEXABVlocale@2@@Z 0042bf20 f i ContentAnalysis.obj
 0001:0002af40       ?overflow@?$basic_filebuf@DU?$char_traits@D@std@@@std@@MAEHH@Z 0042bf40 f i ContentAnalysis.obj
 0001:0002b150       ?not_eof@?$char_traits@D@std@@SAHABH@Z 0042c150 f i ContentAnalysis.obj
 0001:0002b190       ?_Fputc@std@@YA_NDPAU_iobuf@@@Z 0042c190 f i ContentAnalysis.obj
 0001:0002b1c0       ?pbackfail@?$basic_filebuf@DU?$char_traits@D@std@@@std@@MAEHH@Z 0042c1c0 f i ContentAnalysis.obj
 0001:0002b350       ?_Ungetc@std@@YA_NDPAU_iobuf@@@Z 0042c350 f i ContentAnalysis.obj
 0001:0002b380       ?size@?$basic_string@DU?$char_traits@D@std@@V?$allocator@D@2@@std@@QBEIXZ 0042c380 f i ContentAnalysis.obj
 0001:0002b3a0       ?underflow@?$basic_filebuf@DU?$char_traits@D@std@@@std@@MAEHXZ 0042c3a0 f i ContentAnalysis.obj
 0001:0002b400       ?uflow@?$basic_filebuf@DU?$char_traits@D@std@@@std@@MAEHXZ 0042c400 f i ContentAnalysis.obj
 0001:0002b5a0       ?_Fgetc@std@@YA_NAADPAU_iobuf@@@Z 0042c5a0 f i ContentAnalysis.obj
 0001:0002b5e0       ?seekoff@?$basic_filebuf@DU?$char_traits@D@std@@@std@@MAE?AV?$fpos@H@2@JW4seekdir@ios_base@2@H@Z 0042c5e0 f i ContentAnalysis.obj
 0001:0002b680       ?seekpos@?$basic_filebuf@DU?$char_traits@D@std@@@std@@MAE?AV?$fpos@H@2@V32@H@Z 0042c680 f i ContentAnalysis.obj
 0001:0002b780       ?setbuf@?$basic_filebuf@DU?$char_traits@D@std@@@std@@MAEPAV?$basic_streambuf@DU?$char_traits@D@std@@@2@PADH@Z 0042c780 f i ContentAnalysis.obj
 0001:0002b7d0       ?sync@?$basic_filebuf@DU?$char_traits@D@std@@@std@@MAEHXZ 0042c7d0 f i ContentAnalysis.obj
 0001:0002b820       ??_E?$basic_ostream@DU?$char_traits@D@std@@@std@@UAEPAXI@Z 0042c820 f i ContentAnalysis.obj
 0001:0002b820       ??_G?$basic_ostream@DU?$char_traits@D@std@@@std@@UAEPAXI@Z 0042c820 f i ContentAnalysis.obj
 0001:0002b860       ??_G?$basic_ios@DU?$char_traits@D@std@@@std@@UAEPAXI@Z 0042c860 f i ContentAnalysis.obj
 0001:0002b860       ??_E?$basic_ios@DU?$char_traits@D@std@@@std@@UAEPAXI@Z 0042c860 f i ContentAnalysis.obj
 0001:0002b8a0       ??_G?$basic_streambuf@DU?$char_traits@D@std@@@std@@UAEPAXI@Z 0042c8a0 f i ContentAnalysis.obj
 0001:0002b8a0       ??_E?$basic_streambuf@DU?$char_traits@D@std@@@std@@UAEPAXI@Z 0042c8a0 f i ContentAnalysis.obj
 0001:0002b8e0       ??_E?$basic_ofstream@DU?$char_traits@D@std@@@std@@UAEPAXI@Z 0042c8e0 f i ContentAnalysis.obj
 0001:0002b8e0       ??_G?$basic_ofstream@DU?$char_traits@D@std@@@std@@UAEPAXI@Z 0042c8e0 f i ContentAnalysis.obj
 0001:0002b920       ??_E?$basic_filebuf@DU?$char_traits@D@std@@@std@@UAEPAXI@Z 0042c920 f i ContentAnalysis.obj
 0001:0002b920       ??_G?$basic_filebuf@DU?$char_traits@D@std@@@std@@UAEPAXI@Z 0042c920 f i ContentAnalysis.obj
 0001:0002b960       ??_G?$basic_string@DU?$char_traits@D@std@@V?$allocator@D@2@@std@@QAEPAXI@Z 0042c960 f i ContentAnalysis.obj
 0001:0002b9a0       ??1?$basic_string@DU?$char_traits@D@std@@V?$allocator@D@2@@std@@QAE@XZ 0042c9a0 f i ContentAnalysis.obj
 0001:0002b9c0       ??_D?$basic_ostream@DU?$char_traits@D@std@@@std@@QAEXXZ 0042c9c0 f i ContentAnalysis.obj
 0001:0002b9f0       ?append@?$basic_string@DU?$char_traits@D@std@@V?$allocator@D@2@@std@@QAEAAV12@ID@Z 0042c9f0 f i ContentAnalysis.obj
 0001:0002ba70       ?assign@?$char_traits@D@std@@SAPADPADIABD@Z 0042ca70 f i ContentAnalysis.obj
 0001:0002baa0       ?erase@?$basic_string@DU?$char_traits@D@std@@V?$allocator@D@2@@std@@QAEAAV12@II@Z 0042caa0 f i ContentAnalysis.obj
 0001:0002bb50       ?move@?$char_traits@D@std@@SAPADPADPBDI@Z 0042cb50 f i ContentAnalysis.obj
 0001:0002bb80       ?begin@?$basic_string@DU?$char_traits@D@std@@V?$allocator@D@2@@std@@QAEPADXZ 0042cb80 f i ContentAnalysis.obj
 0001:0002bbb0       ?end@?$basic_string@DU?$char_traits@D@std@@V?$allocator@D@2@@std@@QAEPADXZ 0042cbb0 f i ContentAnalysis.obj
 0001:0002bbf0       ??0?$basic_ostream@DU?$char_traits@D@std@@@std@@QAE@PAV?$basic_streambuf@DU?$char_traits@D@std@@@1@_N1@Z 0042cbf0 f i ContentAnalysis.obj
 0001:0002bca0       ?clear@?$basic_ios@DU?$char_traits@D@std@@@std@@QAEXH_N@Z 0042cca0 f i ContentAnalysis.obj
 0001:0002bce0       ?fill@?$basic_ios@DU?$char_traits@D@std@@@std@@QBEDXZ 0042cce0 f i ContentAnalysis.obj
 0001:0002bd00       ??0?$basic_ios@DU?$char_traits@D@std@@@std@@IAE@XZ 0042cd00 f i ContentAnalysis.obj
 0001:0002bd30       ??0ios_base@std@@IAE@XZ    0042cd30 f i ContentAnalysis.obj
 0001:0002bd70       ??0locale@std@@QAE@W4_Uninitialized@1@@Z 0042cd70 f i ContentAnalysis.obj
 0001:0002bd90       ??_Gios_base@std@@UAEPAXI@Z 0042cd90 f i ContentAnalysis.obj
 0001:0002bd90       ??_Eios_base@std@@UAEPAXI@Z 0042cd90 f i ContentAnalysis.obj
 0001:0002bdd0       ??0sentry@?$basic_ostream@DU?$char_traits@D@std@@@std@@QAE@AAV12@@Z 0042cdd0 f i ContentAnalysis.obj
 0001:0002be00       ??1sentry@?$basic_ostream@DU?$char_traits@D@std@@@std@@QAE@XZ 0042ce00 f i ContentAnalysis.obj
 0001:0002be30       ??Bsentry@?$basic_ostream@DU?$char_traits@D@std@@@std@@QBE_NXZ 0042ce30 f i ContentAnalysis.obj
 0001:0002be50       ??0?$fpos@H@std@@QAE@J@Z   0042ce50 f i ContentAnalysis.obj
 0001:0002bea0       ??0?$fpos@H@std@@QAE@H_J@Z 0042cea0 f i ContentAnalysis.obj
 0001:0002bee0       ?state@?$fpos@H@std@@QBEHXZ 0042cee0 f i ContentAnalysis.obj
 0001:0002bf00       ?get_fpos_t@?$fpos@H@std@@QBE_JXZ 0042cf00 f i ContentAnalysis.obj
 0001:0002bf20       ??B?$fpos@H@std@@QBEJXZ    0042cf20 f i ContentAnalysis.obj
 0001:0002bf40       ?eback@?$basic_streambuf@DU?$char_traits@D@std@@@std@@IBEPADXZ 0042cf40 f i ContentAnalysis.obj
 0001:0002bf60       ?gptr@?$basic_streambuf@DU?$char_traits@D@std@@@std@@IBEPADXZ 0042cf60 f i ContentAnalysis.obj
 0001:0002bf80       ?pptr@?$basic_streambuf@DU?$char_traits@D@std@@@std@@IBEPADXZ 0042cf80 f i ContentAnalysis.obj
 0001:0002bfa0       ?egptr@?$basic_streambuf@DU?$char_traits@D@std@@@std@@IBEPADXZ 0042cfa0 f i ContentAnalysis.obj
 0001:0002bfd0       ?gbump@?$basic_streambuf@DU?$char_traits@D@std@@@std@@IAEXH@Z 0042cfd0 f i ContentAnalysis.obj
 0001:0002c010       ?epptr@?$basic_streambuf@DU?$char_traits@D@std@@@std@@IBEPADXZ 0042d010 f i ContentAnalysis.obj
 0001:0002c040       ?_Gndec@?$basic_streambuf@DU?$char_traits@D@std@@@std@@IAEPADXZ 0042d040 f i ContentAnalysis.obj
 0001:0002c090       ?_Gninc@?$basic_streambuf@DU?$char_traits@D@std@@@std@@IAEPADXZ 0042d090 f i ContentAnalysis.obj
 0001:0002c0e0       ?pbump@?$basic_streambuf@DU?$char_traits@D@std@@@std@@IAEXH@Z 0042d0e0 f i ContentAnalysis.obj
 0001:0002c120       ?_Pninc@?$basic_streambuf@DU?$char_traits@D@std@@@std@@IAEPADXZ 0042d120 f i ContentAnalysis.obj
 0001:0002c170       ??0?$_Tree@VCString@@U?$pair@$$CBVCString@@H@std@@U_Kfn@?$map@VCString@@HU?$less@VCString@@@std@@V?$allocator@H@3@@3@U?$less@VCString@@@3@V?$allocator@H@3@@std@@QAE@ABU?$less@VCString@@@1@_NABV?$allocator@H@1@@Z 0042d170 f i ContentAnalysis.obj
 0001:0002c1b0       ?begin@?$_Tree@VCString@@U?$pair@$$CBVCString@@H@std@@U_Kfn@?$map@VCString@@HU?$less@VCString@@@std@@V?$allocator@H@3@@3@U?$less@VCString@@@3@V?$allocator@H@3@@std@@QAE?AViterator@12@XZ 0042d1b0 f i ContentAnalysis.obj
 0001:0002c1f0       ?end@?$_Tree@VCString@@U?$pair@$$CBVCString@@H@std@@U_Kfn@?$map@VCString@@HU?$less@VCString@@@std@@V?$allocator@H@3@@3@U?$less@VCString@@@3@V?$allocator@H@3@@std@@QAE?AViterator@12@XZ 0042d1f0 f i ContentAnalysis.obj
 0001:0002c220       ?insert@?$_Tree@VCString@@U?$pair@$$CBVCString@@H@std@@U_Kfn@?$map@VCString@@HU?$less@VCString@@@std@@V?$allocator@H@3@@3@U?$less@VCString@@@3@V?$allocator@H@3@@std@@QAE?AU?$pair@Viterator@?$_Tree@VCString@@U?$pair@$$CBVCString@@H@std@@U_Kfn@?$map@VCString@@HU?$less@VCString@@@std@@V?$allocator@H@3@@3@U?$less@VCString@@@3@V?$allocator@H@3@@std@@_N@2@ABU?$pair@$$CBVCString@@H@2@@Z 0042d220 f i ContentAnalysis.obj
 0001:0002c430       ?erase@?$_Tree@VCString@@U?$pair@$$CBVCString@@H@std@@U_Kfn@?$map@VCString@@HU?$less@VCString@@@std@@V?$allocator@H@3@@3@U?$less@VCString@@@3@V?$allocator@H@3@@std@@QAE?AViterator@12@V312@0@Z 0042d430 f i ContentAnalysis.obj
 0001:0002c540       ?count@?$_Tree@VCString@@U?$pair@$$CBVCString@@H@std@@U_Kfn@?$map@VCString@@HU?$less@VCString@@@std@@V?$allocator@H@3@@3@U?$less@VCString@@@3@V?$allocator@H@3@@std@@QBEIABVCString@@@Z 0042d540 f i ContentAnalysis.obj
 0001:0002c590       ?_Freenode@?$_Tree@VCString@@U?$pair@$$CBVCString@@H@std@@U_Kfn@?$map@VCString@@HU?$less@VCString@@@std@@V?$allocator@H@3@@3@U?$less@VCString@@@3@V?$allocator@H@3@@std@@IAEXPAU_Node@12@@Z 0042d590 f i ContentAnalysis.obj
 0001:0002c5c0       ??0?$pair@$$CBVCString@@H@std@@QAE@ABVCString@@ABH@Z 0042d5c0 f i ContentAnalysis.obj
 0001:0002c5f0       ??Diterator@?$_Tree@VCString@@U?$pair@$$CBVCString@@H@std@@U_Kfn@?$map@VCString@@HU?$less@VCString@@@std@@V?$allocator@H@3@@3@U?$less@VCString@@@3@V?$allocator@H@3@@std@@QBEAAU?$pair@$$CBVCString@@H@2@XZ 0042d5f0 f i ContentAnalysis.obj
 0001:0002c620       ??Eiterator@?$_Tree@VCString@@U?$pair@$$CBVCString@@H@std@@U_Kfn@?$map@VCString@@HU?$less@VCString@@@std@@V?$allocator@H@3@@3@U?$less@VCString@@@3@V?$allocator@H@3@@std@@QAEAAV012@XZ 0042d620 f i ContentAnalysis.obj
 0001:0002c640       ??8iterator@?$_Tree@VCString@@U?$pair@$$CBVCString@@H@std@@U_Kfn@?$map@VCString@@HU?$less@VCString@@@std@@V?$allocator@H@3@@3@U?$less@VCString@@@3@V?$allocator@H@3@@std@@QBE_NABV012@@Z 0042d640 f i ContentAnalysis.obj
 0001:0002c670       ??0?$pair@Viterator@?$_Tree@VCString@@U?$pair@$$CBVCString@@H@std@@U_Kfn@?$map@VCString@@HU?$less@VCString@@@std@@V?$allocator@H@3@@3@U?$less@VCString@@@3@V?$allocator@H@3@@std@@_N@std@@QAE@ABViterator@?$_Tree@VCString@@U?$pair@$$CBVCString@@H@std@@U_Kfn@?$map@VCString@@HU?$less@VCString@@@std@@V?$allocator@H@3@@3@U?$less@VCString@@@3@V?$allocator@H@3@@1@AB_N@Z 0042d670 f i ContentAnalysis.obj
 0001:0002c6a0       ??0?$basic_filebuf@DU?$char_traits@D@std@@@std@@QAE@PAU_iobuf@@@Z 0042d6a0 f i ContentAnalysis.obj
 0001:0002c720       ??0locale@std@@QAE@XZ      0042d720 f i ContentAnalysis.obj
 0001:0002c760       ?open@?$basic_filebuf@DU?$char_traits@D@std@@@std@@QAEPAV12@PBDH@Z 0042d760 f i ContentAnalysis.obj
 0001:0002c7c0       ?close@?$basic_filebuf@DU?$char_traits@D@std@@@std@@QAEPAV12@XZ 0042d7c0 f i ContentAnalysis.obj
 0001:0002c810       ?put@?$num_put@DV?$ostreambuf_iterator@DU?$char_traits@D@std@@@std@@@std@@QBE?AV?$ostreambuf_iterator@DU?$char_traits@D@std@@@2@V32@AAVios_base@2@DPBX@Z 0042d810 f i ContentAnalysis.obj
 0001:0002c860       ??0?$ostreambuf_iterator@DU?$char_traits@D@std@@@std@@QAE@PAV?$basic_streambuf@DU?$char_traits@D@std@@@1@@Z 0042d860 f i ContentAnalysis.obj
 0001:0002c890       ?failed@?$ostreambuf_iterator@DU?$char_traits@D@std@@@std@@QBE_NXZ 0042d890 f i ContentAnalysis.obj
 0001:0002c8b0       ?in@?$codecvt@DDH@std@@QBEHAAHPBD1AAPBDPAD3AAPAD@Z 0042d8b0 f i ContentAnalysis.obj
 0001:0002c8f0       ?out@?$codecvt@DDH@std@@QBEHAAHPBD1AAPBDPAD3AAPAD@Z 0042d8f0 f i ContentAnalysis.obj
 0001:0002c930       ?_Freeze@?$basic_string@DU?$char_traits@D@std@@V?$allocator@D@2@@std@@AAEXXZ 0042d930 f i ContentAnalysis.obj
 0001:0002c9b0       ?_Psum@?$basic_string@DU?$char_traits@D@std@@V?$allocator@D@2@@std@@CAPADPADI@Z 0042d9b0 f i ContentAnalysis.obj
 0001:0002c9e0       ?_Split@?$basic_string@DU?$char_traits@D@std@@V?$allocator@D@2@@std@@AAEXXZ 0042d9e0 f i ContentAnalysis.obj
 0001:0002ca50       ?opfx@?$basic_ostream@DU?$char_traits@D@std@@@std@@QAE_NXZ 0042da50 f i ContentAnalysis.obj
 0001:0002cac0       ?good@ios_base@std@@QBE_NXZ 0042dac0 f i ContentAnalysis.obj
 0001:0002cae0       ?flush@?$basic_ostream@DU?$char_traits@D@std@@@std@@QAEAAV12@XZ 0042dae0 f i ContentAnalysis.obj
 0001:0002cb60       ?fail@ios_base@std@@QBE_NXZ 0042db60 f i ContentAnalysis.obj
 0001:0002cb90       ?pubsync@?$basic_streambuf@DU?$char_traits@D@std@@@std@@QAEHXZ 0042db90 f i ContentAnalysis.obj
 0001:0002cbb0       ?osfx@?$basic_ostream@DU?$char_traits@D@std@@@std@@QAEXXZ 0042dbb0 f i ContentAnalysis.obj
 0001:0002cbf0       ?flags@ios_base@std@@QBEHXZ 0042dbf0 f i ContentAnalysis.obj
 0001:0002cc10       ?tie@?$basic_ios@DU?$char_traits@D@std@@@std@@QBEPAV?$basic_ostream@DU?$char_traits@D@std@@@2@XZ 0042dc10 f i ContentAnalysis.obj
 0001:0002cc30       ?init@?$basic_ios@DU?$char_traits@D@std@@@std@@IAEXPAV?$basic_streambuf@DU?$char_traits@D@std@@@2@_N@Z 0042dc30 f i ContentAnalysis.obj
 0001:0002cca0       ??0?$basic_streambuf@DU?$char_traits@D@std@@@std@@IAE@XZ 0042dca0 f i ContentAnalysis.obj
 0001:0002cd00       ??R_Kfn@?$map@VCString@@HU?$less@VCString@@@std@@V?$allocator@H@3@@std@@QBEABVCString@@ABU?$pair@$$CBVCString@@H@2@@Z 0042dd00 f i ContentAnalysis.obj
 0001:0002cd20       ?deallocate@?$allocator@H@std@@QAEXPAXI@Z 0042dd20 f i ContentAnalysis.obj
 0001:0002cd50       ?_Key@?$_Tree@VCString@@U?$pair@$$CBVCString@@H@std@@U_Kfn@?$map@VCString@@HU?$less@VCString@@@std@@V?$allocator@H@3@@3@U?$less@VCString@@@3@V?$allocator@H@3@@std@@KAABVCString@@PAU_Node@12@@Z 0042dd50 f i ContentAnalysis.obj
 0001:0002cd80       ?_Left@?$_Tree@VCString@@U?$pair@$$CBVCString@@H@std@@U_Kfn@?$map@VCString@@HU?$less@VCString@@@std@@V?$allocator@H@3@@3@U?$less@VCString@@@3@V?$allocator@H@3@@std@@KAAAPAU_Node@12@PAU312@@Z 0042dd80 f i ContentAnalysis.obj
 0001:0002cda0       ?_Right@?$_Tree@VCString@@U?$pair@$$CBVCString@@H@std@@U_Kfn@?$map@VCString@@HU?$less@VCString@@@std@@V?$allocator@H@3@@3@U?$less@VCString@@@3@V?$allocator@H@3@@std@@KAAAPAU_Node@12@PAU312@@Z 0042dda0 f i ContentAnalysis.obj
 0001:0002cdc0       ?_Value@?$_Tree@VCString@@U?$pair@$$CBVCString@@H@std@@U_Kfn@?$map@VCString@@HU?$less@VCString@@@std@@V?$allocator@H@3@@3@U?$less@VCString@@@3@V?$allocator@H@3@@std@@KAAAU?$pair@$$CBVCString@@H@2@PAU_Node@12@@Z 0042ddc0 f i ContentAnalysis.obj
 0001:0002cde0       ?size@?$_Tree@VCString@@U?$pair@$$CBVCString@@H@std@@U_Kfn@?$map@VCString@@HU?$less@VCString@@@std@@V?$allocator@H@3@@3@U?$less@VCString@@@3@V?$allocator@H@3@@std@@QBEIXZ 0042dde0 f i ContentAnalysis.obj
 0001:0002ce00       ?erase@?$_Tree@VCString@@U?$pair@$$CBVCString@@H@std@@U_Kfn@?$map@VCString@@HU?$less@VCString@@@std@@V?$allocator@H@3@@3@U?$less@VCString@@@3@V?$allocator@H@3@@std@@QAE?AViterator@12@V312@@Z 0042de00 f i ContentAnalysis.obj
 0001:0002d650       ?equal_range@?$_Tree@VCString@@U?$pair@$$CBVCString@@H@std@@U_Kfn@?$map@VCString@@HU?$less@VCString@@@std@@V?$allocator@H@3@@3@U?$less@VCString@@@3@V?$allocator@H@3@@std@@QBE?AU?$pair@Vconst_iterator@?$_Tree@VCString@@U?$pair@$$CBVCString@@H@std@@U_Kfn@?$map@VCString@@HU?$less@VCString@@@std@@V?$allocator@H@3@@3@U?$less@VCString@@@3@V?$allocator@H@3@@std@@V123@@2@ABVCString@@@Z 0042e650 f i ContentAnalysis.obj
 0001:0002d6a0       ?_Erase@?$_Tree@VCString@@U?$pair@$$CBVCString@@H@std@@U_Kfn@?$map@VCString@@HU?$less@VCString@@@std@@V?$allocator@H@3@@3@U?$less@VCString@@@3@V?$allocator@H@3@@std@@IAEXPAU_Node@12@@Z 0042e6a0 f i ContentAnalysis.obj
 0001:0002d720       ?_Init@?$_Tree@VCString@@U?$pair@$$CBVCString@@H@std@@U_Kfn@?$map@VCString@@HU?$less@VCString@@@std@@V?$allocator@H@3@@3@U?$less@VCString@@@3@V?$allocator@H@3@@std@@IAEXXZ 0042e720 f i ContentAnalysis.obj
 0001:0002d830       ?_Insert@?$_Tree@VCString@@U?$pair@$$CBVCString@@H@std@@U_Kfn@?$map@VCString@@HU?$less@VCString@@@std@@V?$allocator@H@3@@3@U?$less@VCString@@@3@V?$allocator@H@3@@std@@IAE?AViterator@12@PAU_Node@12@0ABU?$pair@$$CBVCString@@H@2@@Z 0042e830 f i ContentAnalysis.obj
 0001:0002dcc0       ?_Lmost@?$_Tree@VCString@@U?$pair@$$CBVCString@@H@std@@U_Kfn@?$map@VCString@@HU?$less@VCString@@@std@@V?$allocator@H@3@@3@U?$less@VCString@@@3@V?$allocator@H@3@@std@@IAEAAPAU_Node@12@XZ 0042ecc0 f i ContentAnalysis.obj
 0001:0002dcf0       ?_Rmost@?$_Tree@VCString@@U?$pair@$$CBVCString@@H@std@@U_Kfn@?$map@VCString@@HU?$less@VCString@@@std@@V?$allocator@H@3@@3@U?$less@VCString@@@3@V?$allocator@H@3@@std@@IAEAAPAU_Node@12@XZ 0042ecf0 f i ContentAnalysis.obj
 0001:0002dd20       ?_Root@?$_Tree@VCString@@U?$pair@$$CBVCString@@H@std@@U_Kfn@?$map@VCString@@HU?$less@VCString@@@std@@V?$allocator@H@3@@3@U?$less@VCString@@@3@V?$allocator@H@3@@std@@IAEAAPAU_Node@12@XZ 0042ed20 f i ContentAnalysis.obj
 0001:0002dd50       ?_Inc@const_iterator@?$_Tree@VCString@@U?$pair@$$CBVCString@@H@std@@U_Kfn@?$map@VCString@@HU?$less@VCString@@@std@@V?$allocator@H@3@@3@U?$less@VCString@@@3@V?$allocator@H@3@@std@@QAEXXZ 0042ed50 f i ContentAnalysis.obj
 0001:0002ddf0       ?_Mynode@const_iterator@?$_Tree@VCString@@U?$pair@$$CBVCString@@H@std@@U_Kfn@?$map@VCString@@HU?$less@VCString@@@std@@V?$allocator@H@3@@3@U?$less@VCString@@@3@V?$allocator@H@3@@std@@QBEPAU_Node@23@XZ 0042edf0 f i ContentAnalysis.obj
 0001:0002de10       ??0iterator@?$_Tree@VCString@@U?$pair@$$CBVCString@@H@std@@U_Kfn@?$map@VCString@@HU?$less@VCString@@@std@@V?$allocator@H@3@@3@U?$less@VCString@@@3@V?$allocator@H@3@@std@@QAE@PAU_Node@12@@Z 0042ee10 f i ContentAnalysis.obj
 0001:0002de40       ??Fiterator@?$_Tree@VCString@@U?$pair@$$CBVCString@@H@std@@U_Kfn@?$map@VCString@@HU?$less@VCString@@@std@@V?$allocator@H@3@@3@U?$less@VCString@@@3@V?$allocator@H@3@@std@@QAEAAV012@XZ 0042ee40 f i ContentAnalysis.obj
 0001:0002de60       ?_Init@?$basic_filebuf@DU?$char_traits@D@std@@@std@@IAEXPAU_iobuf@@W4_Initfl@12@@Z 0042ee60 f i ContentAnalysis.obj
 0001:0002df50       ?_Initcvt@?$basic_filebuf@DU?$char_traits@D@std@@@std@@IAEXXZ 0042ef50 f i ContentAnalysis.obj
 0001:0002e080       ??4locale@std@@QAEAAV01@ABV01@@Z 0042f080 f i ContentAnalysis.obj
 0001:0002e0f0       ?always_noconv@codecvt_base@std@@QBE_NXZ 0042f0f0 f i ContentAnalysis.obj
 0001:0002e110       ??0?$basic_string@DU?$char_traits@D@std@@V?$allocator@D@2@@std@@QAE@ABV?$allocator@D@1@@Z 0042f110 f i ContentAnalysis.obj
 0001:0002e140       ?getloc@?$basic_streambuf@DU?$char_traits@D@std@@@std@@QAE?AVlocale@2@XZ 0042f140 f i ContentAnalysis.obj
 0001:0002e180       ?_Init@?$basic_streambuf@DU?$char_traits@D@std@@@std@@IAEXXZ 0042f180 f i ContentAnalysis.obj
 0001:0002e200       ?_Init@?$basic_streambuf@DU?$char_traits@D@std@@@std@@IAEXPAPAD0PAH001@Z 0042f200 f i ContentAnalysis.obj
 0001:0002e250       ?_Color@?$_Tree@VCString@@U?$pair@$$CBVCString@@H@std@@U_Kfn@?$map@VCString@@HU?$less@VCString@@@std@@V?$allocator@H@3@@3@U?$less@VCString@@@3@V?$allocator@H@3@@std@@KAAAW4_Redbl@12@PAU_Node@12@@Z 0042f250 f i ContentAnalysis.obj
 0001:0002e270       ?_Parent@?$_Tree@VCString@@U?$pair@$$CBVCString@@H@std@@U_Kfn@?$map@VCString@@HU?$less@VCString@@@std@@V?$allocator@H@3@@3@U?$less@VCString@@@3@V?$allocator@H@3@@std@@KAAAPAU_Node@12@PAU312@@Z 0042f270 f i ContentAnalysis.obj
 0001:0002e290       ?lower_bound@?$_Tree@VCString@@U?$pair@$$CBVCString@@H@std@@U_Kfn@?$map@VCString@@HU?$less@VCString@@@std@@V?$allocator@H@3@@3@U?$less@VCString@@@3@V?$allocator@H@3@@std@@QBE?AVconst_iterator@12@ABVCString@@@Z 0042f290 f i ContentAnalysis.obj
 0001:0002e2d0       ?upper_bound@?$_Tree@VCString@@U?$pair@$$CBVCString@@H@std@@U_Kfn@?$map@VCString@@HU?$less@VCString@@@std@@V?$allocator@H@3@@3@U?$less@VCString@@@3@V?$allocator@H@3@@std@@QBE?AVconst_iterator@12@ABVCString@@@Z 0042f2d0 f i ContentAnalysis.obj
 0001:0002e310       ?_Lrotate@?$_Tree@VCString@@U?$pair@$$CBVCString@@H@std@@U_Kfn@?$map@VCString@@HU?$less@VCString@@@std@@V?$allocator@H@3@@3@U?$less@VCString@@@3@V?$allocator@H@3@@std@@IAEXPAU_Node@12@@Z 0042f310 f i ContentAnalysis.obj
 0001:0002e440       ?_Max@?$_Tree@VCString@@U?$pair@$$CBVCString@@H@std@@U_Kfn@?$map@VCString@@HU?$less@VCString@@@std@@V?$allocator@H@3@@3@U?$less@VCString@@@3@V?$allocator@H@3@@std@@KAPAU_Node@12@PAU312@@Z 0042f440 f i ContentAnalysis.obj
 0001:0002e480       ?_Min@?$_Tree@VCString@@U?$pair@$$CBVCString@@H@std@@U_Kfn@?$map@VCString@@HU?$less@VCString@@@std@@V?$allocator@H@3@@3@U?$less@VCString@@@3@V?$allocator@H@3@@std@@KAPAU_Node@12@PAU312@@Z 0042f480 f i ContentAnalysis.obj
 0001:0002e4c0       ?_Rrotate@?$_Tree@VCString@@U?$pair@$$CBVCString@@H@std@@U_Kfn@?$map@VCString@@HU?$less@VCString@@@std@@V?$allocator@H@3@@3@U?$less@VCString@@@3@V?$allocator@H@3@@std@@IAEXPAU_Node@12@@Z 0042f4c0 f i ContentAnalysis.obj
 0001:0002e5f0       ?_Buynode@?$_Tree@VCString@@U?$pair@$$CBVCString@@H@std@@U_Kfn@?$map@VCString@@HU?$less@VCString@@@std@@V?$allocator@H@3@@3@U?$less@VCString@@@3@V?$allocator@H@3@@std@@IAEPAU_Node@12@PAU312@W4_Redbl@12@@Z 0042f5f0 f i ContentAnalysis.obj
 0001:0002e640       ?_Consval@?$_Tree@VCString@@U?$pair@$$CBVCString@@H@std@@U_Kfn@?$map@VCString@@HU?$less@VCString@@@std@@V?$allocator@H@3@@3@U?$less@VCString@@@3@V?$allocator@H@3@@std@@IAEXPAU?$pair@$$CBVCString@@H@2@ABU32@@Z 0042f640 f i ContentAnalysis.obj
 0001:0002e670       ?_Destval@?$_Tree@VCString@@U?$pair@$$CBVCString@@H@std@@U_Kfn@?$map@VCString@@HU?$less@VCString@@@std@@V?$allocator@H@3@@3@U?$less@VCString@@@3@V?$allocator@H@3@@std@@IAEXPAU?$pair@$$CBVCString@@H@2@@Z 0042f670 f i ContentAnalysis.obj
 0001:0002e6a0       ??0const_iterator@?$_Tree@VCString@@U?$pair@$$CBVCString@@H@std@@U_Kfn@?$map@VCString@@HU?$less@VCString@@@std@@V?$allocator@H@3@@3@U?$less@VCString@@@3@V?$allocator@H@3@@std@@QAE@PAU_Node@12@@Z 0042f6a0 f i ContentAnalysis.obj
 0001:0002e6c0       ?_Dec@const_iterator@?$_Tree@VCString@@U?$pair@$$CBVCString@@H@std@@U_Kfn@?$map@VCString@@HU?$less@VCString@@@std@@V?$allocator@H@3@@3@U?$less@VCString@@@3@V?$allocator@H@3@@std@@QAEXXZ 0042f6c0 f i ContentAnalysis.obj
 0001:0002e7a0       ??0?$pair@Vconst_iterator@?$_Tree@VCString@@U?$pair@$$CBVCString@@H@std@@U_Kfn@?$map@VCString@@HU?$less@VCString@@@std@@V?$allocator@H@3@@3@U?$less@VCString@@@3@V?$allocator@H@3@@std@@V123@@std@@QAE@ABVconst_iterator@?$_Tree@VCString@@U?$pair@$$CBVCString@@H@std@@U_Kfn@?$map@VCString@@HU?$less@VCString@@@std@@V?$allocator@H@3@@3@U?$less@VCString@@@3@V?$allocator@H@3@@1@0@Z 0042f7a0 f i ContentAnalysis.obj
 0001:0002e7d0       ?setg@?$basic_streambuf@DU?$char_traits@D@std@@@std@@IAEXPAD00@Z 0042f7d0 f i ContentAnalysis.obj
 0001:0002e810       ?setp@?$basic_streambuf@DU?$char_traits@D@std@@@std@@IAEXPAD0@Z 0042f810 f i ContentAnalysis.obj
 0001:0002e850       ?_Charalloc@?$allocator@H@std@@QAEPADI@Z 0042f850 f i ContentAnalysis.obj
 0001:0002e880       ?_Lbound@?$_Tree@VCString@@U?$pair@$$CBVCString@@H@std@@U_Kfn@?$map@VCString@@HU?$less@VCString@@@std@@V?$allocator@H@3@@3@U?$less@VCString@@@3@V?$allocator@H@3@@std@@IBEPAU_Node@12@ABVCString@@@Z 0042f880 f i ContentAnalysis.obj
 0001:0002e910       ?_Ubound@?$_Tree@VCString@@U?$pair@$$CBVCString@@H@std@@U_Kfn@?$map@VCString@@HU?$less@VCString@@@std@@V?$allocator@H@3@@3@U?$less@VCString@@@3@V?$allocator@H@3@@std@@IBEPAU_Node@12@ABVCString@@@Z 0042f910 f i ContentAnalysis.obj
 0001:0002e9a0       ??0const_iterator@?$_Tree@VCString@@U?$pair@$$CBVCString@@H@std@@U_Kfn@?$map@VCString@@HU?$less@VCString@@@std@@V?$allocator@H@3@@3@U?$less@VCString@@@3@V?$allocator@H@3@@std@@QAE@ABViterator@12@@Z 0042f9a0 f i ContentAnalysis.obj
 0001:0002e9d0       ?_Root@?$_Tree@VCString@@U?$pair@$$CBVCString@@H@std@@U_Kfn@?$map@VCString@@HU?$less@VCString@@@std@@V?$allocator@H@3@@3@U?$less@VCString@@@3@V?$allocator@H@3@@std@@IBEAAPAU_Node@12@XZ 0042f9d0 f i ContentAnalysis.obj
 0001:0002ea00       ??0?$pair@$$CBVCString@@H@std@@QAE@ABU?$pair@VCString@@H@1@@Z 0042fa00 f i ContentAnalysis.obj
 0001:0002ea30       ?use_facet@std@@YAABV?$num_put@DV?$ostreambuf_iterator@DU?$char_traits@D@std@@@std@@@1@ABVlocale@1@PBV21@_N@Z 0042fa30 f i ContentAnalysis.obj
 0001:0002eb50       ??0bad_cast@std@@QAE@PBD@Z 0042fb50 f i ContentAnalysis.obj
 0001:0002eb80       ??1bad_cast@std@@UAE@XZ    0042fb80 f i ContentAnalysis.obj
 0001:0002ebb0       ?_Doraise@bad_cast@std@@MBEXXZ 0042fbb0 f i ContentAnalysis.obj
 0001:0002ebe0       ??_Ebad_cast@std@@UAEPAXI@Z 0042fbe0 f i ContentAnalysis.obj
 0001:0002ebe0       ??_Gbad_cast@std@@UAEPAXI@Z 0042fbe0 f i ContentAnalysis.obj
 0001:0002ec20       ??0bad_cast@std@@QAE@ABV01@@Z 0042fc20 f i ContentAnalysis.obj
 0001:0002ec50       ??Bid@locale@std@@QAEIXZ   0042fc50 f i ContentAnalysis.obj
 0001:0002eca0       ?_Ungetc@std@@YA_NABDPAU_iobuf@@I@Z 0042fca0 f i ContentAnalysis.obj
 0001:0002ed20       ?_Distance@std@@YAXVconst_iterator@?$_Tree@VCString@@U?$pair@$$CBVCString@@H@std@@U_Kfn@?$map@VCString@@HU?$less@VCString@@@std@@V?$allocator@H@3@@3@U?$less@VCString@@@3@V?$allocator@H@3@@1@0AAI@Z 0042fd20 f i ContentAnalysis.obj
 0001:0002ed60       ?_Widen@std@@YADDPAD@Z     0042fd60 f i ContentAnalysis.obj
 0001:0002ed80       ?swap@std@@YAXAAW4_Redbl@?$_Tree@VCString@@U?$pair@$$CBVCString@@H@std@@U_Kfn@?$map@VCString@@HU?$less@VCString@@@std@@V?$allocator@H@3@@3@U?$less@VCString@@@3@V?$allocator@H@3@@1@0@Z 0042fd80 f i ContentAnalysis.obj
 0001:0002edb0       ?use_facet@std@@YAABV?$codecvt@DDH@1@ABVlocale@1@PBV21@_N@Z 0042fdb0 f i ContentAnalysis.obj
 0001:0002eed0       ?_Addfac@std@@YA?AVlocale@1@V21@PAV?$codecvt@DDH@1@@Z 0042fed0 f i ContentAnalysis.obj
 0001:0002ef70       ?_Construct@std@@YAXPAU?$pair@$$CBVCString@@H@1@ABU21@@Z 0042ff70 f i ContentAnalysis.obj
 0001:0002eff0       ?_Destroy@std@@YAXPAU?$pair@$$CBVCString@@H@1@@Z 0042fff0 f i ContentAnalysis.obj
 0001:0002f010       ??0?$pair@$$CBVCString@@H@std@@QAE@ABU01@@Z 00430010 f i ContentAnalysis.obj
 0001:0002f040       ??_G?$pair@$$CBVCString@@H@std@@QAEPAXI@Z 00430040 f i ContentAnalysis.obj
 0001:0002f080       ??0?$num_put@DV?$ostreambuf_iterator@DU?$char_traits@D@std@@@std@@@std@@QAE@I@Z 00430080 f i ContentAnalysis.obj
 0001:0002f110       ??1facet@locale@std@@UAE@XZ 00430110 f i ContentAnalysis.obj
 0001:0002f130       ??0facet@locale@std@@IAE@I@Z 00430130 f i ContentAnalysis.obj
 0001:0002f160       ??_Gfacet@locale@std@@UAEPAXI@Z 00430160 f i ContentAnalysis.obj
 0001:0002f160       ??_Efacet@locale@std@@UAEPAXI@Z 00430160 f i ContentAnalysis.obj
 0001:0002f1a0       ?do_put@?$num_put@DV?$ostreambuf_iterator@DU?$char_traits@D@std@@@std@@@std@@MBE?AV?$ostreambuf_iterator@DU?$char_traits@D@std@@@2@V32@AAVios_base@2@D_N@Z 004301a0 f i ContentAnalysis.obj
 0001:0002f3f0       ?width@ios_base@std@@QBEHXZ 004303f0 f i ContentAnalysis.obj
 0001:0002f410       ?width@ios_base@std@@QAEHH@Z 00430410 f i ContentAnalysis.obj
 0001:0002f440       ?c_str@?$basic_string@DU?$char_traits@D@std@@V?$allocator@D@2@@std@@QBEPBDXZ 00430440 f i ContentAnalysis.obj
 0001:0002f480       ?_Nullstr@?$basic_string@DU?$char_traits@D@std@@V?$allocator@D@2@@std@@CAPBDXZ 00430480 f i ContentAnalysis.obj
 0001:0002f4a0       ?do_put@?$num_put@DV?$ostreambuf_iterator@DU?$char_traits@D@std@@@std@@@std@@MBE?AV?$ostreambuf_iterator@DU?$char_traits@D@std@@@2@V32@AAVios_base@2@DJ@Z 004304a0 f i ContentAnalysis.obj
 0001:0002f520       ?do_put@?$num_put@DV?$ostreambuf_iterator@DU?$char_traits@D@std@@@std@@@std@@MBE?AV?$ostreambuf_iterator@DU?$char_traits@D@std@@@2@V32@AAVios_base@2@DK@Z 00430520 f i ContentAnalysis.obj
 0001:0002f5a0       ?do_put@?$num_put@DV?$ostreambuf_iterator@DU?$char_traits@D@std@@@std@@@std@@MBE?AV?$ostreambuf_iterator@DU?$char_traits@D@std@@@2@V32@AAVios_base@2@DN@Z 004305a0 f i ContentAnalysis.obj
 0001:0002f680       ?precision@ios_base@std@@QBEHXZ 00430680 f i ContentAnalysis.obj
 0001:0002f6a0       ?do_put@?$num_put@DV?$ostreambuf_iterator@DU?$char_traits@D@std@@@std@@@std@@MBE?AV?$ostreambuf_iterator@DU?$char_traits@D@std@@@2@V32@AAVios_base@2@DO@Z 004306a0 f i ContentAnalysis.obj
 0001:0002f780       ?do_put@?$num_put@DV?$ostreambuf_iterator@DU?$char_traits@D@std@@@std@@@std@@MBE?AV?$ostreambuf_iterator@DU?$char_traits@D@std@@@2@V32@AAVios_base@2@DPBX@Z 00430780 f i ContentAnalysis.obj
 0001:0002f890       ??_E?$num_put@DV?$ostreambuf_iterator@DU?$char_traits@D@std@@@std@@@std@@UAEPAXI@Z 00430890 f i ContentAnalysis.obj
 0001:0002f890       ??_G?$num_put@DV?$ostreambuf_iterator@DU?$char_traits@D@std@@@std@@@std@@UAEPAXI@Z 00430890 f i ContentAnalysis.obj
 0001:0002f8d0       ??1?$num_put@DV?$ostreambuf_iterator@DU?$char_traits@D@std@@@std@@@std@@UAE@XZ 004308d0 f i ContentAnalysis.obj
 0001:0002f900       ??4?$basic_string@DU?$char_traits@D@std@@V?$allocator@D@2@@std@@QAEAAV01@ABV01@@Z 00430900 f i ContentAnalysis.obj
 0001:0002f930       ?_Ffmt@?$num_put@DV?$ostreambuf_iterator@DU?$char_traits@D@std@@@std@@@std@@KAPADPADDH@Z 00430930 f i ContentAnalysis.obj
 0001:0002fa10       ?_Fput@?$num_put@DV?$ostreambuf_iterator@DU?$char_traits@D@std@@@std@@@std@@KA?AV?$ostreambuf_iterator@DU?$char_traits@D@std@@@2@V32@AAVios_base@2@DPBDII@Z 00430a10 f i ContentAnalysis.obj
 0001:0002fdd0       ?_Ifmt@?$num_put@DV?$ostreambuf_iterator@DU?$char_traits@D@std@@@std@@@std@@KAPADPADDH@Z 00430dd0 f i ContentAnalysis.obj
 0001:0002fea0       ?_Iput@?$num_put@DV?$ostreambuf_iterator@DU?$char_traits@D@std@@@std@@@std@@KA?AV?$ostreambuf_iterator@DU?$char_traits@D@std@@@2@V32@AAVios_base@2@DPADI@Z 00430ea0 f i ContentAnalysis.obj
 0001:00030280       ?_Put@?$num_put@DV?$ostreambuf_iterator@DU?$char_traits@D@std@@@std@@@std@@KA?AV?$ostreambuf_iterator@DU?$char_traits@D@std@@@2@V32@PBDI@Z 00431280 f i ContentAnalysis.obj
 0001:000302e0       ?_Putc@?$num_put@DV?$ostreambuf_iterator@DU?$char_traits@D@std@@@std@@@std@@KA?AV?$ostreambuf_iterator@DU?$char_traits@D@std@@@2@V32@PBDI@Z 004312e0 f i ContentAnalysis.obj
 0001:00030350       ?_Rep@?$num_put@DV?$ostreambuf_iterator@DU?$char_traits@D@std@@@std@@@std@@KA?AV?$ostreambuf_iterator@DU?$char_traits@D@std@@@2@V32@DI@Z 00431350 f i ContentAnalysis.obj
 0001:000303a0       ?falsename@?$numpunct@D@std@@QBE?AV?$basic_string@DU?$char_traits@D@std@@V?$allocator@D@2@@2@XZ 004313a0 f i ContentAnalysis.obj
 0001:000303e0       ?truename@?$numpunct@D@std@@QBE?AV?$basic_string@DU?$char_traits@D@std@@V?$allocator@D@2@@2@XZ 004313e0 f i ContentAnalysis.obj
 0001:00030420       ?assign@?$basic_string@DU?$char_traits@D@std@@V?$allocator@D@2@@std@@QAEAAV12@ABV12@@Z 00431420 f i ContentAnalysis.obj
 0001:00030450       ?assign@?$basic_string@DU?$char_traits@D@std@@V?$allocator@D@2@@std@@QAEAAV12@ABV12@II@Z 00431450 f i ContentAnalysis.obj
 0001:000305b0       ?capacity@?$basic_string@DU?$char_traits@D@std@@V?$allocator@D@2@@std@@QBEIXZ 004315b0 f i ContentAnalysis.obj
 0001:000305d0       ??4?$ostreambuf_iterator@DU?$char_traits@D@std@@@std@@QAEAAV01@D@Z 004315d0 f i ContentAnalysis.obj
 0001:00030630       ?sputc@?$basic_streambuf@DU?$char_traits@D@std@@@std@@QAEHD@Z 00431630 f i ContentAnalysis.obj
 0001:000306b0       ??D?$ostreambuf_iterator@DU?$char_traits@D@std@@@std@@QAEAAV01@XZ 004316b0 f i ContentAnalysis.obj
 0001:000306d0       ??E?$ostreambuf_iterator@DU?$char_traits@D@std@@@std@@QAEAAV01@XZ 004316d0 f i ContentAnalysis.obj
 0001:000306f0       ?decimal_point@?$numpunct@D@std@@QBEDXZ 004316f0 f i ContentAnalysis.obj
 0001:00030710       ?thousands_sep@?$numpunct@D@std@@QBEDXZ 00431710 f i ContentAnalysis.obj
 0001:00030730       ?grouping@?$numpunct@D@std@@QBE?AV?$basic_string@DU?$char_traits@D@std@@V?$allocator@D@2@@2@XZ 00431730 f i ContentAnalysis.obj
 0001:00030770       ??8std@@YA_NABV?$allocator@D@0@0@Z 00431770 f i ContentAnalysis.obj
 0001:00030790       ?use_facet@std@@YAABV?$numpunct@D@1@ABVlocale@1@PBV21@_N@Z 00431790 f i ContentAnalysis.obj
 0001:000308b0       ??0?$codecvt@DDH@std@@QAE@I@Z 004318b0 f i ContentAnalysis.obj
 0001:00030940       ??0codecvt_base@std@@QAE@I@Z 00431940 f i ContentAnalysis.obj
 0001:00030970       ?do_always_noconv@codecvt_base@std@@MBE_NXZ 00431970 f i ContentAnalysis.obj
 0001:00030990       ?do_max_length@codecvt_base@std@@MBEHXZ 00431990 f i ContentAnalysis.obj
 0001:000309b0       ?do_encoding@codecvt_base@std@@MBEHXZ 004319b0 f i ContentAnalysis.obj
 0001:000309d0       ??_Ecodecvt_base@std@@UAEPAXI@Z 004319d0 f i ContentAnalysis.obj
 0001:000309d0       ??_Gcodecvt_base@std@@UAEPAXI@Z 004319d0 f i ContentAnalysis.obj
 0001:00030a10       ??1codecvt_base@std@@UAE@XZ 00431a10 f i ContentAnalysis.obj
 0001:00030a30       ?do_in@?$codecvt@DDH@std@@MBEHAAHPBD1AAPBDPAD3AAPAD@Z 00431a30 f i ContentAnalysis.obj
 0001:00030a60       ?do_out@?$codecvt@DDH@std@@MBEHAAHPBD1AAPBDPAD3AAPAD@Z 00431a60 f i ContentAnalysis.obj
 0001:00030a90       ?do_length@?$codecvt@DDH@std@@MBEHAAHPBD1I@Z 00431a90 f i ContentAnalysis.obj
 0001:00030ad0       ??_E?$codecvt@DDH@std@@UAEPAXI@Z 00431ad0 f i ContentAnalysis.obj
 0001:00030ad0       ??_G?$codecvt@DDH@std@@UAEPAXI@Z 00431ad0 f i ContentAnalysis.obj
 0001:00030b10       ??1?$codecvt@DDH@std@@UAE@XZ 00431b10 f i ContentAnalysis.obj
 0001:00030b40       ?_Getcat@?$codecvt@DDH@std@@SAIXZ 00431b40 f i ContentAnalysis.obj
 0001:00030b60       ??0?$numpunct@D@std@@QAE@I@Z 00431b60 f i ContentAnalysis.obj
 0001:00030bf0       ?do_decimal_point@?$numpunct@D@std@@MBEDXZ 00431bf0 f i ContentAnalysis.obj
 0001:00030c10       ?do_thousands_sep@?$numpunct@D@std@@MBEDXZ 00431c10 f i ContentAnalysis.obj
 0001:00030c30       ?do_grouping@?$numpunct@D@std@@MBE?AV?$basic_string@DU?$char_traits@D@std@@V?$allocator@D@2@@2@XZ 00431c30 f i ContentAnalysis.obj
 0001:00030c70       ?do_falsename@?$numpunct@D@std@@MBE?AV?$basic_string@DU?$char_traits@D@std@@V?$allocator@D@2@@2@XZ 00431c70 f i ContentAnalysis.obj
 0001:00030cb0       ?do_truename@?$numpunct@D@std@@MBE?AV?$basic_string@DU?$char_traits@D@std@@V?$allocator@D@2@@2@XZ 00431cb0 f i ContentAnalysis.obj
 0001:00030cf0       ??_E?$numpunct@D@std@@UAEPAXI@Z 00431cf0 f i ContentAnalysis.obj
 0001:00030cf0       ??_G?$numpunct@D@std@@UAEPAXI@Z 00431cf0 f i ContentAnalysis.obj
 0001:00030d30       ??1?$numpunct@D@std@@UAE@XZ 00431d30 f i ContentAnalysis.obj
 0001:00030da0       ??0?$basic_string@DU?$char_traits@D@std@@V?$allocator@D@2@@std@@QAE@PBDABV?$allocator@D@1@@Z 00431da0 f i ContentAnalysis.obj
 0001:00030de0       ?_Save@?$_Tidyfac@V?$num_put@DV?$ostreambuf_iterator@DU?$char_traits@D@std@@@std@@@std@@@std@@SAPAV?$num_put@DV?$ostreambuf_iterator@DU?$char_traits@D@std@@@std@@@2@PAV32@@Z 00431de0 f i ContentAnalysis.obj
 0001:00030e60       ?_Save@?$_Tidyfac@V?$numpunct@D@std@@@std@@SAPAV?$numpunct@D@2@PAV32@@Z 00431e60 f i ContentAnalysis.obj
 0001:00030ee0       ?_Save@?$_Tidyfac@V?$codecvt@DDH@std@@@std@@SAPAV?$codecvt@DDH@2@PAV32@@Z 00431ee0 f i ContentAnalysis.obj
 0001:00030f60       ?_Init@?$num_put@DV?$ostreambuf_iterator@DU?$char_traits@D@std@@@std@@@std@@IAEXABV_Locinfo@2@@Z 00431f60 f i ContentAnalysis.obj
 0001:00030f80       ?_Init@?$codecvt@DDH@std@@IAEXABV_Locinfo@2@@Z 00431f80 f i ContentAnalysis.obj
 0001:00030fb0       ?_Getcvt@_Locinfo@std@@QBE?AU_Cvtvec@@XZ 00431fb0 f i ContentAnalysis.obj
 0001:00030ff0       ?_Init@?$numpunct@D@std@@IAEXABV_Locinfo@2@@Z 00431ff0 f i ContentAnalysis.obj
 0001:00031090       ?_Getlconv@_Locinfo@std@@QBEPBUlconv@@XZ 00432090 f i ContentAnalysis.obj
 0001:000310b0       ?_Getfalse@_Locinfo@std@@QBEPBDXZ 004320b0 f i ContentAnalysis.obj
 0001:000310d0       ?_Gettrue@_Locinfo@std@@QBEPBDXZ 004320d0 f i ContentAnalysis.obj
 0001:000310f0       ?_Tidy@?$_Tidyfac@V?$num_put@DV?$ostreambuf_iterator@DU?$char_traits@D@std@@@std@@@std@@@std@@SAXXZ 004320f0 f i ContentAnalysis.obj
 0001:00031180       ?_Tidy@?$_Tidyfac@V?$numpunct@D@std@@@std@@SAXXZ 00432180 f i ContentAnalysis.obj
 0001:00031210       ?_Tidy@?$_Tidyfac@V?$codecvt@DDH@std@@@std@@SAXXZ 00432210 f i ContentAnalysis.obj
 0001:000312a0       ?_Iter_cat@std@@YA?AUbidirectional_iterator_tag@1@ABU?$iterator@Ubidirectional_iterator_tag@std@@U?$pair@$$CBVCString@@H@2@H@1@@Z 004322a0 f i ContentAnalysis.obj
 0001:000312d0       ?_Distance@std@@YAXVconst_iterator@?$_Tree@VCString@@U?$pair@$$CBVCString@@H@std@@U_Kfn@?$map@VCString@@HU?$less@VCString@@@std@@V?$allocator@H@3@@3@U?$less@VCString@@@3@V?$allocator@H@3@@1@0AAIUbidirectional_iterator_tag@1@@Z 004322d0 f i ContentAnalysis.obj
 0001:00031310       ?_Maklocstr@std@@YAPADPBDPAD@Z 00432310 f i ContentAnalysis.obj
 0001:000313f0       ?id@?$num_put@DV?$ostreambuf_iterator@DU?$char_traits@D@std@@@$D 004323f0 f i ContentAnalysis.obj
 0001:00031440       ?id@?$numpunct@D@std@@$D   00432440 f i ContentAnalysis.obj
 0001:00031490       ?id@?$codecvt@DDH@std@@$D  00432490 f i ContentAnalysis.obj
 0001:000314e0       ?id@?$codecvt@DDH@std@@$E  004324e0 f i ContentAnalysis.obj
 0001:000314f0       ?id@?$numpunct@D@std@@$E   004324f0 f i ContentAnalysis.obj
 0001:00031500       ?id@?$num_put@DV?$ostreambuf_iterator@DU?$char_traits@D@std@@@$E 00432500 f i ContentAnalysis.obj
 0001:00031510       ??Econst_iterator@?$_Tree@VCString@@U?$pair@$$CBVCString@@H@std@@U_Kfn@?$map@VCString@@HU?$less@VCString@@@std@@V?$allocator@H@3@@3@U?$less@VCString@@@3@V?$allocator@H@3@@std@@QAEAAV012@XZ 00432510 f i ContentAnalysis.obj
 0001:00031530       ??9const_iterator@?$_Tree@VCString@@U?$pair@$$CBVCString@@H@std@@U_Kfn@?$map@VCString@@HU?$less@VCString@@@std@@V?$allocator@H@3@@3@U?$less@VCString@@@3@V?$allocator@H@3@@std@@QBE_NABV012@@Z 00432530 f i ContentAnalysis.obj
 0001:00031560       ??8const_iterator@?$_Tree@VCString@@U?$pair@$$CBVCString@@H@std@@U_Kfn@?$map@VCString@@HU?$less@VCString@@@std@@V?$allocator@H@3@@3@U?$less@VCString@@@3@V?$allocator@H@3@@std@@QBE_NABV012@@Z 00432560 f i ContentAnalysis.obj
 0001:00031590       ?cmpcorpusword@@YAHPAPAXPBX@Z 00432590 f   Corpus.obj
 0001:000315d0       ??0CCorpus@@QAE@PBD@Z      004325d0 f   Corpus.obj
 0001:00031620       ??_ECCorpus@@UAEPAXI@Z     00432620 f i Corpus.obj
 0001:00031620       ??_GCCorpus@@UAEPAXI@Z     00432620 f i Corpus.obj
 0001:00031660       ??1CCorpus@@UAE@XZ         00432660 f   Corpus.obj
 0001:000316e0       ?load@CCorpus@@AAEXPBD@Z   004326e0 f   Corpus.obj
 0001:00031860       ?lookupIDF@CCorpus@@QAENPBD@Z 00432860 f   Corpus.obj
 0001:000318e0       ?CreateObject@CParagraph@@SGPAVCObject@@XZ 004328e0 f   CPARA.OBJ
 0001:00031950       ?GetRuntimeClass@CParagraph@@UBEPAUCRuntimeClass@@XZ 00432950 f   CPARA.OBJ
 0001:000319b0       ??0AFX_CLASSINIT@@QAE@PAUCRuntimeClass@@@Z 004329b0 f i CPARA.OBJ
 0001:000319e0       ??5@YGAAVCArchive@@AAV0@AAPAVCParagraph@@@Z 004329e0 f   CPARA.OBJ
 0001:00031a10       ??0CParagraph@@QAE@XZ      00432a10 f   CPARA.OBJ
 0001:00031b00       ??_ECParagraph@@UAEPAXI@Z  00432b00 f i CPARA.OBJ
 0001:00031b00       ??_GCParagraph@@UAEPAXI@Z  00432b00 f i CPARA.OBJ
 0001:00031b40       ??0CParagraph@@QAE@AAVCString@@AAVCPoint@@HH@Z 00432b40 f   CPARA.OBJ
 0001:00031c40       ??0CParagraph@@QAE@PBDAAVCPoint@@HH@Z 00432c40 f   CPARA.OBJ
 0001:00031d70       ??1CParagraph@@UAE@XZ      00432d70 f   CPARA.OBJ
 0001:00031e10       ?GetText@CParagraph@@QAE?AVCString@@XZ 00432e10 f   CPARA.OBJ
 0001:00031e50       ?SetJustification@CParagraph@@QAEXW4justify@1@@Z 00432e50 f   CPARA.OBJ
 0001:00031e70       ?GetPosition@CParagraph@@QAE?AVCPoint@@XZ 00432e70 f   CPARA.OBJ
 0001:00031ea0       ?GetWidth@CParagraph@@QAEHXZ 00432ea0 f   CPARA.OBJ
 0001:00031ec0       ?GetHeight@CParagraph@@QAEHXZ 00432ec0 f   CPARA.OBJ
 0001:00031ee0       ??BCParagraph@@QAEPBDXZ    00432ee0 f   CPARA.OBJ
 0001:00031f00       ?Serialize@CParagraph@@UAEXAAVCArchive@@@Z 00432f00 f   CPARA.OBJ
 0001:00032050       ??6@YGAAVCArchive@@AAV0@UtagPOINT@@@Z 00433050 f i CPARA.OBJ
 0001:00032080       ??5@YGAAVCArchive@@AAV0@AAUtagPOINT@@@Z 00433080 f i CPARA.OBJ
 0001:000320b0       ?SetText@CParagraph@@QAEXPBD@Z 004330b0 f   CPARA.OBJ
 0001:00032120       ?SetText@CParagraph@@QAEXAAVCString@@@Z 00433120 f   CPARA.OBJ
 0001:000323c0       ?SetPosition@CParagraph@@QAEXAAVCPoint@@@Z 004333c0 f   CPARA.OBJ
 0001:000323f0       ?SetPosition@CParagraph@@QAEXHH@Z 004333f0 f   CPARA.OBJ
 0001:00032420       ?SetWidth@CParagraph@@QAEXH@Z 00433420 f   CPARA.OBJ
 0001:00032440       ?SetHeight@CParagraph@@QAEXH@Z 00433440 f   CPARA.OBJ
 0001:00032460       ?SetFont@CParagraph@@QAEXAAVCString@@HH@Z 00433460 f   CPARA.OBJ
 0001:00032500       ?CreateFontA@CFont@@QAEHHHHHHEEEEEEEEPBD@Z 00433500 f i CPARA.OBJ
 0001:00032590       ?Paint@CParagraph@@QAEXPAVCDC@@@Z 00433590 f   CPARA.OBJ
 0001:00032910       ?GetHeadPosition@CObList@@QBEPAU__POSITION@@XZ 00433910 f i CPARA.OBJ
 0001:00032930       ?GetNext@CObList@@QAEAAPAVCObject@@AAPAU__POSITION@@@Z 00433930 f i CPARA.OBJ
 0001:00032960       ?TextOutA@CDC@@QAEHHHABVCString@@@Z 00433960 f i CPARA.OBJ
 0001:000329a0       ?GetTextExtent@CDC@@QBE?AVCSize@@PBDH@Z 004339a0 f i CPARA.OBJ
 0001:000329f0       ??0CSize@@QAE@UtagSIZE@@@Z 004339f0 f i CPARA.OBJ
 0001:00032a20       ?FitsIntoBlock@CParagraph@@IAEHHHAAVCSize@@@Z 00433a20 f   CPARA.OBJ
 0001:00032a80       ?GetJustifiedPosition@CParagraph@@IAEHH@Z 00433a80 f   CPARA.OBJ
 0001:00032af0       ?CleanUpWords@CParagraph@@IAEXXZ 00433af0 f   CPARA.OBJ
 0001:00032b60       ??_GCString@@QAEPAXI@Z     00433b60 f i CPARA.OBJ
 0001:00032ba0       ?EncodingByKey@@YAXPBDAAVCString@@QAD@Z 00433ba0 f   Crypt.obj
 0001:00032c80       ?DecodingByKey@@YAXPBDAAVCString@@QAD@Z 00433c80 f   Crypt.obj
 0001:00032d80       ?Encoding@@YAXPBDAAVCString@@@Z 00433d80 f   Crypt.obj
 0001:00032db0       ?Decoding@@YAXPBDAAVCString@@@Z 00433db0 f   Crypt.obj
 0001:00032de0       ?Encoding2@@YAXPBDAAVCString@@@Z 00433de0 f   Crypt.obj
 0001:00032e10       ?Decoding2@@YAXPBDAAVCString@@@Z 00433e10 f   Crypt.obj
 0001:00032ec0       ??0COptionsDialog@@QAE@W4ETextOptions@@W4EIconOptions@@@Z 00433ec0 f   CustomizeDialog.obj
 0001:00032f50       ??_GCOptionsDialog@@UAEPAXI@Z 00433f50 f i CustomizeDialog.obj
 0001:00032f50       ??_ECOptionsDialog@@UAEPAXI@Z 00433f50 f i CustomizeDialog.obj
 0001:00032f90       ??1COptionsDialog@@UAE@XZ  00433f90 f i CustomizeDialog.obj
 0001:00033000       ?DoDataExchange@COptionsDialog@@MAEXPAVCDataExchange@@@Z 00434000 f   CustomizeDialog.obj
 0001:00033050       ?SelectTextOption@COptionsDialog@@QAE_NW4ETextOptions@@@Z 00434050 f   CustomizeDialog.obj
 0001:000330c0       ?GetCount@CComboBox@@QBEHXZ 004340c0 f i CustomizeDialog.obj
 0001:000330f0       ?SelectIconOption@COptionsDialog@@QAE_NW4EIconOptions@@@Z 004340f0 f   CustomizeDialog.obj
 0001:00033170       ?GetCustomizeDialog@COptionsDialog@@IBEPAVCCustomizeDialog@@XZ 00434170 f   CustomizeDialog.obj
 0001:00033190       ?GetMessageMap@COptionsDialog@@MBEPBUAFX_MSGMAP@@XZ 00434190 f   CustomizeDialog.obj
 0001:000331b0       ?OnInitDialog@COptionsDialog@@MAEHXZ 004341b0 f   CustomizeDialog.obj
 0001:00033280       ?OnTextOptions@COptionsDialog@@IAEXXZ 00434280 f   CustomizeDialog.obj
 0001:000332e0       ?OnIconOptions@COptionsDialog@@IAEXXZ 004342e0 f   CustomizeDialog.obj
 0001:00033340       ?GetRuntimeClass@CCustomizeDialog@@UBEPAUCRuntimeClass@@XZ 00434340 f   CustomizeDialog.obj
 0001:00033360       ??0CCustomizeDialog@@QAE@PAVCToolBarEx@@@Z 00434360 f   CustomizeDialog.obj
 0001:000333f0       ??_ECCustomizeDialog@@UAEPAXI@Z 004343f0 f i CustomizeDialog.obj
 0001:000333f0       ??_GCCustomizeDialog@@UAEPAXI@Z 004343f0 f i CustomizeDialog.obj
 0001:00033430       ??1CCustomizeDialog@@UAE@XZ 00434430 f i CustomizeDialog.obj
 0001:00033490       ?SetTextOptions@CCustomizeDialog@@QAEXW4ETextOptions@@_N@Z 00434490 f   CustomizeDialog.obj
 0001:000334e0       ?SetIconOptions@CCustomizeDialog@@QAEXW4EIconOptions@@_N@Z 004344e0 f   CustomizeDialog.obj
 0001:000335a0       ?PostNcDestroy@CCustomizeDialog@@MAEXXZ 004345a0 f   CustomizeDialog.obj
 0001:000335e0       ?AddTextOption@CCustomizeDialog@@QAEXAAVCComboBox@@W4ETextOptions@@I@Z 004345e0 f   CustomizeDialog.obj
 0001:00033690       ?SetItemData@CComboBox@@QAEHHK@Z 00434690 f i CustomizeDialog.obj
 0001:000336c0       ?AddString@CComboBox@@QAEHPBD@Z 004346c0 f i CustomizeDialog.obj
 0001:000336f0       ?AddIconOption@CCustomizeDialog@@QAEXAAVCComboBox@@W4EIconOptions@@I@Z 004346f0 f   CustomizeDialog.obj
 0001:000337a0       ?GetButtonSize@CCustomizeDialog@@IBE?AVCSize@@XZ 004347a0 f   CustomizeDialog.obj
 0001:00033830       ??HCSize@@QBE?AV0@UtagSIZE@@@Z 00434830 f i CustomizeDialog.obj
 0001:00033870       ?GetMessageMap@CCustomizeDialog@@MBEPBUAFX_MSGMAP@@XZ 00434870 f   CustomizeDialog.obj
 0001:00033890       ?OnInitDialog@CCustomizeDialog@@IAEJIJ@Z 00434890 f   CustomizeDialog.obj
 0001:00033970       ?Create@CDialog@@QAEHIPAVCWnd@@@Z 00434970 f i CustomizeDialog.obj
 0001:000339a0       ?OnDrawItem@CCustomizeDialog@@IAEXHPAUtagDRAWITEMSTRUCT@@@Z 004349a0 f   CustomizeDialog.obj
 0001:00034170       ??0CRect@@QAE@PBUtagRECT@@@Z 00435170 f i CustomizeDialog.obj
 0001:000341a0       ?TopLeft@CRect@@QAEAAVCPoint@@XZ 004351a0 f i CustomizeDialog.obj
 0001:000341c0       ?DeflateRect@CRect@@QAEXHH@Z 004351c0 f i CustomizeDialog.obj
 0001:000341f0       ?OffsetRect@CRect@@QAEXHH@Z 004351f0 f i CustomizeDialog.obj
 0001:00034220       ??0CBitmap@@QAE@XZ         00435220 f i CustomizeDialog.obj
 0001:00034250       ??_GCBitmap@@UAEPAXI@Z     00435250 f i CustomizeDialog.obj
 0001:00034250       ??_ECBitmap@@UAEPAXI@Z     00435250 f i CustomizeDialog.obj
 0001:00034290       ??1CBitmap@@UAE@XZ         00435290 f i CustomizeDialog.obj
 0001:000342c0       ?CreateCompatibleBitmap@CBitmap@@QAEHPAVCDC@@HH@Z 004352c0 f i CustomizeDialog.obj
 0001:00034300       ?CreateCompatibleDC@CDC@@QAEHPAV1@@Z 00435300 f i CustomizeDialog.obj
 0001:00034330       ?SelectObject@CDC@@QAEPAVCBitmap@@PAV2@@Z 00435330 f i CustomizeDialog.obj
 0001:00034360       ?GetSafeHandle@CGdiObject@@QBEPAXXZ 00435360 f i CustomizeDialog.obj
 0001:00034390       ?FrameRect@CDC@@QAEXPBUtagRECT@@PAVCBrush@@@Z 00435390 f i CustomizeDialog.obj
 0001:000343c0       ?DrawFrameControl@CDC@@QAEHPAUtagRECT@@II@Z 004353c0 f i CustomizeDialog.obj
 0001:000343f0       ?BitBlt@CDC@@QAEHHHHHPAV1@HHK@Z 004353f0 f i CustomizeDialog.obj
 0001:00034440       ?DrawTextA@CDC@@QAEHABVCString@@PAUtagRECT@@I@Z 00435440 f i CustomizeDialog.obj
 0001:00034480       ?Draw@CImageList@@QAEHPAVCDC@@HUtagPOINT@@I@Z 00435480 f i CustomizeDialog.obj
 0001:000344c0       ?GetHotImageList@CToolBarCtrl@@QBEPAVCImageList@@XZ 004354c0 f i CustomizeDialog.obj
 0001:000344f0       ?OnMeasureItem@CCustomizeDialog@@IAEXHPAUtagMEASUREITEMSTRUCT@@@Z 004354f0 f   CustomizeDialog.obj
 0001:00034550       ?OnCtlColor@CCustomizeDialog@@IAEPAUHBRUSH__@@PAVCDC@@PAVCWnd@@I@Z 00435550 f   CustomizeDialog.obj
 0001:000345b0       ?SetLanguage@COptionsDialog@@QAEXXZ 004355b0 f   CustomizeDialog.obj
 0001:000345d0       ?GetUpperBound@?$CArray@UTBBUTTONEX@@AAU1@@@QBEHXZ 004355d0 f i CustomizeDialog.obj
 0001:000345f0       ??A?$CArray@UTBBUTTONEX@@AAU1@@@QAEAAUTBBUTTONEX@@H@Z 004355f0 f i CustomizeDialog.obj
 0001:00034620       ?ElementAt@?$CArray@UTBBUTTONEX@@AAU1@@@QAEAAUTBBUTTONEX@@H@Z 00435620 f i CustomizeDialog.obj
 0001:000346d0       ??0CCustomizeToolbar@@QAE@PAVCWnd@@@Z 004356d0 f   CustomizeToolbar.obj
 0001:00034790       ??0CListCtrl@@QAE@XZ       00435790 f i CustomizeToolbar.obj
 0001:000347c0       ??_ECListCtrl@@UAEPAXI@Z   004357c0 f i CustomizeToolbar.obj
 0001:000347c0       ??_GCListCtrl@@UAEPAXI@Z   004357c0 f i CustomizeToolbar.obj
 0001:00034800       ??_GCCustomizeToolbar@@UAEPAXI@Z 00435800 f i CustomizeToolbar.obj
 0001:00034800       ??_ECCustomizeToolbar@@UAEPAXI@Z 00435800 f i CustomizeToolbar.obj
 0001:00034840       ??1CCustomizeToolbar@@UAE@XZ 00435840 f i CustomizeToolbar.obj
 0001:000348c0       ?DoDataExchange@CCustomizeToolbar@@MAEXPAVCDataExchange@@@Z 004358c0 f   CustomizeToolbar.obj
 0001:00034960       ?GetMessageMap@CCustomizeToolbar@@MBEPBUAFX_MSGMAP@@XZ 00435960 f   CustomizeToolbar.obj
 0001:00034980       ?OnInitDialog@CCustomizeToolbar@@MAEHXZ 00435980 f   CustomizeToolbar.obj
 0001:000350c0       ?AfxGetApp@@YGPAVCWinApp@@XZ 004360c0 f i CustomizeToolbar.obj
 0001:000350e0       ?SetImageList@CListCtrl@@QAEPAVCImageList@@PAV2@H@Z 004360e0 f i CustomizeToolbar.obj
 0001:00035120       ?SetItemData@CListCtrl@@QAEHHK@Z 00436120 f i CustomizeToolbar.obj
 0001:00035160       ?InsertItem@CListCtrl@@QAEHHPBDH@Z 00436160 f i CustomizeToolbar.obj
 0001:000351a0       ?DeleteItem@CListCtrl@@QAEHH@Z 004361a0 f i CustomizeToolbar.obj
 0001:000351d0       ?FindItem@CListCtrl@@QBEHPAUtagLVFINDINFOA@@H@Z 004361d0 f i CustomizeToolbar.obj
 0001:00035200       ?EnsureVisible@CListCtrl@@QAEHHH@Z 00436200 f i CustomizeToolbar.obj
 0001:00035240       ?SetColumnWidth@CListCtrl@@QAEHHH@Z 00436240 f i CustomizeToolbar.obj
 0001:00035280       ?SetExtendedStyle@CListCtrl@@QAEKK@Z 00436280 f i CustomizeToolbar.obj
 0001:000352b0       ?GetExtendedStyle@CListCtrl@@QAEKXZ 004362b0 f i CustomizeToolbar.obj
 0001:000352e0       ?OnOK@CCustomizeToolbar@@MAEXXZ 004362e0 f   CustomizeToolbar.obj
 0001:00035370       ?GetItemCount@CListCtrl@@QBEHXZ 00436370 f i CustomizeToolbar.obj
 0001:000353a0       ?OnMoveDown@CCustomizeToolbar@@IAEXXZ 004363a0 f   CustomizeToolbar.obj
 0001:000355d0       ?GetFirstSelectedItemPosition@CListCtrl@@QBEPAU__POSITION@@XZ 004365d0 f i CustomizeToolbar.obj
 0001:00035600       ?GetNextItem@CListCtrl@@QBEHHH@Z 00436600 f i CustomizeToolbar.obj
 0001:00035640       ?GetNextSelectedItem@CListCtrl@@QBEHAAPAU__POSITION@@@Z 00436640 f i CustomizeToolbar.obj
 0001:00035680       ?OnMoveUp@CCustomizeToolbar@@IAEXXZ 00436680 f   CustomizeToolbar.obj
 0001:000358a0       ?OnRemove@CCustomizeToolbar@@IAEXXZ 004368a0 f   CustomizeToolbar.obj
 0001:00035a70       ?OnAdd@CCustomizeToolbar@@IAEXXZ 00436a70 f   CustomizeToolbar.obj
 0001:00035cc0       ?OnDblclkAvabtn@CCustomizeToolbar@@IAEXPAUtagNMHDR@@PAJ@Z 00436cc0 f   CustomizeToolbar.obj
 0001:00035cf0       ?OnDblclkCurbtn@CCustomizeToolbar@@IAEXPAUtagNMHDR@@PAJ@Z 00436cf0 f   CustomizeToolbar.obj
 0001:00035de0       ?GetInterfaceMap@CCustomControlSite@@MBEPBUAFX_INTERFACEMAP@@XZ 00436de0 f   Custsite.obj
 0001:00035e50       ?AddRef@XOleCommandTarget@CCustomControlSite@@UAGKXZ 00436e50 f   Custsite.obj
 0001:00035e80       ?Release@XOleCommandTarget@CCustomControlSite@@UAGKXZ 00436e80 f   Custsite.obj
 0001:00035eb0       ?QueryInterface@XOleCommandTarget@CCustomControlSite@@UAGJABU_GUID@@PAPAX@Z 00436eb0 f   Custsite.obj
 0001:00035ef0       ?Exec@XOleCommandTarget@CCustomControlSite@@UAGJPBU_GUID@@KKPAUtagVARIANT@@1@Z 00436ef0 f   Custsite.obj
 0001:00036140       _IsEqualGUID               00437140 f i Custsite.obj
 0001:00036170       ?wcsstr@@YAPAGPAGPBG@Z     00437170 f i Custsite.obj
 0001:00036190       ?QueryStatus@XOleCommandTarget@CCustomControlSite@@UAGJPBU_GUID@@KQAU_tagOLECMD@@PAU_tagOLECMDTEXT@@@Z 00437190 f   Custsite.obj
 0001:000361c0       ?AddRef@XDocHostUIHandler@CCustomControlSite@@UAGKXZ 004371c0 f   Custsite.obj
 0001:000361f0       ?Release@XDocHostUIHandler@CCustomControlSite@@UAGKXZ 004371f0 f   Custsite.obj
 0001:00036220       ?QueryInterface@XDocHostUIHandler@CCustomControlSite@@UAGJABU_GUID@@PAPAX@Z 00437220 f   Custsite.obj
 0001:00036260       ?GetHostInfo@XDocHostUIHandler@CCustomControlSite@@UAGJPAU_DOCHOSTUIINFO@@@Z 00437260 f   Custsite.obj
 0001:000362d0       ?ShowUI@XDocHostUIHandler@CCustomControlSite@@UAGJKPAUIOleInPlaceActiveObject@@PAUIOleCommandTarget@@PAUIOleInPlaceFrame@@PAUIOleInPlaceUIWindow@@@Z 004372d0 f   Custsite.obj
 0001:000362f0       ?HideUI@XDocHostUIHandler@CCustomControlSite@@UAGJXZ 004372f0 f   Custsite.obj
 0001:00036310       ?UpdateUI@XDocHostUIHandler@CCustomControlSite@@UAGJXZ 00437310 f   Custsite.obj
 0001:00036330       ?EnableModeless@XDocHostUIHandler@CCustomControlSite@@UAGJH@Z 00437330 f   Custsite.obj
 0001:00036360       ?OnDocWindowActivate@XDocHostUIHandler@CCustomControlSite@@UAGJH@Z 00437360 f   Custsite.obj
 0001:000363c0       ?OnFrameWindowActivate@XDocHostUIHandler@CCustomControlSite@@UAGJH@Z 004373c0 f   Custsite.obj
 0001:000363f0       ?ResizeBorder@XDocHostUIHandler@CCustomControlSite@@UAGJPBUtagRECT@@PAUIOleInPlaceUIWindow@@H@Z 004373f0 f   Custsite.obj
 0001:00036420       ?ShowContextMenu@XDocHostUIHandler@CCustomControlSite@@UAGJKPAUtagPOINT@@PAUIUnknown@@PAUIDispatch@@@Z 00437420 f   Custsite.obj
 0001:00036480       ?TranslateAcceleratorA@XDocHostUIHandler@CCustomControlSite@@UAGJPAUtagMSG@@PBU_GUID@@K@Z 00437480 f   Custsite.obj
 0001:000364b0       ?GetOptionKeyPath@XDocHostUIHandler@CCustomControlSite@@UAGJPAPAGK@Z 004374b0 f   Custsite.obj
 0001:000364e0       ?GetDropTarget@XDocHostUIHandler@CCustomControlSite@@UAGJPAUIDropTarget@@PAPAU3@@Z 004374e0 f   Custsite.obj
 0001:00036560       ?GetExternal@XDocHostUIHandler@CCustomControlSite@@UAGJPAPAUIDispatch@@@Z 00437560 f   Custsite.obj
 0001:000365d0       ?TranslateUrl@XDocHostUIHandler@CCustomControlSite@@UAGJKPAGPAPAG@Z 004375d0 f   Custsite.obj
 0001:00036600       ?FilterDataObject@XDocHostUIHandler@CCustomControlSite@@UAGJPAUIDataObject@@PAPAU3@@Z 00437600 f   Custsite.obj
 0001:00036670       ??0CDataSet@@QAE@XZ        00437670 f   DataSet.obj
 0001:000366c0       ??_ECDataSet@@UAEPAXI@Z    004376c0 f i DataSet.obj
 0001:000366c0       ??_GCDataSet@@UAEPAXI@Z    004376c0 f i DataSet.obj
 0001:00036700       ??1CDataSet@@UAE@XZ        00437700 f   DataSet.obj
 0001:00036810       ?clearData@CDataSet@@QAEXXZ 00437810 f   DataSet.obj
 0001:00036890       ?Swap@CDataSet@@QAEXHH@Z   00437890 f   DataSet.obj
 0001:00036940       ?Quicksort@CDataSet@@QAEXHHH@Z 00437940 f   DataSet.obj
 0001:00036a80       ?calPrecision@CDataSet@@QAEXXZ 00437a80 f   DataSet.obj
 0001:00036bb0       ?setAttPrecision@CDataSet@@QAEXHN@Z 00437bb0 f i DataSet.obj
 0001:00036c00       ?quickSortAt@CDataSet@@QAEXH@Z 00437c00 f   DataSet.obj
 0001:00036c50       ?calSplitPoints@CDataSet@@QAE_NH@Z 00437c50 f   DataSet.obj
 0001:00036d00       ?cut@CDataSet@@QAEXHHH@Z   00437d00 f   DataSet.obj
 0001:00036e50       ?addSplit@CDataSet@@QAEXHN@Z 00437e50 f i DataSet.obj
 0001:00036ea0       ?find_best_cut_point@CDataSet@@QAENHHH@Z 00437ea0 f   DataSet.obj
 0001:00036ff0       ?Entropy@CDataSet@@QAENNHHH@Z 00437ff0 f   DataSet.obj
 0001:00037300       _logl                      00438300 f i DataSet.obj
 0001:00037320       ?calGainDeta@CDataSet@@QAEXNHHHAAN0@Z 00438320 f   DataSet.obj
 0001:00037890       ?ReadName@CDataSet@@QAE_NPAU_iobuf@@AAVCString@@@Z 00438890 f   DataSet.obj
 0001:00037a50       ?LoadMLC45Attributes@CDataSet@@QAE_NPBD@Z 00438a50 f   DataSet.obj
 0001:00037ce0       ?setAttName@CDataSet@@QAEXHPBD@Z 00438ce0 f i DataSet.obj
 0001:00037d30       ?setAttType@CDataSet@@QAEXHW4AttrType@@@Z 00438d30 f i DataSet.obj
 0001:00037d80       ?clearDiscretValue@CDataSet@@QAEHH@Z 00438d80 f i DataSet.obj
 0001:00037dd0       ?addDiscretValue@CDataSet@@QAEXHVCString@@@Z 00438dd0 f i DataSet.obj
 0001:00037e80       ?appendAttribute@CDataSet@@QAEHXZ 00438e80 f i DataSet.obj
 0001:00037ef0       ?LoadMLC45Data@CDataSet@@QAE_NPBD@Z 00438ef0 f   DataSet.obj
 0001:00038270       ?getAttType@CDataSet@@QAE?AW4AttrType@@H@Z 00439270 f i DataSet.obj
 0001:000382a0       ?getDiscretIndex@CDataSet@@QAEHHVCString@@@Z 004392a0 f i DataSet.obj
 0001:00038330       ?LoadWekaARFF@CDataSet@@QAE_NPBD@Z 00439330 f   DataSet.obj
 0001:00038910       ?calSplits@CDataSet@@QAEXXZ 00439910 f   DataSet.obj
 0001:00038970       ?Discretize@CDataSet@@QAEXXZ 00439970 f   DataSet.obj
 0001:00038af0       ?getSplitNum@CDataSet@@QAEHH@Z 00439af0 f i DataSet.obj
 0001:00038b40       ?getSplit@CDataSet@@QAENHH@Z 00439b40 f i DataSet.obj
 0001:00038b90       ?C45fy@CDataSet@@QAEXXZ    00439b90 f   DataSet.obj
 0001:00038ca0       ?DeC45fy@CDataSet@@QAEXXZ  00439ca0 f   DataSet.obj
 0001:00038da0       ??0?$CArray@VCAttribute@@AAV1@@@QAE@XZ 00439da0 f i DataSet.obj
 0001:00038df0       ?Add@?$CArray@VCAttribute@@AAV1@@@QAEHAAVCAttribute@@@Z 00439df0 f i DataSet.obj
 0001:00038e30       ??1?$CArray@VCAttribute@@AAV1@@@UAE@XZ 00439e30 f i DataSet.obj
 0001:00038ec0       ?Serialize@?$CArray@VCAttribute@@AAV1@@@UAEXAAVCArchive@@@Z 00439ec0 f i DataSet.obj
 0001:00038f30       ?SetSize@?$CArray@VCAttribute@@AAV1@@@QAEXHH@Z 00439f30 f i DataSet.obj
 0001:00039170       ??0?$CArray@VCInstance@@AAV1@@@QAE@XZ 0043a170 f i DataSet.obj
 0001:000391c0       ?GetSize@?$CArray@VCInstance@@AAV1@@@QBEHXZ 0043a1c0 f i DataSet.obj
 0001:000391e0       ?RemoveAll@?$CArray@VCInstance@@AAV1@@@QAEXXZ 0043a1e0 f i DataSet.obj
 0001:00039200       ?Add@?$CArray@VCInstance@@AAV1@@@QAEHAAVCInstance@@@Z 0043a200 f i DataSet.obj
 0001:00039240       ??A?$CArray@VCInstance@@AAV1@@@QAEAAVCInstance@@H@Z 0043a240 f i DataSet.obj
 0001:00039270       ??1?$CArray@VCInstance@@AAV1@@@UAE@XZ 0043a270 f i DataSet.obj
 0001:00039300       ?Serialize@?$CArray@VCInstance@@AAV1@@@UAEXAAVCArchive@@@Z 0043a300 f i DataSet.obj
 0001:00039370       ??_G?$CArray@VCAttribute@@AAV1@@@UAEPAXI@Z 0043a370 f i DataSet.obj
 0001:00039370       ??_E?$CArray@VCAttribute@@AAV1@@@UAEPAXI@Z 0043a370 f i DataSet.obj
 0001:000393b0       ??_E?$CArray@VCInstance@@AAV1@@@UAEPAXI@Z 0043a3b0 f i DataSet.obj
 0001:000393b0       ??_G?$CArray@VCInstance@@AAV1@@@UAEPAXI@Z 0043a3b0 f i DataSet.obj
 0001:000393f0       ?SetAtGrow@?$CArray@VCAttribute@@AAV1@@@QAEXHAAVCAttribute@@@Z 0043a3f0 f i DataSet.obj
 0001:00039440       ?DestructElements@@YGXPAVCAttribute@@H@Z 0043a440 f i DataSet.obj
 0001:00039480       ?ConstructElements@@YGXPAVCAttribute@@H@Z 0043a480 f i DataSet.obj
 0001:00039530       ?SerializeElements@@YGXAAVCArchive@@PAVCAttribute@@H@Z 0043a530 f i DataSet.obj
 0001:00039580       ?SetSize@?$CArray@VCInstance@@AAV1@@@QAEXHH@Z 0043a580 f i DataSet.obj
 0001:000397c0       ?ElementAt@?$CArray@VCInstance@@AAV1@@@QAEAAVCInstance@@H@Z 0043a7c0 f i DataSet.obj
 0001:000397f0       ?SetAtGrow@?$CArray@VCInstance@@AAV1@@@QAEXHAAVCInstance@@@Z 0043a7f0 f i DataSet.obj
 0001:00039840       ?DestructElements@@YGXPAVCInstance@@H@Z 0043a840 f i DataSet.obj
 0001:00039880       ?SerializeElements@@YGXAAVCArchive@@PAVCInstance@@H@Z 0043a880 f i DataSet.obj
 0001:000398d0       ?ConstructElements@@YGXPAVCInstance@@H@Z 0043a8d0 f i DataSet.obj
 0001:00039be0       ?cmp@@YA_NPAD0@Z           0043abe0 f   DayBaseAnalysis.obj
 0001:00039c10       ?Init@DayBaseAnalysis@@SAXXZ 0043ac10 f   DayBaseAnalysis.obj
 0001:00039c50       ?AnalysisUrl@DayBaseAnalysis@@SAXVCString@@@Z 0043ac50 f   DayBaseAnalysis.obj
 0001:00039ec0       ?LoadTodayHistory@DayBaseAnalysis@@SAXVCString@@@Z 0043aec0 f   DayBaseAnalysis.obj
 0001:0003a160       ?GetData@CMarkup@@QAE?AVCString@@XZ 0043b160 f i DayBaseAnalysis.obj
 0001:0003a1a0       ?SaveTodayHistory@DayBaseAnalysis@@SAXVCString@@@Z 0043b1a0 f   DayBaseAnalysis.obj
 0001:0003a710       ?SetData@CMarkup@@QAE_NUMCD_CSTR@@H@Z 0043b710 f i DayBaseAnalysis.obj
 0001:0003a750       ?sort@std@@YAXPAPAD0P6A_NPAD1@Z@Z 0043b750 f i DayBaseAnalysis.obj
 0001:0003a790       ?_Val_type@std@@YAPAPADPBQAD@Z 0043b790 f i DayBaseAnalysis.obj
 0001:0003a7b0       ?_Sort_0@std@@YAXPAPAD0P6A_NPAD1@Z0@Z 0043b7b0 f i DayBaseAnalysis.obj
 0001:0003a890       ?_Insertion_sort@std@@YAXPAPAD0P6A_NPAD1@Z@Z 0043b890 f i DayBaseAnalysis.obj
 0001:0003a8d0       ?_Sort@std@@YAXPAPAD0P6A_NPAD1@Z0@Z 0043b8d0 f i DayBaseAnalysis.obj
 0001:0003a9b0       ?_Unguarded_insert@std@@YAXPAPADPADP6A_N11@Z@Z 0043b9b0 f i DayBaseAnalysis.obj
 0001:0003aa10       ?_Insertion_sort_1@std@@YAXPAPAD0P6A_NPAD1@Z0@Z 0043ba10 f i DayBaseAnalysis.obj
 0001:0003aaa0       ?_Median@std@@YAPADPAD00P6A_N00@Z@Z 0043baa0 f i DayBaseAnalysis.obj
 0001:0003ab70       ?_Unguarded_partition@std@@YAPAPADPAPAD0PADP6A_N11@Z@Z 0043bb70 f i DayBaseAnalysis.obj
 0001:0003ac00       ?copy_backward@std@@YAPAPADPAPAD00@Z 0043bc00 f i DayBaseAnalysis.obj
 0001:0003ac40       ?iter_swap@std@@YAXPAPAD0@Z 0043bc40 f i DayBaseAnalysis.obj
 0001:0003ac70       ?_Iter_swap@std@@YAXPAPAD00@Z 0043bc70 f i DayBaseAnalysis.obj
 0001:0003aca0       ??0CDialogHeaderCtrl@@QAE@XZ 0043bca0 f   DialogHeaderCtrl.obj
 0001:0003adb0       ??_GCDialogHeaderCtrl@@UAEPAXI@Z 0043bdb0 f i DialogHeaderCtrl.obj
 0001:0003adb0       ??_ECDialogHeaderCtrl@@UAEPAXI@Z 0043bdb0 f i DialogHeaderCtrl.obj
 0001:0003adf0       ??0CDialogHeaderCtrl@@QAE@ABVCString@@0I@Z 0043bdf0 f   DialogHeaderCtrl.obj
 0001:0003af20       ?LoadIconA@CWinApp@@QBEPAUHICON__@@I@Z 0043bf20 f i DialogHeaderCtrl.obj
 0001:0003af50       ?AfxGetResourceHandle@@YGPAUHINSTANCE__@@XZ 0043bf50 f i DialogHeaderCtrl.obj
 0001:0003af70       ??1CDialogHeaderCtrl@@UAE@XZ 0043bf70 f   DialogHeaderCtrl.obj
 0001:0003b020       ?GetMessageMap@CDialogHeaderCtrl@@MBEPBUAFX_MSGMAP@@XZ 0043c020 f   DialogHeaderCtrl.obj
 0001:0003b040       ?UpdateFont@CDialogHeaderCtrl@@IAEXAAVCFont@@J@Z 0043c040 f   DialogHeaderCtrl.obj
 0001:0003b090       ?OnPaint@CDialogHeaderCtrl@@IAEXXZ 0043c090 f   DialogHeaderCtrl.obj
 0001:0003b260       ??0CPoint@@QAE@HH@Z        0043c260 f i DialogHeaderCtrl.obj
 0001:0003b290       ?DrawIcon@CDC@@QAEHUtagPOINT@@PAUHICON__@@@Z 0043c290 f i DialogHeaderCtrl.obj
 0001:0003b2c0       ?OnEraseBkgnd@CDialogHeaderCtrl@@IAEHPAVCDC@@@Z 0043c2c0 f   DialogHeaderCtrl.obj
 0001:0003b2e0       ?OnDestroy@CDialogHeaderCtrl@@IAEXXZ 0043c2e0 f   DialogHeaderCtrl.obj
 0001:0003b300       ?SetBkImage@CDialogHeaderCtrl@@QAEHI@Z 0043c300 f   DialogHeaderCtrl.obj
 0001:0003b320       ?SetBkImage@CDialogHeaderCtrl@@QAEHPBD@Z 0043c320 f   DialogHeaderCtrl.obj
 0001:0003b340       ?SetTitle@CDialogHeaderCtrl@@QAEXABVCString@@@Z 0043c340 f   DialogHeaderCtrl.obj
 0001:0003b370       ?SetDesc@CDialogHeaderCtrl@@QAEXABVCString@@@Z 0043c370 f   DialogHeaderCtrl.obj
 0001:0003b3b0       ?SetIcon@CDialogHeaderCtrl@@QAEXI@Z 0043c3b0 f   DialogHeaderCtrl.obj
 0001:0003b410       ?OnShowWindow@CDialogHeaderCtrl@@IAEXHI@Z 0043c410 f   DialogHeaderCtrl.obj
 0001:0003b440       ?OnShowWindow@CWnd@@IAEXHI@Z 0043c440 f i DialogHeaderCtrl.obj
 0001:0003b460       ??4CDictionary@@QAEAAV0@ABV0@@Z 0043c460 f i Dictionary.obj
 0001:0003b490       ??0CDictionary@@QAE@XZ     0043c490 f   Dictionary.obj
 0001:0003b4f0       ??1CDictionary@@QAE@XZ     0043c4f0 f   Dictionary.obj
 0001:0003b510       ?DictLoad@CDictionary@@QAE_NPBD@Z 0043c510 f   Dictionary.obj
 0001:0003b720       ?Dict_Traversal@CDictionary@@AAE_NPAUStateInfo@1@AAHH@Z 0043c720 f   Dictionary.obj
 0001:0003b790       ?AddInfo@CDictionary@@AAEXQADPADHHPAUStateInfo@1@AAH@Z 0043c790 f   Dictionary.obj
 0001:0003bac0       ?Construct_Arrays@CDictionary@@AAE_NPBD@Z 0043cac0 f   Dictionary.obj
 0001:0003bdb0       ?FindVal@CDictionary@@AAE_NUStateInfo@1@@Z 0043cdb0 f   Dictionary.obj
 0001:0003bf50       ?FindVal@CDictionary@@AAE_NHH@Z 0043cf50 f   Dictionary.obj
 0001:0003c070       ?SaveArray@CDictionary@@QAE_NPBD0_N@Z 0043d070 f   Dictionary.obj
 0001:0003c260       ??7ios_base@std@@QBE_NXZ   0043d260 f i Dictionary.obj
 0001:0003c280       ?endl@std@@YAAAV?$basic_ostream@DU?$char_traits@D@std@@@1@AAV21@@Z 0043d280 f i Dictionary.obj
 0001:0003c2b0       ?Sort@CDictionary@@AAEXPAUStateInfo@1@H@Z 0043d2b0 f   Dictionary.obj
 0001:0003c2f0       ?ConsidSize@CDictionary@@AAE_NH@Z 0043d2f0 f   Dictionary.obj
 0001:0003c370       ?GetStatArraySub@CDictionary@@AAEHPBD@Z 0043d370 f   Dictionary.obj
 0001:0003c420       ?GetArraySize@CDictionary@@QAEIXZ 0043d420 f   Dictionary.obj
 0001:0003c440       ?Load@CDictionary@@QAE_NPBD@Z 0043d440 f   Dictionary.obj
 0001:0003c640       ?SearchWord@CDictionary@@QAEHPBD@Z 0043d640 f   Dictionary.obj
 0001:0003c760       ?AddChar@CDictionary@@AAE_NPBDH@Z 0043d760 f   Dictionary.obj
 0001:0003cb90       ?AddWord@CDictionary@@QAE_NPBD@Z 0043db90 f   Dictionary.obj
 0001:0003cc70       ?DeleteWord@CDictionary@@QAE_NPBD@Z 0043dc70 f   Dictionary.obj
 0001:0003d020       ?ReLocate@CDictionary@@AAE_NHHAAH@Z 0043e020 f   Dictionary.obj
 0001:0003d320       ?Find@CDictionary@@AAEHHPAH00@Z 0043e320 f   Dictionary.obj
 0001:0003d3e0       ?Find@CDictionary@@AAEHHPAH@Z 0043e3e0 f   Dictionary.obj
 0001:0003d450       ?Find@CDictionary@@AAEHH@Z 0043e450 f   Dictionary.obj
 0001:0003d4b0       ?FreeWordArray@CDictionary@@QAE_NXZ 0043e4b0 f   Dictionary.obj
 0001:0003d5f0       ??_G?$vector@HV?$allocator@H@std@@@std@@QAEPAXI@Z 0043e5f0 f i Dictionary.obj
 0001:0003d630       ??6?$basic_ostream@DU?$char_traits@D@std@@@std@@QAEAAV01@P6AAAV01@AAV01@@Z@Z 0043e630 f i Dictionary.obj
 0001:0003d650       ??6?$basic_ostream@DU?$char_traits@D@std@@@std@@QAEAAV01@H@Z 0043e650 f i Dictionary.obj
 0001:0003d820       ??6?$basic_ostream@DU?$char_traits@D@std@@@std@@QAEAAV01@I@Z 0043e820 f i Dictionary.obj
 0001:0003d9b0       ?put@?$basic_ostream@DU?$char_traits@D@std@@@std@@QAEAAV12@D@Z 0043e9b0 f i Dictionary.obj
 0001:0003dae0       ??0?$vector@HV?$allocator@H@std@@@std@@QAE@ABV?$allocator@H@1@@Z 0043eae0 f i Dictionary.obj
 0001:0003db20       ??1?$vector@HV?$allocator@H@std@@@std@@QAE@XZ 0043eb20 f i Dictionary.obj
 0001:0003db90       ?end@?$vector@HV?$allocator@H@std@@@std@@QAEPAHXZ 0043eb90 f i Dictionary.obj
 0001:0003dbb0       ?resize@?$vector@HV?$allocator@H@std@@@std@@QAEXIABH@Z 0043ebb0 f i Dictionary.obj
 0001:0003dc30       ?size@?$vector@HV?$allocator@H@std@@@std@@QBEIXZ 0043ec30 f i Dictionary.obj
 0001:0003dc70       ??A?$vector@HV?$allocator@H@std@@@std@@QAEAAHI@Z 0043ec70 f i Dictionary.obj
 0001:0003dca0       ?push_back@?$vector@HV?$allocator@H@std@@@std@@QAEXABH@Z 0043eca0 f i Dictionary.obj
 0001:0003dcd0       ??0?$basic_ofstream@DU?$char_traits@D@std@@@std@@QAE@PBDH@Z 0043ecd0 f i Dictionary.obj
 0001:0003ddb0       ?begin@?$vector@HV?$allocator@H@std@@@std@@QAEPAHXZ 0043edb0 f i Dictionary.obj
 0001:0003ddd0       ?insert@?$vector@HV?$allocator@H@std@@@std@@QAEPAHPAHABH@Z 0043edd0 f i Dictionary.obj
 0001:0003de20       ?insert@?$vector@HV?$allocator@H@std@@@std@@QAEXPAHIABH@Z 0043ee20 f i Dictionary.obj
 0001:0003e040       ?erase@?$vector@HV?$allocator@H@std@@@std@@QAEPAHPAH0@Z 0043f040 f i Dictionary.obj
 0001:0003e0a0       ?_Destroy@?$vector@HV?$allocator@H@std@@@std@@IAEXPAH0@Z 0043f0a0 f i Dictionary.obj
 0001:0003e0e0       ?put@?$num_put@DV?$ostreambuf_iterator@DU?$char_traits@D@std@@@std@@@std@@QBE?AV?$ostreambuf_iterator@DU?$char_traits@D@std@@@2@V32@AAVios_base@2@DJ@Z 0043f0e0 f i Dictionary.obj
 0001:0003e130       ?put@?$num_put@DV?$ostreambuf_iterator@DU?$char_traits@D@std@@@std@@@std@@QBE?AV?$ostreambuf_iterator@DU?$char_traits@D@std@@@2@V32@AAVios_base@2@DK@Z 0043f130 f i Dictionary.obj
 0001:0003e180       ?_Ucopy@?$vector@HV?$allocator@H@std@@@std@@IAEPAHPBH0PAH@Z 0043f180 f i Dictionary.obj
 0001:0003e1d0       ?_Ufill@?$vector@HV?$allocator@H@std@@@std@@IAEXPAHIABH@Z 0043f1d0 f i Dictionary.obj
 0001:0003e220       ?allocate@?$allocator@H@std@@QAEPAHIPBX@Z 0043f220 f i Dictionary.obj
 0001:0003e250       ?destroy@?$allocator@H@std@@QAEXPAH@Z 0043f250 f i Dictionary.obj
 0001:0003e280       ?construct@?$allocator@H@std@@QAEXPAHABH@Z 0043f280 f i Dictionary.obj
 0001:0003e2b0       ??6std@@YAAAV?$basic_ostream@DU?$char_traits@D@std@@@0@AAV10@D@Z 0043f2b0 f i Dictionary.obj
 0001:0003e560       ?stable_sort@std@@YAXPAUStateInfo@CDictionary@@0VComp@3@@Z 0043f560 f i Dictionary.obj
 0001:0003e5b0       ?fill@std@@YAXPAH0ABH@Z    0043f5b0 f i Dictionary.obj
 0001:0003e5e0       ?copy_backward@std@@YAPAHPAH00@Z 0043f5e0 f i Dictionary.obj
 0001:0003e620       ?copy@std@@YAPAHPAH00@Z    0043f620 f i Dictionary.obj
 0001:0003e660       ?_Allocate@std@@YAPAHHPAH@Z 0043f660 f i Dictionary.obj
 0001:0003e690       ?_Destroy@std@@YAXPAH@Z    0043f690 f i Dictionary.obj
 0001:0003e6a0       ?_Construct@std@@YAXPAHABH@Z 0043f6a0 f i Dictionary.obj
 0001:0003e6e0       ?_Dist_type@std@@YAPAHPBUStateInfo@CDictionary@@@Z 0043f6e0 f i Dictionary.obj
 0001:0003e700       ?_Val_type@std@@YAPAUStateInfo@CDictionary@@PBU23@@Z 0043f700 f i Dictionary.obj
 0001:0003e720       ?_Stable_sort@std@@YAXPAUStateInfo@CDictionary@@0PAH0VComp@3@@Z 0043f720 f i Dictionary.obj
 0001:0003e870       ??0?$_Temp_iterator@UStateInfo@CDictionary@@@std@@QAE@H@Z 0043f870 f i Dictionary.obj
 0001:0003e8e0       ??1?$_Temp_iterator@UStateInfo@CDictionary@@@std@@QAE@XZ 0043f8e0 f i Dictionary.obj
 0001:0003e940       ?_Distance@std@@YAXPAUStateInfo@CDictionary@@0AAH@Z 0043f940 f i Dictionary.obj
 0001:0003e980       ?_Stable_sort@std@@YAXPAUStateInfo@CDictionary@@0HAAV?$_Temp_iterator@UStateInfo@CDictionary@@@1@VComp@3@@Z 0043f980 f i Dictionary.obj
 0001:0003ea80       ?get_temporary_buffer@std@@YA?AU?$pair@PAUStateInfo@CDictionary@@H@1@HPAUStateInfo@CDictionary@@@Z 0043fa80 f i Dictionary.obj
 0001:0003eaf0       ?_Destroy@std@@YAXPAUStateInfo@CDictionary@@@Z 0043faf0 f i Dictionary.obj
 0001:0003eb00       ?return_temporary_buffer@std@@YAXPAUStateInfo@CDictionary@@@Z 0043fb00 f i Dictionary.obj
 0001:0003eb20       ?_Maxlen@?$_Temp_iterator@UStateInfo@CDictionary@@@std@@QBEHXZ 0043fb20 f i Dictionary.obj
 0001:0003eb40       ??0?$pair@PAUStateInfo@CDictionary@@H@std@@QAE@ABQAUStateInfo@CDictionary@@ABH@Z 0043fb40 f i Dictionary.obj
 0001:0003eb70       ?_Iter_cat@std@@YA?AUrandom_access_iterator_tag@1@PBUStateInfo@CDictionary@@@Z 0043fb70 f i Dictionary.obj
 0001:0003eba0       ?_Distance@std@@YAXPAUStateInfo@CDictionary@@0AAHUrandom_access_iterator_tag@1@@Z 0043fba0 f i Dictionary.obj
 0001:0003ebd0       ?_Insertion_sort@std@@YAXPAUStateInfo@CDictionary@@0VComp@3@@Z 0043fbd0 f i Dictionary.obj
 0001:0003ec10       ?advance@std@@YAXAAPAUStateInfo@CDictionary@@H@Z 0043fc10 f i Dictionary.obj
 0001:0003ec50       ?_Buffered_merge_sort@std@@YAXPAUStateInfo@CDictionary@@0HAAV?$_Temp_iterator@UStateInfo@CDictionary@@@1@VComp@3@@Z 0043fc50 f i Dictionary.obj
 0001:0003ed40       ?_Buffered_merge@std@@YAXPAUStateInfo@CDictionary@@00HHAAV?$_Temp_iterator@UStateInfo@CDictionary@@@1@VComp@3@@Z 0043fd40 f i Dictionary.obj
 0001:0003eff0       ??RComp@CDictionary@@QAE_NABUStateInfo@1@0@Z 0043fff0 f i Dictionary.obj
 0001:0003f020       ??0?$_Temp_iterator@UStateInfo@CDictionary@@@std@@QAE@ABV01@@Z 00440020 f i Dictionary.obj
 0001:0003f070       ?_Init@?$_Temp_iterator@UStateInfo@CDictionary@@@std@@QAEAAV12@XZ 00440070 f i Dictionary.obj
 0001:0003f0a0       ?_First@?$_Temp_iterator@UStateInfo@CDictionary@@@std@@QBEPAUStateInfo@CDictionary@@XZ 004400a0 f i Dictionary.obj
 0001:0003f0c0       ?_Last@?$_Temp_iterator@UStateInfo@CDictionary@@@std@@QBEPAUStateInfo@CDictionary@@XZ 004400c0 f i Dictionary.obj
 0001:0003f0e0       ??4?$_Temp_iterator@UStateInfo@CDictionary@@@std@@QAEAAV01@ABV01@@Z 004400e0 f i Dictionary.obj
 0001:0003f110       ?_Insertion_sort_1@std@@YAXPAUStateInfo@CDictionary@@0VComp@3@0@Z 00440110 f i Dictionary.obj
 0001:0003f1d0       ?_Advance@std@@YAXAAPAUStateInfo@CDictionary@@HUrandom_access_iterator_tag@1@@Z 004401d0 f i Dictionary.obj
 0001:0003f200       ?_Chunked_merge@std@@YAXPAUStateInfo@CDictionary@@0AAV?$_Temp_iterator@UStateInfo@CDictionary@@@1@HHVComp@3@@Z 00440200 f i Dictionary.obj
 0001:0003f380       ?_Chunked_merge@std@@YAXPAUStateInfo@CDictionary@@0AAPAU23@HHVComp@3@@Z 00440380 f i Dictionary.obj
 0001:0003f460       ?iter_swap@std@@YAXPAUStateInfo@CDictionary@@0@Z 00440460 f i Dictionary.obj
 0001:0003f490       ?copy@std@@YA?AV?$_Temp_iterator@UStateInfo@CDictionary@@@1@PAUStateInfo@CDictionary@@0V21@@Z 00440490 f i Dictionary.obj
 0001:0003f530       ?merge@std@@YAPAUStateInfo@CDictionary@@PAU23@0000VComp@3@@Z 00440530 f i Dictionary.obj
 0001:0003f5e0       ?_Merge_backward@std@@YAPAUStateInfo@CDictionary@@PAU23@0000VComp@3@@Z 004405e0 f i Dictionary.obj
 0001:0003f6c0       ?lower_bound@std@@YAPAUStateInfo@CDictionary@@PAU23@0ABU23@VComp@3@@Z 004406c0 f i Dictionary.obj
 0001:0003f700       ?upper_bound@std@@YAPAUStateInfo@CDictionary@@PAU23@0ABU23@VComp@3@@Z 00440700 f i Dictionary.obj
 0001:0003f740       ?_Buffered_rotate@std@@YAPAUStateInfo@CDictionary@@PAU23@00HHAAV?$_Temp_iterator@UStateInfo@CDictionary@@@1@@Z 00440740 f i Dictionary.obj
 0001:0003f880       ??4?$_Temp_iterator@UStateInfo@CDictionary@@@std@@QAEAAV01@ABUStateInfo@CDictionary@@@Z 00440880 f i Dictionary.obj
 0001:0003f920       ??D?$_Temp_iterator@UStateInfo@CDictionary@@@std@@QAEAAV01@XZ 00440920 f i Dictionary.obj
 0001:0003f940       ??E?$_Temp_iterator@UStateInfo@CDictionary@@@std@@QAEAAV01@XZ 00440940 f i Dictionary.obj
 0001:0003f960       ?_Unguarded_insert@std@@YAXPAUStateInfo@CDictionary@@U23@VComp@3@@Z 00440960 f i Dictionary.obj
 0001:0003f9d0       ?copy_backward@std@@YAPAUStateInfo@CDictionary@@PAU23@00@Z 004409d0 f i Dictionary.obj
 0001:0003fa20       ?merge@std@@YA?AV?$_Temp_iterator@UStateInfo@CDictionary@@@1@PAUStateInfo@CDictionary@@000V21@VComp@4@@Z 00440a20 f i Dictionary.obj
 0001:0003fb40       ?copy@std@@YAPAUStateInfo@CDictionary@@PAU23@00@Z 00440b40 f i Dictionary.obj
 0001:0003fb90       ?_Iter_swap@std@@YAXPAUStateInfo@CDictionary@@00@Z 00440b90 f i Dictionary.obj
 0001:0003fbe0       ?_Lower_bound@std@@YAPAUStateInfo@CDictionary@@PAU23@0ABU23@VComp@3@PAH@Z 00440be0 f i Dictionary.obj
 0001:0003fc80       ?_Upper_bound@std@@YAPAUStateInfo@CDictionary@@PAU23@0ABU23@VComp@3@PAH@Z 00440c80 f i Dictionary.obj
 0001:0003fd20       ?rotate@std@@YAXPAUStateInfo@CDictionary@@00@Z 00440d20 f i Dictionary.obj
 0001:0003fd70       ?_Construct@std@@YAXPAUStateInfo@CDictionary@@ABU23@@Z 00440d70 f i Dictionary.obj
 0001:0003fdc0       ?_Rotate@std@@YAXPAUStateInfo@CDictionary@@00Urandom_access_iterator_tag@1@@Z 00440dc0 f i Dictionary.obj
 0001:0003fe00       ?_Rotate@std@@YAXPAUStateInfo@CDictionary@@00PAH0@Z 00440e00 f i Dictionary.obj
 0001:0003ff60       ??0CDlgBrowser@@QAE@PAVCWnd@@@Z 00440f60 f   DlgBrowser.obj
 0001:00040030       ??_GCDlgBrowser@@UAEPAXI@Z 00441030 f i DlgBrowser.obj
 0001:00040070       ??0CWebBrowser@@QAE@XZ     00441070 f i DlgBrowser.obj
 0001:000400a0       ?Create@CWebBrowser@@UAEHPBD0KABUtagRECT@@PAVCWnd@@IPAUCCreateContext@@@Z 004410a0 f i DlgBrowser.obj
 0001:000400e0       ?GetClsid@CWebBrowser@@QAEABU_GUID@@XZ 004410e0 f i DlgBrowser.obj
 0001:00040100       ??1CWebBrowser@@UAE@XZ     00441100 f i DlgBrowser.obj
 0001:00040120       ??1CDlgBrowser@@UAE@XZ     00441120 f i DlgBrowser.obj
 0001:00040190       ??_GCWebBrowser@@UAEPAXI@Z 00441190 f i DlgBrowser.obj
 0001:00040190       ??_ECWebBrowser@@UAEPAXI@Z 00441190 f i DlgBrowser.obj
 0001:000401d0       ?DoDataExchange@CDlgBrowser@@MAEXPAVCDataExchange@@@Z 004411d0 f   DlgBrowser.obj
 0001:00040210       ?GetMessageMap@CDlgBrowser@@MBEPBUAFX_MSGMAP@@XZ 00441210 f   DlgBrowser.obj
 0001:00040230       ?GetEventSinkMap@CDlgBrowser@@MBEPBUAFX_EVENTSINKMAP@@XZ 00441230 f   DlgBrowser.obj
 0001:00040250       ?OnInitialUpdate@CDlgBrowser@@MAEXXZ 00441250 f   DlgBrowser.obj
 0001:00040280       ?OnDocumentCompleteExplorer@CDlgBrowser@@IAEXPAUIDispatch@@PAUtagVARIANT@@@Z 00441280 f   DlgBrowser.obj
 0001:00040310       ?loadGoogleCache@CDlgBrowser@@QAEXXZ 00441310 f   DlgBrowser.obj
 0001:000403d0       ?GoToURL@CDlgBrowser@@QAEXABVCString@@@Z 004413d0 f   DlgBrowser.obj
 0001:00040420       ?OnNewWindow2Explorer@CDlgBrowser@@IAEXPAPAUIDispatch@@PAH@Z 00441420 f   DlgBrowser.obj
 0001:00040440       ??0CDlgICPage@@QAE@PAVCWnd@@@Z 00441440 f   DlgICPage.obj
 0001:00040500       ??_GCDlgICPage@@UAEPAXI@Z  00441500 f i DlgICPage.obj
 0001:00040500       ??_ECDlgICPage@@UAEPAXI@Z  00441500 f i DlgICPage.obj
 0001:00040540       ??1CDlgICPage@@UAE@XZ      00441540 f i DlgICPage.obj
 0001:000405c0       ?DoDataExchange@CDlgICPage@@MAEXPAVCDataExchange@@@Z 004415c0 f   DlgICPage.obj
 0001:00040630       ?GetMessageMap@CDlgICPage@@MBEPBUAFX_MSGMAP@@XZ 00441630 f   DlgICPage.obj
 0001:00040650       ?OnInitDialog@CDlgICPage@@MAEHXZ 00441650 f   DlgICPage.obj
 0001:000406a0       ?OnUpdateEditLabel@CDlgICPage@@IAEXXZ 004416a0 f   DlgICPage.obj
 0001:000406c0       ?OnUpdateEditDesc@CDlgICPage@@IAEXXZ 004416c0 f   DlgICPage.obj
 0001:000406e0       ?refreshButton@CDlgICPage@@IAEXXZ 004416e0 f   DlgICPage.obj
 0001:00040730       ?PreTranslateMessage@CDlgICPage@@UAEHPAUtagMSG@@@Z 00441730 f   DlgICPage.obj
 0001:00040800       ??0CDlgPageProp@@QAE@PAVCViewOnLine@@@Z 00441800 f   DlgPageProp.obj
 0001:00040970       ??_ECDlgPageProp@@UAEPAXI@Z 00441970 f i DlgPageProp.obj
 0001:00040970       ??_GCDlgPageProp@@UAEPAXI@Z 00441970 f i DlgPageProp.obj
 0001:000409b0       ??1CDlgPageProp@@UAE@XZ    004419b0 f i DlgPageProp.obj
 0001:00040a70       ?DoDataExchange@CDlgPageProp@@MAEXPAVCDataExchange@@@Z 00441a70 f   DlgPageProp.obj
 0001:00040b50       ?GetMessageMap@CDlgPageProp@@MBEPBUAFX_MSGMAP@@XZ 00441b50 f   DlgPageProp.obj
 0001:00040b70       ?OnInitDialog@CDlgPageProp@@MAEHXZ 00441b70 f   DlgPageProp.obj
 0001:00040ba0       ?refreshButtons@CDlgPageProp@@QAEXXZ 00441ba0 f   DlgPageProp.obj
 0001:00040c30       ?OnUpdateEditLabel@CDlgPageProp@@IAEXXZ 00441c30 f   DlgPageProp.obj
 0001:00040c60       ?OnOK@CDlgPageProp@@MAEXXZ 00441c60 f   DlgPageProp.obj
 0001:00040d10       ?OnCheckAnnotated@CDlgPageProp@@IAEXXZ 00441d10 f   DlgPageProp.obj
 0001:00040d40       ??0CDlgSuggest@@QAE@PAVCWnd@@@Z 00441d40 f   DlgSuggest.obj
 0001:00040de0       ??_GCDlgSuggest@@UAEPAXI@Z 00441de0 f i DlgSuggest.obj
 0001:00040de0       ??_ECDlgSuggest@@UAEPAXI@Z 00441de0 f i DlgSuggest.obj
 0001:00040e20       ??1CDlgSuggest@@UAE@XZ     00441e20 f i DlgSuggest.obj
 0001:00040eb0       ?DoDataExchange@CDlgSuggest@@MAEXPAVCDataExchange@@@Z 00441eb0 f   DlgSuggest.obj
 0001:00040f30       ?GetMessageMap@CDlgSuggest@@MBEPBUAFX_MSGMAP@@XZ 00441f30 f   DlgSuggest.obj
 0001:00040f50       ?OnInitDialog@CDlgSuggest@@MAEHXZ 00441f50 f   DlgSuggest.obj
 0001:00041030       ??0CHtmlEditCtrl@@QAE@XZ   00442030 f   editview.obj
 0001:00041060       ??_ECHtmlEditCtrl@@MAEPAXI@Z 00442060 f i editview.obj
 0001:00041060       ??_GCHtmlEditCtrl@@MAEPAXI@Z 00442060 f i editview.obj
 0001:000410a0       ??1CHtmlEditCtrl@@MAE@XZ   004420a0 f   editview.obj
 0001:000410d0       ?GetEventSinkMap@CHtmlEditCtrl@@MBEPBUAFX_EVENTSINKMAP@@XZ 004420d0 f   editview.obj
 0001:000410f0       ?_OnNavigateComplete2@CHtmlEditCtrl@@IAEXPAUIDispatch@@PAUtagVARIANT@@@Z 004420f0 f   editview.obj
 0001:00041120       ?GetDHtmlDocument@CHtmlEditCtrl@@QBEHPAPAUIHTMLDocument2@@@Z 00442120 f   editview.obj
 0001:00041220       ?Create@CHtmlEditCtrl@@UAEHPBDKABUtagRECT@@PAVCWnd@@HPAUCCreateContext@@@Z 00442220 f   editview.obj
 0001:00041370       ??BCComBSTR@ATL@@QBEPAGXZ  00442370 f i editview.obj
 0001:00041390       ??0CComBSTR@ATL@@QAE@PBD@Z 00442390 f i editview.obj
 0001:000413c0       ?A2WBSTR@@YAPAGPBDH@Z      004423c0 f i editview.obj
 0001:00041430       ??0CComVariant@ATL@@QAE@XZ 00442430 f i editview.obj
 0001:00041450       ??1CComVariant@ATL@@QAE@XZ 00442450 f i editview.obj
 0001:00041470       ?Clear@CComVariant@ATL@@QAEJXZ 00442470 f i editview.obj
 0001:00041490       ?GetStartDocument@CHtmlEditCtrl@@UAEPBDXZ 00442490 f   editview.obj
 0001:000414b0       ?GetMessageMap@CHtmlEditView@@MBEPBUAFX_MSGMAP@@XZ 004424b0 f   editview.obj
 0001:000414d0       ?OnPaint@CHtmlEditView@@QAEXXZ 004424d0 f   editview.obj
 0001:000414f0       ??0CHtmlEditView@@QAE@XZ   004424f0 f   editview.obj
 0001:00041530       ??_GCHtmlEditView@@UAEPAXI@Z 00442530 f i editview.obj
 0001:00041530       ??_ECHtmlEditView@@UAEPAXI@Z 00442530 f i editview.obj
 0001:00041570       ??1CHtmlEditView@@UAE@XZ   00442570 f   editview.obj
 0001:000415a0       ?EnableDesignMode@CHtmlEditView@@QAEXH@Z 004425a0 f   editview.obj
 0001:000415d0       ?GetStartDocument@CHtmlEditView@@UAEPBDXZ 004425d0 f   editview.obj
 0001:000415f0       ?Create@CHtmlEditView@@UAEHPBD0KABUtagRECT@@PAVCWnd@@IPAUCCreateContext@@@Z 004425f0 f   editview.obj
 0001:00041670       ?OnCmdMsg@CHtmlEditView@@UAEHIHPAXPAUAFX_CMDHANDLERINFO@@@Z 00442670 f   editview.obj
 0001:000418a0       ?GetDHtmlDocument@CHtmlEditView@@QBEHPAPAUIHTMLDocument2@@@Z 004428a0 f   editview.obj
 0001:00041990       ?OnNavigateComplete2@CHtmlEditView@@UAEXPBD@Z 00442990 f   editview.obj
 0001:000419c0       ?OnPreparePrinting@CHtmlEditView@@UAEHPAUCPrintInfo@@@Z 004429c0 f   editview.obj
 0001:000419e0       ?GetDHtmlCommandMapping@CHtmlEditView@@UAEIIAAHAAI@Z 004429e0 f   editview.obj
 0001:00041a10       ?ExecHandler@CHtmlEditView@@UAEHI@Z 00442a10 f   editview.obj
 0001:00041a30       ??0CHtmlEditDoc@@QAE@XZ    00442a30 f   editview.obj
 0001:00041a50       ??1CHtmlEditDoc@@UAE@XZ    00442a50 f   editview.obj
 0001:00041a70       ?GetView@CHtmlEditDoc@@UBEPAVCHtmlEditView@@XZ 00442a70 f   editview.obj
 0001:00041ae0       ?DeleteContents@CHtmlEditDoc@@UAEXXZ 00442ae0 f   editview.obj
 0001:00041b40       ?IsModified@CHtmlEditDoc@@UAEHXZ 00442b40 f   editview.obj
 0001:00041b90       ?OpenURL@CHtmlEditDoc@@UAEHPBD@Z 00442b90 f   editview.obj
 0001:00041c00       ?OnOpenDocument@CHtmlEditDoc@@UAEHPBD@Z 00442c00 f   editview.obj
 0001:00041c70       ?OnSaveDocument@CHtmlEditDoc@@UAEHPBD@Z 00442c70 f   editview.obj
 0001:00041de0       ?OnNewDocument@CHtmlEditDoc@@UAEHXZ 00442de0 f   editview.obj
 0001:00041e20       ?AtlComQIPtrAssign@ATL@@YGPAUIUnknown@@PAPAU2@PAU2@ABU_GUID@@@Z 00442e20 f i editview.obj
 0001:00041f00       ??0CEnTabCtrl@@QAE@XZ      00442f00 f   EnTabCtrl.obj
 0001:00041f90       ??_ECEnTabCtrl@@UAEPAXI@Z  00442f90 f i EnTabCtrl.obj
 0001:00041f90       ??_GCEnTabCtrl@@UAEPAXI@Z  00442f90 f i EnTabCtrl.obj
 0001:00041fd0       ??1CEnTabCtrl@@UAE@XZ      00442fd0 f   EnTabCtrl.obj
 0001:00042060       ?DrawItem@CEnTabCtrl@@MAEXPAUtagDRAWITEMSTRUCT@@@Z 00443060 f   EnTabCtrl.obj
 0001:00042670       ??0CRect@@QAE@ABUtagRECT@@@Z 00443670 f i EnTabCtrl.obj
 0001:000426a0       ?PtInRect@CRect@@QBEHUtagPOINT@@@Z 004436a0 f i EnTabCtrl.obj
 0001:000426d0       ??BCDC@@QBEPAUHDC__@@XZ    004436d0 f i EnTabCtrl.obj
 0001:00042700       ?ScreenToClient@CWnd@@QBEXPAUtagPOINT@@@Z 00443700 f i EnTabCtrl.obj
 0001:00042730       ?GetImageInfo@CImageList@@QBEHHPAU_IMAGEINFO@@@Z 00443730 f i EnTabCtrl.obj
 0001:00042760       ?GetImageList@CTabCtrl@@QBEPAVCImageList@@XZ 00443760 f i EnTabCtrl.obj
 0001:00042790       ?DrawItemBorder@CEnTabCtrl@@MAEXPAUtagDRAWITEMSTRUCT@@@Z 00443790 f   EnTabCtrl.obj
 0001:00042960       ?DrawMainBorder@CEnTabCtrl@@MAEXPAUtagDRAWITEMSTRUCT@@@Z 00443960 f   EnTabCtrl.obj
 0001:000429f0       ?GetTabColor@CEnTabCtrl@@MAEKH@Z 004439f0 f   EnTabCtrl.obj
 0001:00042a20       ?EnableCustomLook@CEnTabCtrl@@SAXHK@Z 00443a20 f   EnTabCtrl.obj
 0001:00042a50       ?PreSubclassWindow@CEnTabCtrl@@MAEXXZ 00443a50 f   EnTabCtrl.obj
 0001:00042a90       ?SetFonts@CEnTabCtrl@@QAEXHHHHHH@Z 00443a90 f   EnTabCtrl.obj
 0001:00042b80       ?CreateFontIndirectA@CFont@@QAEHPBUtagLOGFONTA@@@Z 00443b80 f i EnTabCtrl.obj
 0001:00042bb0       ?SetFont@CWnd@@QAEXPAVCFont@@H@Z 00443bb0 f i EnTabCtrl.obj
 0001:00042bf0       ?OnLButtonUp@CEnTabCtrl@@IAEXIVCPoint@@@Z 00443bf0 f   EnTabCtrl.obj
 0001:00042cb0       ?InvalidateRect@CWnd@@QAEXPBUtagRECT@@H@Z 00443cb0 f i EnTabCtrl.obj
 0001:00042ce0       ?OnLButtonUp@CWnd@@IAEXIVCPoint@@@Z 00443ce0 f i EnTabCtrl.obj
 0001:00042d00       ?OnLButtonDown@CEnTabCtrl@@IAEXIVCPoint@@@Z 00443d00 f   EnTabCtrl.obj
 0001:00042db0       ?OnLButtonDown@CWnd@@IAEXIVCPoint@@@Z 00443db0 f i EnTabCtrl.obj
 0001:00042dd0       ?OnMouseMove@CEnTabCtrl@@IAEXIVCPoint@@@Z 00443dd0 f   EnTabCtrl.obj
 0001:00042e50       ?OnMouseMove@CWnd@@IAEXIVCPoint@@@Z 00443e50 f i EnTabCtrl.obj
 0001:00042e70       ?OnLButtonDblClk@CEnTabCtrl@@IAEXIVCPoint@@@Z 00443e70 f   EnTabCtrl.obj
 0001:00042f60       ??0CEvaluation@@QAE@XZ     00443f60 f   Evaluation.obj
 0001:00043070       ??_ECEvaluation@@UAEPAXI@Z 00444070 f i Evaluation.obj
 0001:00043070       ??_GCEvaluation@@UAEPAXI@Z 00444070 f i Evaluation.obj
 0001:000430b0       ??1CEvaluation@@UAE@XZ     004440b0 f   Evaluation.obj
 0001:00043170       ?runEvaluation@CEvaluation@@QAE_NXZ 00444170 f   Evaluation.obj
 0001:00043400       ?getPageno@CPageCache@@QAEJXZ 00444400 f i Evaluation.obj
 0001:00043460       ??0CExternalUtilItem@@QAE@XZ 00444460 f   ExternalUtilItem.obj
 0001:000434f0       ??_ECExternalUtilItem@@UAEPAXI@Z 004444f0 f i ExternalUtilItem.obj
 0001:000434f0       ??_GCExternalUtilItem@@UAEPAXI@Z 004444f0 f i ExternalUtilItem.obj
 0001:00043530       ??1CExternalUtilItem@@UAE@XZ 00444530 f   ExternalUtilItem.obj
 0001:000435b0       ??0CExternalUtilList@@QAE@XZ 004445b0 f   ExternalUtilItem.obj
 0001:000435e0       ??_GCExternalUtilList@@UAEPAXI@Z 004445e0 f i ExternalUtilItem.obj
 0001:000435e0       ??_ECExternalUtilList@@UAEPAXI@Z 004445e0 f i ExternalUtilItem.obj
 0001:00043620       ??1CExternalUtilList@@UAE@XZ 00444620 f   ExternalUtilItem.obj
 0001:00043680       ?RemoveAll@CExternalUtilList@@QAEXXZ 00444680 f   ExternalUtilItem.obj
 0001:00043700       ?Clone@CExternalUtilList@@QAEXPAV1@@Z 00444700 f   ExternalUtilItem.obj
 0001:00043850       ??0?$CArray@PAVCExternalUtilItem@@PAV1@@@QAE@XZ 00444850 f i ExternalUtilItem.obj
 0001:000438a0       ?GetUpperBound@?$CArray@PAVCExternalUtilItem@@PAV1@@@QBEHXZ 004448a0 f i ExternalUtilItem.obj
 0001:000438c0       ?RemoveAll@?$CArray@PAVCExternalUtilItem@@PAV1@@@QAEXXZ 004448c0 f i ExternalUtilItem.obj
 0001:000438e0       ?Add@?$CArray@PAVCExternalUtilItem@@PAV1@@@QAEHPAVCExternalUtilItem@@@Z 004448e0 f i ExternalUtilItem.obj
 0001:00043920       ??1?$CArray@PAVCExternalUtilItem@@PAV1@@@UAE@XZ 00444920 f i ExternalUtilItem.obj
 0001:000439b0       ?Serialize@?$CArray@PAVCExternalUtilItem@@PAV1@@@UAEXAAVCArchive@@@Z 004449b0 f i ExternalUtilItem.obj
 0001:00043a20       ??_G?$CArray@PAVCExternalUtilItem@@PAV1@@@UAEPAXI@Z 00444a20 f i ExternalUtilItem.obj
 0001:00043a20       ??_E?$CArray@PAVCExternalUtilItem@@PAV1@@@UAEPAXI@Z 00444a20 f i ExternalUtilItem.obj
 0001:00043a60       ?SetSize@?$CArray@PAVCExternalUtilItem@@PAV1@@@QAEXHH@Z 00444a60 f i ExternalUtilItem.obj
 0001:00043c90       ?SetAtGrow@?$CArray@PAVCExternalUtilItem@@PAV1@@@QAEXHPAVCExternalUtilItem@@@Z 00444c90 f i ExternalUtilItem.obj
 0001:00043cd0       ?DestructElements@@YGXPAPAVCExternalUtilItem@@H@Z 00444cd0 f i ExternalUtilItem.obj
 0001:00043d00       ?SerializeElements@@YGXAAVCArchive@@PAPAVCExternalUtilItem@@H@Z 00444d00 f i ExternalUtilItem.obj
 0001:00043d50       ?ConstructElements@@YGXPAPAVCExternalUtilItem@@H@Z 00444d50 f i ExternalUtilItem.obj
 0001:00043e30       ??0CExternalUtils@@QAE@PAVCWnd@@@Z 00444e30 f   ExternalUtils.obj
 0001:00043f30       ??_GCExternalUtils@@UAEPAXI@Z 00444f30 f i ExternalUtils.obj
 0001:00043f30       ??_ECExternalUtils@@UAEPAXI@Z 00444f30 f i ExternalUtils.obj
 0001:00043f70       ??1CExternalUtils@@UAE@XZ  00444f70 f i ExternalUtils.obj
 0001:00044050       ?DoDataExchange@CExternalUtils@@MAEXPAVCDataExchange@@@Z 00445050 f   ExternalUtils.obj
 0001:00044130       ?GetMessageMap@CExternalUtils@@MBEPBUAFX_MSGMAP@@XZ 00445130 f   ExternalUtils.obj
 0001:00044150       ?OnInitDialog@CExternalUtils@@MAEHXZ 00445150 f   ExternalUtils.obj
 0001:000443a0       ?InsertItem@CListCtrl@@QAEHHPBD@Z 004453a0 f i ExternalUtils.obj
 0001:000443d0       ?OnOK@CExternalUtils@@MAEXXZ 004453d0 f   ExternalUtils.obj
 0001:00044470       ?OnAddUtil@CExternalUtils@@IAEXXZ 00445470 f   ExternalUtils.obj
 0001:00044750       ?OnModUtil@CExternalUtils@@IAEXXZ 00445750 f   ExternalUtils.obj
 0001:000449d0       ?OnDelUtil@CExternalUtils@@IAEXXZ 004459d0 f   ExternalUtils.obj
 0001:00044ab0       ?OnDeltaposSpin1@CExternalUtils@@IAEXPAUtagNMHDR@@PAJ@Z 00445ab0 f   ExternalUtils.obj
 0001:00044cc0       ?OnEndlabeleditExternUtil@CExternalUtils@@IAEXPAUtagNMHDR@@PAJ@Z 00445cc0 f   ExternalUtils.obj
 0001:00044d90       ?GetEditControl@CListCtrl@@QBEPAVCEdit@@XZ 00445d90 f i ExternalUtils.obj
 0001:00044dc0       ?OnItemchangedExternUtil@CExternalUtils@@IAEXPAUtagNMHDR@@PAJ@Z 00445dc0 f   ExternalUtils.obj
 0001:00044fc0       ?InsertApp@CExternalUtils@@QAEXVCString@@@Z 00445fc0 f   ExternalUtils.obj
 0001:00045170       ?OnBrowserFile@CExternalUtils@@IAEXXZ 00446170 f   ExternalUtils.obj
 0001:00045280       ?OnImportPlugIn@CExternalUtils@@IAEXXZ 00446280 f   ExternalUtils.obj
 0001:00045620       ?OnBrowserPath@CExternalUtils@@IAEXXZ 00446620 f   ExternalUtils.obj
 0001:00045700       ?OnClean@CExternalUtils@@IAEXXZ 00446700 f   ExternalUtils.obj
 0001:00045790       ?OnAutoRun@CExternalUtils@@IAEXXZ 00446790 f   ExternalUtils.obj
 0001:00045800       ?OnDblclkExternUtil@CExternalUtils@@IAEXPAUtagNMHDR@@PAJ@Z 00446800 f   ExternalUtils.obj
 0001:00045910       ?SetAt@?$CArray@PAVCExternalUtilItem@@PAV1@@@QAEXHPAVCExternalUtilItem@@@Z 00446910 f i ExternalUtils.obj
 0001:00045940       ?RemoveAt@?$CArray@PAVCExternalUtilItem@@PAV1@@@QAEXHH@Z 00446940 f i ExternalUtils.obj
 0001:00045a00       ??0Extractor@@QAE@XZ       00446a00 f   Extractor.obj
 0001:00045b20       ??_EExtractor@@UAEPAXI@Z   00446b20 f i Extractor.obj
 0001:00045b20       ??_GExtractor@@UAEPAXI@Z   00446b20 f i Extractor.obj
 0001:00045b60       ??1Extractor@@UAE@XZ       00446b60 f   Extractor.obj
 0001:00045c10       ??_GList@@QAEPAXI@Z        00446c10 f i Extractor.obj
 0001:00045c50       ?Exec@Extractor@@QAEXXZ    00446c50 f   Extractor.obj
 0001:00045cd0       ?size@List@@QAEHXZ         00446cd0 f i Extractor.obj
 0001:00045cf0       ?clearSessionWords@Extractor@@QAEXXZ 00446cf0 f i Extractor.obj
 0001:00045d20       ?clearSessionWords@CFeatureExtraction@@QAEXXZ 00446d20 f i Extractor.obj
 0001:00045d50       ?genLatestICSession@Extractor@@QAEPAVCICSession@@XZ 00446d50 f   Extractor.obj
 0001:00045db0       ?genICSessions@Extractor@@AAEXXZ 00446db0 f   Extractor.obj
 0001:00045e20       ?extractFeature@Extractor@@QAEXPAVCICSession@@@Z 00446e20 f   Extractor.obj
 0001:00045e70       ?setSession@CFeatureExtraction@@QAEXPAVCICSession@@@Z 00446e70 f i Extractor.obj
 0001:00045eb0       ?setType@CFeatureExtraction@@QAEXH@Z 00446eb0 f i Extractor.obj
 0001:00045ed0       ??0CFeatureExtraction@@QAE@XZ 00446ed0 f   FeatureExtraction.obj
 0001:00045f20       ??_GCFeatureExtraction@@UAEPAXI@Z 00446f20 f i FeatureExtraction.obj
 0001:00045f20       ??_ECFeatureExtraction@@UAEPAXI@Z 00446f20 f i FeatureExtraction.obj
 0001:00045f60       ??1CFeatureExtraction@@UAE@XZ 00446f60 f   FeatureExtraction.obj
 0001:00045ff0       ??_GHash@@QAEPAXI@Z        00446ff0 f i FeatureExtraction.obj
 0001:00046030       ?Exec@CFeatureExtraction@@QAEXXZ 00447030 f   FeatureExtraction.obj
 0001:000460a0       ?genBrowsingBehavior@CFeatureExtraction@@IAEXPAVList@@@Z 004470a0 f   FeatureExtraction.obj
 0001:00046670       ?genWordVectors@CFeatureExtraction@@IAEXPAVList@@PAVHash@@1@Z 00447670 f   FeatureExtraction.obj
 0001:000468e0       ?size@Hash@@QAEHXZ         004478e0 f i FeatureExtraction.obj
 0001:00046900       ?resetSeek@Hash@@QAEXXZ    00447900 f i FeatureExtraction.obj
 0001:00046930       ?getPage@CFeatureExtraction@@IAEPAVCPageCache@@H@Z 00447930 f   FeatureExtraction.obj
 0001:00046960       ?SequentialState@CFeatureExtraction@@IAEXPAVList@@PAVCItemSet@@@Z 00447960 f   FeatureExtraction.obj
 0001:00046ab0       ?FindLocation@CFeatureExtraction@@QAEHABVCStringArray@@ABVCString@@@Z 00447ab0 f   FeatureExtraction.obj
 0001:00046b80       ??ACStringArray@@QBE?AVCString@@H@Z 00447b80 f i FeatureExtraction.obj
 0001:00046bc0       ?GetAt@CStringArray@@QBE?AVCString@@H@Z 00447bc0 f i FeatureExtraction.obj
 0001:00046c00       ?PageProcess@CFeatureExtraction@@IAEXHPAVCPageCache@@PAVCItemSet@@ABVCString@@PAVHash@@@Z 00447c00 f   FeatureExtraction.obj
 0001:00046f80       ??1CException@@UAE@XZ      00447f80 f i FeatureExtraction.obj
 0001:00046fa0       ?size@CItemSet@@QAEHXZ     00447fa0 f i FeatureExtraction.obj
 0001:00046fc0       ?getWord@CPageCacheWord@@QAEAAVCString@@XZ 00447fc0 f i FeatureExtraction.obj
 0001:00046fe0       ?getFreq@CPageCacheWord@@QAEHXZ 00447fe0 f i FeatureExtraction.obj
 0001:00047000       ?getInTitleFlag@CPageCacheWord@@QAE_NXZ 00448000 f i FeatureExtraction.obj
 0001:00047020       ?getInMetaFlag@CPageCacheWord@@QAE_NXZ 00448020 f i FeatureExtraction.obj
 0001:00047040       ?getInHyperLink@CPageCacheWord@@QAEHXZ 00448040 f i FeatureExtraction.obj
 0001:00047060       ?getAnchorWords@CPageCacheURL@@QAEAAVCStringArray@@XZ 00448060 f i FeatureExtraction.obj
 0001:00047080       ?getAllWords@CPageCache@@QAEPAVHash@@XZ 00448080 f i FeatureExtraction.obj
 0001:000470a0       ?getOutURLs@CPageCache@@QAEPAVHash@@XZ 004480a0 f i FeatureExtraction.obj
 0001:000470c0       ?DoSearchQuery@CFeatureExtraction@@IAEXPAVList@@PAVHash@@@Z 004480c0 f   FeatureExtraction.obj
 0001:00047860       ?getURL@CQueryResult@@QAEAAVCString@@XZ 00448860 f i FeatureExtraction.obj
 0001:00047880       ?getTitles@CQueryResult@@QAEAAVCStringArray@@XZ 00448880 f i FeatureExtraction.obj
 0001:000478a0       ?getSnippets@CQueryResult@@QAEAAVCStringArray@@XZ 004488a0 f i FeatureExtraction.obj
 0001:000478c0       ?getQueryWords@CPageCache@@QAEAAVCStringArray@@XZ 004488c0 f i FeatureExtraction.obj
 0001:000478e0       ?getQueryResults@CPageCache@@QAEPAVList@@XZ 004488e0 f i FeatureExtraction.obj
 0001:00047900       ?Merge@CFeatureExtraction@@IAEXPAVHash@@PAVCItemSet@@00@Z 00448900 f   FeatureExtraction.obj
 0001:00048730       ?getDestinationWords@CFeatureExtraction@@QAEXPAVCPageView@@PAVHash@@@Z 00449730 f   FeatureExtraction.obj
 0001:00048960       ?insertDestinationWords@CFeatureExtraction@@IAEXPAVCPageCache@@PAVHash@@@Z 00449960 f   FeatureExtraction.obj
 0001:000489b0       ?insertDestinationWords@CFeatureExtraction@@IAEXPAVCPageCache@@AAVCStringArray@@AAV?$CArray@NAAN@@@Z 004499b0 f   FeatureExtraction.obj
 0001:00048a30       ?addDestinationStemWord@CFeatureExtraction@@IAEXABVCString@@NAAVCStringArray@@AAV?$CArray@NAAN@@@Z 00449a30 f   FeatureExtraction.obj
 0001:00048ae0       ?insertDestinationWord@CFeatureExtraction@@IAEXABVCString@@PAVHash@@@Z 00449ae0 f   FeatureExtraction.obj
 0001:00048bb0       ?InsertWordSearch@CFeatureExtraction@@IAEXPAVHash@@PBDHH_N@Z 00449bb0 f   FeatureExtraction.obj
 0001:00048e80       ?TrendIdentification@CFeatureExtraction@@IAEHPANH@Z 00449e80 f   FeatureExtraction.obj
 0001:00049100       ?CreateObject@CFixedHtmlView@@SGPAVCObject@@XZ 0044a100 f   FixedHtmlView.obj
 0001:00049170       ?GetRuntimeClass@CFixedHtmlView@@UBEPAUCRuntimeClass@@XZ 0044a170 f   FixedHtmlView.obj
 0001:00049190       ??0CFixedHtmlView@@IAE@XZ  0044a190 f   FixedHtmlView.obj
 0001:00049300       ??0COleSafeArray@@QAE@XZ   0044a300 f i FixedHtmlView.obj
 0001:00049330       ??1COleSafeArray@@QAE@XZ   0044a330 f i FixedHtmlView.obj
 0001:00049350       ?Clear@COleSafeArray@@QAEXXZ 0044a350 f i FixedHtmlView.obj
 0001:00049370       ??_ECFixedHtmlView@@MAEPAXI@Z 0044a370 f i FixedHtmlView.obj
 0001:00049370       ??_GCFixedHtmlView@@MAEPAXI@Z 0044a370 f i FixedHtmlView.obj
 0001:000493b0       ??1CFormView@@UAE@XZ       0044a3b0 f i FixedHtmlView.obj
 0001:000493d0       ??1CFixedHtmlView@@MAE@XZ  0044a3d0 f   FixedHtmlView.obj
 0001:00049550       ?GetMessageMap@CFixedHtmlView@@MBEPBUAFX_MSGMAP@@XZ 0044a550 f   FixedHtmlView.obj
 0001:00049570       ?GetEventSinkMap@CFixedHtmlView@@MBEPBUAFX_EVENTSINKMAP@@XZ 0044a570 f   FixedHtmlView.obj
 0001:00049590       ?OnDraw@CFixedHtmlView@@MAEXPAVCDC@@@Z 0044a590 f   FixedHtmlView.obj
 0001:000495b0       ?OnDestroy@CFixedHtmlView@@IAEXXZ 0044a5b0 f   FixedHtmlView.obj
 0001:00049630       ?GetLeft@CFixedHtmlView@@QAEJXZ 0044a630 f   FixedHtmlView.obj
 0001:000496b0       ?GetTop@CFixedHtmlView@@QAEJXZ 0044a6b0 f   FixedHtmlView.obj
 0001:00049730       ?GetHeight@CFixedHtmlView@@QAEJXZ 0044a730 f   FixedHtmlView.obj
 0001:000497b0       ?GetWidth@CFixedHtmlView@@QAEJXZ 0044a7b0 f   FixedHtmlView.obj
 0001:00049830       ?SetTop@CFixedHtmlView@@QAEXJ@Z 0044a830 f   FixedHtmlView.obj
 0001:000498a0       ?SetLeft@CFixedHtmlView@@QAEXJ@Z 0044a8a0 f   FixedHtmlView.obj
 0001:00049910       ?SetHeight@CFixedHtmlView@@QAEXJ@Z 0044a910 f   FixedHtmlView.obj
 0001:00049980       ?SetWidth@CFixedHtmlView@@QAEXJ@Z 0044a980 f   FixedHtmlView.obj
 0001:000499f0       ?GetLocationName@CFixedHtmlView@@QAEXAAVCString@@@Z 0044a9f0 f   FixedHtmlView.obj
 0001:00049a70       ?GetLocationURL@CFixedHtmlView@@QAEXAAVCString@@@Z 0044aa70 f   FixedHtmlView.obj
 0001:00049b10       ?GetReadyState@CFixedHtmlView@@QAE?AW4tagREADYSTATE@@XZ 0044ab10 f   FixedHtmlView.obj
 0001:00049b80       ?GetApplication@CFixedHtmlView@@QAEPAUIDispatch@@XZ 0044ab80 f   FixedHtmlView.obj
 0001:00049c00       ?GetHtmlDocument@CFixedHtmlView@@QAEPAUIDispatch@@XZ 0044ac00 f   FixedHtmlView.obj
 0001:00049c80       ?QueryStatusWB@CFixedHtmlView@@QAE?AW4OLECMDF@@W4OLECMDID@@@Z 0044ac80 f   FixedHtmlView.obj
 0001:00049d00       ?ExecWB@CFixedHtmlView@@QAEXW4OLECMDID@@W4OLECMDEXECOPT@@PAUtagVARIANT@@2@Z 0044ad00 f   FixedHtmlView.obj
 0001:00049d80       ?LoadFromResource@CFixedHtmlView@@QAEHPBD@Z 0044ad80 f   FixedHtmlView.obj
 0001:00049e70       ?LoadFromResource@CFixedHtmlView@@QAEHI@Z 0044ae70 f   FixedHtmlView.obj
 0001:00049f60       ?Navigate@CFixedHtmlView@@QAEXPBDK00PAXK@Z 0044af60 f   FixedHtmlView.obj
 0001:0004a0c0       ??1COleVariant@@QAE@XZ     0044b0c0 f i FixedHtmlView.obj
 0001:0004a0e0       ??BCOleVariant@@QAEPAUtagVARIANT@@XZ 0044b0e0 f i FixedHtmlView.obj
 0001:0004a100       ??BCOleSafeArray@@QAEPAUtagVARIANT@@XZ 0044b100 f i FixedHtmlView.obj
 0001:0004a120       ?Navigate2@CFixedHtmlView@@QAEXPBDK00PAXK@Z 0044b120 f   FixedHtmlView.obj
 0001:0004a2a0       ?GoHome@CFixedHtmlView@@QAEXXZ 0044b2a0 f   FixedHtmlView.obj
 0001:0004a310       ?Stop@CFixedHtmlView@@QAEXXZ 0044b310 f   FixedHtmlView.obj
 0001:0004a380       ?GoBack@CFixedHtmlView@@QAEXH@Z 0044b380 f   FixedHtmlView.obj
 0001:0004a410       ?GoForward@CFixedHtmlView@@QAEXH@Z 0044b410 f   FixedHtmlView.obj
 0001:0004a4a0       ?Refresh@CFixedHtmlView@@QAEXXZ 0044b4a0 f   FixedHtmlView.obj
 0001:0004a520       ?Refresh2@CFixedHtmlView@@QAEXH@Z 0044b520 f   FixedHtmlView.obj
 0001:0004a5d0       ?NavigateComplete2@CFixedHtmlView@@MAEXPAUIDispatch@@PAUtagVARIANT@@@Z 0044b5d0 f   FixedHtmlView.obj
 0001:0004a730       ?BeforeNavigate2@CFixedHtmlView@@MAEXPAUIDispatch@@PAUtagVARIANT@@1111PAH@Z 0044b730 f   FixedHtmlView.obj
 0001:0004ac20       ?DocumentComplete@CFixedHtmlView@@MAEXPAUIDispatch@@PAUtagVARIANT@@@Z 0044bc20 f   FixedHtmlView.obj
 0001:0004ad00       ?OnProgressChange@CFixedHtmlView@@MAEXJJ@Z 0044bd00 f   FixedHtmlView.obj
 0001:0004ad20       ?OnCommandStateChange@CFixedHtmlView@@MAEXJH@Z 0044bd20 f   FixedHtmlView.obj
 0001:0004ad40       ?OnTitleChange@CFixedHtmlView@@MAEXPBD@Z 0044bd40 f   FixedHtmlView.obj
 0001:0004ad60       ?OnNewWindow2@CFixedHtmlView@@MAEXPAPAUIDispatch@@PAH@Z 0044bd60 f   FixedHtmlView.obj
 0001:0004ad80       ?OnDocumentComplete@CFixedHtmlView@@MAEXPBD@Z 0044bd80 f   FixedHtmlView.obj
 0001:0004ada0       ?OnNavigateComplete2@CFixedHtmlView@@MAEXPBD@Z 0044bda0 f   FixedHtmlView.obj
 0001:0004adc0       ?OnBeforeNavigate2@CFixedHtmlView@@MAEXPBDK0H0PAH@Z 0044bdc0 f   FixedHtmlView.obj
 0001:0004ade0       ?OnStatusTextChange@CFixedHtmlView@@MAEXPBD@Z 0044bde0 f   FixedHtmlView.obj
 0001:0004ae00       ?Create@CFixedHtmlView@@UAEHPBD0KABUtagRECT@@PAVCWnd@@IPAUCCreateContext@@@Z 0044be00 f   FixedHtmlView.obj
 0001:0004af70       ?PreTranslateMessage@CFixedHtmlView@@UAEHPAUtagMSG@@@Z 0044bf70 f   FixedHtmlView.obj
 0001:0004b410       ?PreCreateWindow@CFixedHtmlView@@UAEHAAUtagCREATESTRUCTA@@@Z 0044c410 f   FixedHtmlView.obj
 0001:0004b460       ?OnParentNotify@CFixedHtmlView@@IAEXIJ@Z 0044c460 f   FixedHtmlView.obj
 0001:0004b510       ?SetHistory@CFixedHtmlView@@QAEHPBD@Z 0044c510 f   FixedHtmlView.obj
 0001:0004bcc0       ?SetAt@CStringArray@@QAEXHABVCString@@@Z 0044ccc0 f i FixedHtmlView.obj
 0001:0004bcf0       ??8@YG_NPBDABVCString@@@Z  0044ccf0 f i FixedHtmlView.obj
 0001:0004bd20       ?GetFocusType@CFixedHtmlView@@QAEHXZ 0044cd20 f   FixedHtmlView.obj
 0001:0004bed0       ?GetBusy@CFixedHtmlView@@QAEHXZ 0044ced0 f   FixedHtmlView.obj
 0001:0004bf80       ??_9@$BBBM@AE              0044cf80 f i FixedHtmlView.obj
 0001:0004bf90       ??_9@$BBCA@AE              0044cf90 f i FixedHtmlView.obj
 0001:0004bfa0       ??_9@$BBCI@AE              0044cfa0 f i FixedHtmlView.obj
 0001:0004bfb0       ??_9@$BBCM@AE              0044cfb0 f i FixedHtmlView.obj
 0001:0004bfc0       ??_9@$BBDA@AE              0044cfc0 f i FixedHtmlView.obj
 0001:0004bfd0       ??_9@$BBBA@AE              0044cfd0 f i FixedHtmlView.obj
 0001:0004bfe0       ??_9@$BBBE@AE              0044cfe0 f i FixedHtmlView.obj
 0001:0004bff0       ??_9@$BBBI@AE              0044cff0 f i FixedHtmlView.obj
 0001:0004c000       ??0CFontStatic@@QAE@XZ     0044d000 f   FontStatic.obj
 0001:0004c0d0       ??_ECFontStatic@@UAEPAXI@Z 0044d0d0 f i FontStatic.obj
 0001:0004c0d0       ??_GCFontStatic@@UAEPAXI@Z 0044d0d0 f i FontStatic.obj
 0001:0004c110       ??1CFontStatic@@UAE@XZ     0044d110 f   FontStatic.obj
 0001:0004c170       ?GetMessageMap@CFontStatic@@MBEPBUAFX_MSGMAP@@XZ 0044d170 f   FontStatic.obj
 0001:0004c190       ?PreSubclassWindow@CFontStatic@@MAEXXZ 0044d190 f   FontStatic.obj
 0001:0004c1c0       ?OnPaint@CFontStatic@@IAEXXZ 0044d1c0 f   FontStatic.obj
 0001:0004c420       ?SetFontStyle@CFontStatic@@QAEXK@Z 0044d420 f   FontStatic.obj
 0001:0004c520       ?SetBackground@CFontStatic@@QAEXK@Z 0044d520 f   FontStatic.obj
 0001:0004c550       ?SetFontStatic@CFontStatic@@QAEXVCString@@HKK@Z 0044d550 f   FontStatic.obj
 0001:0004c650       ?_GetPlugInSection@@YA?AVCString@@V1@0@Z 0044d650 f   Function.obj
 0001:0004c730       ?_GetPlugInType@@YAHVCString@@@Z 0044d730 f   Function.obj
 0001:0004c9a0       ?_GetPlugInIconPath@@YA?AVCString@@V1@@Z 0044d9a0 f   Function.obj
 0001:0004cb50       ?_GetPlugInName@@YA?AVCString@@V1@@Z 0044db50 f   Function.obj
 0001:0004cbf0       ?_GetPlugInComments@@YA?AVCString@@V1@@Z 0044dbf0 f   Function.obj
 0001:0004cc90       ?_GetPlugInFileName@@YA?AVCString@@V1@@Z 0044dc90 f   Function.obj
 0001:0004cd30       ?_FileGetBuffer@@YAPADVCString@@@Z 0044dd30 f   Function.obj
 0001:0004ce50       ?_BrowserPath@@YAHPAVCWnd@@AAVCString@@@Z 0044de50 f   Function.obj
 0001:0004cfe0       ?_FileIsExist@@YAHVCString@@@Z 0044dfe0 f   Function.obj
 0001:0004d0c0       ?_CreateFullDir@@YAXPBD@Z  0044e0c0 f   Function.obj
 0001:0004d210       ?_StringGetUpUrl@@YA?AVCString@@V1@@Z 0044e210 f   Function.obj
 0001:0004dbe0       ?_StringGetRootUrl@@YA?AVCString@@V1@@Z 0044ebe0 f   Function.obj
 0001:0004e120       ?_StringGetTopUrl@@YA?AVCString@@V1@@Z 0044f120 f   Function.obj
 0001:0004e350       ?_RegGetDword@@YAKPAUHKEY__@@PBD1@Z 0044f350 f   Function.obj
 0001:0004e3c0       ?_RegSetDword@@YAHPAUHKEY__@@PBD1K@Z 0044f3c0 f   Function.obj
 0001:0004e450       ?_RegGetString@@YA?AVCString@@PAUHKEY__@@PBD1@Z 0044f450 f   Function.obj
 0001:0004e570       ?_RegSetString@@YAHPAUHKEY__@@PBD11@Z 0044f570 f   Function.obj
 0001:0004e5f0       ?_RegDeletePath@@YAXPAUHKEY__@@VCString@@@Z 0044f5f0 f   Function.obj
 0001:0004e710       ?_SetClipString@@YAXVCString@@@Z 0044f710 f   Function.obj
 0001:0004e800       ?_GetClipString@@YA?AVCString@@XZ 0044f800 f   Function.obj
 0001:0004e920       ?_InitLanguageFile@@YAXPBD@Z 0044f920 f   Function.obj
 0001:0004e9a0       ?_GetPrivateProfileString@@YAKPBD00PADK0@Z 0044f9a0 f   Function.obj
 0001:0004eaf0       ?_LoadString@@YAXAAVCString@@I@Z 0044faf0 f   Function.obj
 0001:0004ebb0       ?_LoadDlgString@@YAXPAVCWnd@@VCString@@@Z 0044fbb0 f   Function.obj
 0001:0004ef40       ?GetNextDlgGroupItem@CWnd@@QBEPAV1@PAV1@H@Z 0044ff40 f i Function.obj
 0001:0004ef80       ?GetNextWindow@CWnd@@QBEPAV1@I@Z 0044ff80 f i Function.obj
 0001:0004efb0       ?GetNextWindow@@YAPAUHWND__@@PAU1@I@Z 0044ffb0 f i Function.obj
 0001:0004efd0       ?InsertString@CComboBox@@QAEHHPBD@Z 0044ffd0 f i Function.obj
 0001:0004f000       ?ResetContent@CComboBox@@QAEXXZ 00450000 f i Function.obj
 0001:0004f030       ?_GetMenuItemString@@YAXAAVCString@@H@Z 00450030 f   Function.obj
 0001:0004f170       ?GetMenuItemInfoA@CMenu@@QAEHIPAUtagMENUITEMINFOA@@H@Z 00450170 f i Function.obj
 0001:0004f1a0       ?_LoadMenuString2ComboBox@@YAXPAVCMenu@@PAVCComboBox@@@Z 004501a0 f   Function.obj
 0001:0004f7d0       ?GetMenuItemCount@CMenu@@QBEIXZ 004507d0 f i Function.obj
 0001:0004f7f0       ?GetMenuItemID@CMenu@@QBEIH@Z 004507f0 f i Function.obj
 0001:0004f820       ?GetMenuState@CMenu@@QBEIII@Z 00450820 f i Function.obj
 0001:0004f850       ?GetMenuStringA@CMenu@@QBEHIPADHI@Z 00450850 f i Function.obj
 0001:0004f8c0       ?_LoadMenuString@@YAXPAVCMenu@@VCString@@@Z 004508c0 f   Function.obj
 0001:0004fc40       ?ModifyMenuA@CMenu@@QAEHIIIPBD@Z 00450c40 f i Function.obj
 0001:0004fc80       ?GetPopMenuIconID@@YAHQAD@Z 00450c80 f   Function.obj
 0001:0004fd60       ?GetMenuIconID@@YAHH@Z     00450d60 f   Function.obj
 0001:000502e0       ?_LoadMenuStringOwnerDraw@@YAXPAVCMenu@@VCString@@PAVCImageList@@@Z 004512e0 f   Function.obj
 0001:00050900       ?MSGBOX@@YAHIII@Z          00451900 f   Function.obj
 0001:000509a0       ?MSGBOX@@YAHPBDII@Z        004519a0 f   Function.obj
 0001:000509d0       ?_OpenFtpUrl@@YAHVCString@@@Z 004519d0 f   Function.obj
 0001:00050cd0       ?_LoadFormUrl@@YAXPAVCListCtrl@@@Z 00451cd0 f   Function.obj
 0001:00050e30       ?_GetSameFormUrl@@YA?AVCString@@V1@@Z 00451e30 f   Function.obj
 0001:000510b0       ?_CharFormat@@YAXPAD@Z     004520b0 f   Function.obj
 0001:00051190       ?_AsciiFormat@@YAXAAVCString@@@Z 00452190 f   Function.obj
 0001:00051280       ?_Ascii2Utf8@@YAXAAVCString@@@Z 00452280 f   Function.obj
 0001:00051370       ??0GenericHTTPClient@@QAE@XZ 00452370 f   GenericHTTPClient.obj
 0001:000513e0       ??_EGenericHTTPClient@@UAEPAXI@Z 004523e0 f i GenericHTTPClient.obj
 0001:000513e0       ??_GGenericHTTPClient@@UAEPAXI@Z 004523e0 f i GenericHTTPClient.obj
 0001:00051420       ??1GenericHTTPClient@@UAE@XZ 00452420 f   GenericHTTPClient.obj
 0001:000514a0       ?GetMethod@GenericHTTPClient@@SA?AW4RequestMethod@1@H@Z 004524a0 f   GenericHTTPClient.obj
 0001:000514d0       ?GetPostArgumentType@GenericHTTPClient@@SA?AW4TypePostArgument@1@H@Z 004524d0 f   GenericHTTPClient.obj
 0001:00051500       ?Connect@GenericHTTPClient@@QAEHPBD0G00@Z 00452500 f   GenericHTTPClient.obj
 0001:00051600       ?Close@GenericHTTPClient@@QAEHXZ 00452600 f   GenericHTTPClient.obj
 0001:00051670       ?Request@GenericHTTPClient@@QAEHPBDH0@Z 00452670 f   GenericHTTPClient.obj
 0001:000517a0       ?RequestOfURI@GenericHTTPClient@@QAEHPBDH@Z 004527a0 f   GenericHTTPClient.obj
 0001:00051850       ?RequestGet@GenericHTTPClient@@IAEHPBD@Z 00452850 f   GenericHTTPClient.obj
 0001:00051950       ?RequestPost@GenericHTTPClient@@IAEHPBD@Z 00452950 f   GenericHTTPClient.obj
 0001:00051aa0       ?RequestPostMultiPartsFormData@GenericHTTPClient@@IAEHPBD@Z 00452aa0 f   GenericHTTPClient.obj
 0001:00051d30       ?ResponseOfBytes@GenericHTTPClient@@IAEKPAEK@Z 00452d30 f   GenericHTTPClient.obj
 0001:00051db0       ?Response@GenericHTTPClient@@QAEHXZ 00452db0 f   GenericHTTPClient.obj
 0001:00051f70       ?AddPostArguments@GenericHTTPClient@@QAEXPBD0H@Z 00452f70 f   GenericHTTPClient.obj
 0001:00051ff0       ?AddPostArguments@GenericHTTPClient@@QAEXPBDK@Z 00452ff0 f   GenericHTTPClient.obj
 0001:00052070       ?GetPostArguments@GenericHTTPClient@@IAEKPADK@Z 00453070 f   GenericHTTPClient.obj
 0001:00052130       ?InitilizePostArguments@GenericHTTPClient@@QAEXXZ 00453130 f   GenericHTTPClient.obj
 0001:00052150       ?FreeMultiPartsFormData@GenericHTTPClient@@IAEXAAPAE@Z 00453150 f   GenericHTTPClient.obj
 0001:00052190       ?AllocMultiPartsFormData@GenericHTTPClient@@IAEKAAPAEPBD@Z 00453190 f   GenericHTTPClient.obj
 0001:000524c0       ?GetMultiPartsFormDataLength@GenericHTTPClient@@IAEKXZ 004534c0 f   GenericHTTPClient.obj
 0001:00052580       ?GetContentType@GenericHTTPClient@@QAEPBDPBD@Z 00453580 f   GenericHTTPClient.obj
 0001:00052680       ?GetLastError@GenericHTTPClient@@QAEKXZ 00453680 f   GenericHTTPClient.obj
 0001:000526a0       ?ParseURL@GenericHTTPClient@@QAEXPBDPAD1AAK1@Z 004536a0 f   GenericHTTPClient.obj
 0001:00052940       ?QueryHTTPResponseHeader@GenericHTTPClient@@QAEPBDXZ 00453940 f   GenericHTTPClient.obj
 0001:00052960       ?QueryHTTPResponse@GenericHTTPClient@@QAEPBDXZ 00453960 f   GenericHTTPClient.obj
 0001:00052980       ?QueryResponseSize@GenericHTTPClient@@QAEKXZ 00453980 f   GenericHTTPClient.obj
 0001:000529a0       ?QueryResponse@GenericHTTPClient@@QAEPADXZ 004539a0 f   GenericHTTPClient.obj
 0001:000529c0       ??0?$vector@U__GENERIC_HTTP_ARGUMENT@GenericHTTPClient@@V?$allocator@U__GENERIC_HTTP_ARGUMENT@GenericHTTPClient@@@std@@@std@@QAE@ABV?$allocator@U__GENERIC_HTTP_ARGUMENT@GenericHTTPClient@@@1@@Z 004539c0 f i GenericHTTPClient.obj
 0001:00052a00       ??1?$vector@U__GENERIC_HTTP_ARGUMENT@GenericHTTPClient@@V?$allocator@U__GENERIC_HTTP_ARGUMENT@GenericHTTPClient@@@std@@@std@@QAE@XZ 00453a00 f i GenericHTTPClient.obj
 0001:00052a70       ?begin@?$vector@U__GENERIC_HTTP_ARGUMENT@GenericHTTPClient@@V?$allocator@U__GENERIC_HTTP_ARGUMENT@GenericHTTPClient@@@std@@@std@@QAEPAU__GENERIC_HTTP_ARGUMENT@GenericHTTPClient@@XZ 00453a70 f i GenericHTTPClient.obj
 0001:00052a90       ?end@?$vector@U__GENERIC_HTTP_ARGUMENT@GenericHTTPClient@@V?$allocator@U__GENERIC_HTTP_ARGUMENT@GenericHTTPClient@@@std@@@std@@QAEPAU__GENERIC_HTTP_ARGUMENT@GenericHTTPClient@@XZ 00453a90 f i GenericHTTPClient.obj
 0001:00052ab0       ?push_back@?$vector@U__GENERIC_HTTP_ARGUMENT@GenericHTTPClient@@V?$allocator@U__GENERIC_HTTP_ARGUMENT@GenericHTTPClient@@@std@@@std@@QAEXABU__GENERIC_HTTP_ARGUMENT@GenericHTTPClient@@@Z 00453ab0 f i GenericHTTPClient.obj
 0001:00052ae0       ?clear@?$vector@U__GENERIC_HTTP_ARGUMENT@GenericHTTPClient@@V?$allocator@U__GENERIC_HTTP_ARGUMENT@GenericHTTPClient@@@std@@@std@@QAEXXZ 00453ae0 f i GenericHTTPClient.obj
 0001:00052b10       ?insert@?$vector@U__GENERIC_HTTP_ARGUMENT@GenericHTTPClient@@V?$allocator@U__GENERIC_HTTP_ARGUMENT@GenericHTTPClient@@@std@@@std@@QAEPAU__GENERIC_HTTP_ARGUMENT@GenericHTTPClient@@PAU34@ABU34@@Z 00453b10 f i GenericHTTPClient.obj
 0001:00052b70       ?erase@?$vector@U__GENERIC_HTTP_ARGUMENT@GenericHTTPClient@@V?$allocator@U__GENERIC_HTTP_ARGUMENT@GenericHTTPClient@@@std@@@std@@QAEPAU__GENERIC_HTTP_ARGUMENT@GenericHTTPClient@@PAU34@0@Z 00453b70 f i GenericHTTPClient.obj
 0001:00052bd0       ?_Destroy@?$vector@U__GENERIC_HTTP_ARGUMENT@GenericHTTPClient@@V?$allocator@U__GENERIC_HTTP_ARGUMENT@GenericHTTPClient@@@std@@@std@@IAEXPAU__GENERIC_HTTP_ARGUMENT@GenericHTTPClient@@0@Z 00453bd0 f i GenericHTTPClient.obj
 0001:00052c10       ?deallocate@?$allocator@U__GENERIC_HTTP_ARGUMENT@GenericHTTPClient@@@std@@QAEXPAXI@Z 00453c10 f i GenericHTTPClient.obj
 0001:00052c40       ?insert@?$vector@U__GENERIC_HTTP_ARGUMENT@GenericHTTPClient@@V?$allocator@U__GENERIC_HTTP_ARGUMENT@GenericHTTPClient@@@std@@@std@@QAEXPAU__GENERIC_HTTP_ARGUMENT@GenericHTTPClient@@IABU34@@Z 00453c40 f i GenericHTTPClient.obj
 0001:00052eb0       ?destroy@?$allocator@U__GENERIC_HTTP_ARGUMENT@GenericHTTPClient@@@std@@QAEXPAU__GENERIC_HTTP_ARGUMENT@GenericHTTPClient@@@Z 00453eb0 f i GenericHTTPClient.obj
 0001:00052ee0       ?size@?$vector@U__GENERIC_HTTP_ARGUMENT@GenericHTTPClient@@V?$allocator@U__GENERIC_HTTP_ARGUMENT@GenericHTTPClient@@@std@@@std@@QBEIXZ 00453ee0 f i GenericHTTPClient.obj
 0001:00052f20       ?_Ucopy@?$vector@U__GENERIC_HTTP_ARGUMENT@GenericHTTPClient@@V?$allocator@U__GENERIC_HTTP_ARGUMENT@GenericHTTPClient@@@std@@@std@@IAEPAU__GENERIC_HTTP_ARGUMENT@GenericHTTPClient@@PBU34@0PAU34@@Z 00453f20 f i GenericHTTPClient.obj
 0001:00052f70       ?_Ufill@?$vector@U__GENERIC_HTTP_ARGUMENT@GenericHTTPClient@@V?$allocator@U__GENERIC_HTTP_ARGUMENT@GenericHTTPClient@@@std@@@std@@IAEXPAU__GENERIC_HTTP_ARGUMENT@GenericHTTPClient@@IABU34@@Z 00453f70 f i GenericHTTPClient.obj
 0001:00052fc0       ?allocate@?$allocator@U__GENERIC_HTTP_ARGUMENT@GenericHTTPClient@@@std@@QAEPAU__GENERIC_HTTP_ARGUMENT@GenericHTTPClient@@IPBX@Z 00453fc0 f i GenericHTTPClient.obj
 0001:00052ff0       ?construct@?$allocator@U__GENERIC_HTTP_ARGUMENT@GenericHTTPClient@@@std@@QAEXPAU__GENERIC_HTTP_ARGUMENT@GenericHTTPClient@@ABU34@@Z 00453ff0 f i GenericHTTPClient.obj
 0001:00053020       ?copy@std@@YAPAU__GENERIC_HTTP_ARGUMENT@GenericHTTPClient@@PAU23@00@Z 00454020 f i GenericHTTPClient.obj
 0001:00053070       ?fill@std@@YAXPAU__GENERIC_HTTP_ARGUMENT@GenericHTTPClient@@0ABU23@@Z 00454070 f i GenericHTTPClient.obj
 0001:000530b0       ?copy_backward@std@@YAPAU__GENERIC_HTTP_ARGUMENT@GenericHTTPClient@@PAU23@00@Z 004540b0 f i GenericHTTPClient.obj
 0001:00053100       ?_Destroy@std@@YAXPAU__GENERIC_HTTP_ARGUMENT@GenericHTTPClient@@@Z 00454100 f i GenericHTTPClient.obj
 0001:00053110       ?_Allocate@std@@YAPAU__GENERIC_HTTP_ARGUMENT@GenericHTTPClient@@HPAU23@@Z 00454110 f i GenericHTTPClient.obj
 0001:00053140       ?_Construct@std@@YAXPAU__GENERIC_HTTP_ARGUMENT@GenericHTTPClient@@ABU23@@Z 00454140 f i GenericHTTPClient.obj
 0001:00053290       ??0CGlobalSetting@@QAE@XZ  00454290 f   GlobalSetting.obj
 0001:000533d0       ??_GCGlobalSetting@@UAEPAXI@Z 004543d0 f i GlobalSetting.obj
 0001:000533d0       ??_ECGlobalSetting@@UAEPAXI@Z 004543d0 f i GlobalSetting.obj
 0001:00053410       ??1CGlobalSetting@@UAE@XZ  00454410 f   GlobalSetting.obj
 0001:00053540       ?defaultValue@CGlobalSetting@@IAEXXZ 00454540 f   GlobalSetting.obj
 0001:00053590       ?loadSettings@CGlobalSetting@@QAE_N_N@Z 00454590 f   GlobalSetting.obj
 0001:000545e0       ?saveSettings@CGlobalSetting@@QAEXXZ 004555e0 f   GlobalSetting.obj
 0001:00054900       ?CheckIntegrity@CGlobalSetting@@QAEXXZ 00455900 f   GlobalSetting.obj
 0001:00054b10       ??0CGoogle@@QAE@XZ         00455b10 f   Google.obj
 0001:00054c70       ?Add@CStringArray@@QAEHPBD@Z 00455c70 f i Google.obj
 0001:00054cb0       ??_GCGoogle@@UAEPAXI@Z     00455cb0 f i Google.obj
 0001:00054cb0       ??_ECGoogle@@UAEPAXI@Z     00455cb0 f i Google.obj
 0001:00054cf0       ??1CGoogle@@UAE@XZ         00455cf0 f   Google.obj
 0001:00054d90       ?queryGoogle@CGoogle@@QAE_NABVCStringArray@@AAV2@@Z 00455d90 f   Google.obj
 0001:00055130       ?getOriginalWord@CTextProcessor@@QAEXPBDAAVCString@@@Z 00456130 f i Google.obj
 0001:00055180       ??0CGoogleQuery@@QAE@XZ    00456180 f i Google.obj
 0001:00055210       ?clone@CGoogleQuery@@UAEPAVCLilacObject@@XZ 00456210 f i Google.obj
 0001:000552b0       ?key@CGoogleQuery@@UAEHXZ  004562b0 f i Google.obj
 0001:00055320       ?compare@CGoogleQuery@@UAEHPAVCLilacObject@@@Z 00456320 f i Google.obj
 0001:00055360       ?dump@CGoogleQuery@@UAEXXZ 00456360 f i Google.obj
 0001:00055410       ??_GCGoogleQuery@@UAEPAXI@Z 00456410 f i Google.obj
 0001:00055410       ??_ECGoogleQuery@@UAEPAXI@Z 00456410 f i Google.obj
 0001:00055450       ??1CGoogleQuery@@UAE@XZ    00456450 f i Google.obj
 0001:000554e0       ?querying@CGoogle@@IAEXAAVCStringArray@@0@Z 004564e0 f   Google.obj
 0001:00055870       ?getSize@CQueryResult@@QAEHXZ 00456870 f i Google.obj
 0001:00055890       ?IsExternalFileFormat@CQueryResult@@QAE_NXZ 00456890 f i Google.obj
 0001:000558b0       ?setURL@CPageCache@@QAEXABVCString@@@Z 004568b0 f i Google.obj
 0001:000558e0       ?Save@CGoogle@@QAEXXZ      004568e0 f i Google.obj
 0001:00055980       ?save@CGoogle@@IAEXABVCString@@@Z 00456980 f   Google.obj
 0001:00055a70       ?serialize@CGoogleQuery@@QAEHAAVCArchive@@@Z 00456a70 f i Google.obj
 0001:00055c50       ?load@CGoogle@@IAEXABVCString@@@Z 00456c50 f   Google.obj
 0001:00055d80       ??0Hash@@QAE@H@Z           00456d80 f   Hash.obj
 0001:00055e10       ??1Hash@@QAE@XZ            00456e10 f   Hash.obj
 0001:00055e50       ?insert@Hash@@QAEXPAVCLilacObject@@@Z 00456e50 f   Hash.obj
 0001:00055ee0       ?hashValue@Hash@@IAEHH@Z   00456ee0 f i Hash.obj
 0001:00055f10       ?lookup@Hash@@QAEPAVCLilacObject@@PAV2@@Z 00456f10 f   Hash.obj
 0001:00055fd0       ?clear@Hash@@QAEXXZ        00456fd0 f   Hash.obj
 0001:000560b0       ?toList@Hash@@QAEPAVList@@XZ 004570b0 f   Hash.obj
 0001:00056180       ?getFirstObject@Hash@@QAEPAVCLilacObject@@XZ 00457180 f   Hash.obj
 0001:00056200       ?getObject@Hash@@QAEPAVCLilacObject@@XZ 00457200 f   Hash.obj
 0001:000562e0       ?dump@Hash@@QAEXXZ         004572e0 f   Hash.obj
 0001:00056340       ?GetPresentTime@CHighTime@@SA?BV1@XZ 00457340 f   hightime.obj
 0001:00056380       ??0CHighTime@@QAE@ABU_SYSTEMTIME@@@Z 00457380 f i hightime.obj
 0001:000563b0       ??0CHighTime@@QAE@HHHHHHHHH@Z 004573b0 f   hightime.obj
 0001:00056420       ??4CHighTime@@QAEABV0@ABVCTime@@@Z 00457420 f   hightime.obj
 0001:000564b0       ?GetYear@CTime@@QBEHXZ     004574b0 f i hightime.obj
 0001:000564e0       ?GetMonth@CTime@@QBEHXZ    004574e0 f i hightime.obj
 0001:00056510       ?GetDay@CTime@@QBEHXZ      00457510 f i hightime.obj
 0001:00056530       ?GetHour@CTime@@QBEHXZ     00457530 f i hightime.obj
 0001:00056550       ?GetMinute@CTime@@QBEHXZ   00457550 f i hightime.obj
 0001:00056570       ?GetSecond@CTime@@QBEHXZ   00457570 f i hightime.obj
 0001:00056590       ??4CHighTime@@QAEABV0@ABU_SYSTEMTIME@@@Z 00457590 f   hightime.obj
 0001:00056630       ??4CHighTime@@QAEABV0@ABU_FILETIME@@@Z 00457630 f   hightime.obj
 0001:000566f0       ?SetStatus@CHighTime@@QAEXW4HighTimeStatus@1@@Z 004576f0 f i hightime.obj
 0001:00056710       ??4CHighTime@@QAEABV0@ABJ@Z 00457710 f   hightime.obj
 0001:000567c0       ?SetDateTime@CHighTime@@QAEHHHHHHHHHH@Z 004577c0 f   hightime.obj
 0001:00056840       ?ConvertTimeToLongLong@CHighTime@@CAHABU_HighTimeFormat@1@AAT_LARGE_INTEGER@@@Z 00457840 f   hightime.obj
 0001:00056b00       ?ConvertLongLongToTime@CHighTime@@CAHABT_LARGE_INTEGER@@AAU_HighTimeFormat@1@@Z 00457b00 f   hightime.obj
 0001:00056e30       ?ConvertToStandardFormat@CHighTime@@CAXAAU_HighTimeFormat@1@AAUtm@@@Z 00457e30 f   hightime.obj
 0001:00056ec0       ?GetYear@CHighTime@@QBEHXZ 00457ec0 f   hightime.obj
 0001:00056f00       ?GetStatus@CHighTime@@QBE?AW4HighTimeStatus@1@XZ 00457f00 f i hightime.obj
 0001:00056f20       ?GetMonth@CHighTime@@QBEHXZ 00457f20 f   hightime.obj
 0001:00056f60       ?GetDay@CHighTime@@QBEHXZ  00457f60 f   hightime.obj
 0001:00056fa0       ?GetHour@CHighTime@@QBEHXZ 00457fa0 f   hightime.obj
 0001:00056fe0       ?GetMinute@CHighTime@@QBEHXZ 00457fe0 f   hightime.obj
 0001:00057020       ?GetSecond@CHighTime@@QBEHXZ 00458020 f   hightime.obj
 0001:00057060       ?GetMilliSecond@CHighTime@@QBEHXZ 00458060 f   hightime.obj
 0001:000570a0       ?GetMicroSecond@CHighTime@@QBEHXZ 004580a0 f   hightime.obj
 0001:000570e0       ?GetNanoSecond@CHighTime@@QBEHXZ 004580e0 f   hightime.obj
 0001:00057120       ?GetDayOfWeek@CHighTime@@QBEHXZ 00458120 f   hightime.obj
 0001:00057160       ?GetDayOfYear@CHighTime@@QBEHXZ 00458160 f   hightime.obj
 0001:000571a0       ?GetAsSystemTime@CHighTime@@QBEHAAU_SYSTEMTIME@@@Z 004581a0 f   hightime.obj
 0001:00057250       ??HCHighTime@@QBE?AV0@ABVCHighTimeSpan@@@Z 00458250 f   hightime.obj
 0001:00057300       ?GetStatus@CHighTimeSpan@@QBE?AW4HighTimeSpanStatus@1@XZ 00458300 f i hightime.obj
 0001:00057320       ??GCHighTime@@QBE?AV0@ABVCHighTimeSpan@@@Z 00458320 f   hightime.obj
 0001:000573d0       ??GCHighTime@@QBE?AVCHighTimeSpan@@ABV0@@Z 004583d0 f   hightime.obj
 0001:00057480       ?SetStatus@CHighTimeSpan@@QAEXW4HighTimeSpanStatus@1@@Z 00458480 f i hightime.obj
 0001:000574a0       ??0CHighTimeSpan@@QAE@XZ   004584a0 f i hightime.obj
 0001:000574d0       ??0CHighTimeSpan@@QAE@ABV0@@Z 004584d0 f i hightime.obj
 0001:00057500       ??4CHighTimeSpan@@QAEABV0@ABV0@@Z 00458500 f i hightime.obj
 0001:00057540       ?FindStr@CHighTime@@CAHPBD0H@Z 00458540 f   hightime.obj
 0001:000575a0       ?ReplaceStr@CHighTime@@CAHPADHPBD1@Z 004585a0 f   hightime.obj
 0001:000576e0       ?Format@CHighTime@@QBEPBDPADHPBD@Z 004586e0 f   hightime.obj
 0001:000579c0       ?Format@CHighTime@@QBE?AVCString@@PBD@Z 004589c0 f   hightime.obj
 0001:00057d50       ?SetHighTimeSpan@CHighTimeSpan@@QAEXJHHHHHH@Z 00458d50 f   hightime.obj
 0001:00057f10       ?GetTotalDays@CHighTimeSpan@@QBE_JXZ 00458f10 f   hightime.obj
 0001:00057f60       ?GetTotalHours@CHighTimeSpan@@QBE_JXZ 00458f60 f   hightime.obj
 0001:00057fb0       ?GetTotalMinutes@CHighTimeSpan@@QBE_JXZ 00458fb0 f   hightime.obj
 0001:00058000       ?GetTotalSeconds@CHighTimeSpan@@QBE_JXZ 00459000 f   hightime.obj
 0001:00058040       ?GetTotalMilliSeconds@CHighTimeSpan@@QBE_JXZ 00459040 f   hightime.obj
 0001:00058080       ?GetTotalMicroSeconds@CHighTimeSpan@@QBE_JXZ 00459080 f   hightime.obj
 0001:000580c0       ?GetTotalNanoSeconds@CHighTimeSpan@@QBE_JXZ 004590c0 f   hightime.obj
 0001:00058100       ?GetDays@CHighTimeSpan@@QBEHXZ 00459100 f   hightime.obj
 0001:00058150       ?GetHours@CHighTimeSpan@@QBEHXZ 00459150 f   hightime.obj
 0001:000581b0       ?GetMinutes@CHighTimeSpan@@QBEHXZ 004591b0 f   hightime.obj
 0001:00058210       ?GetSeconds@CHighTimeSpan@@QBEHXZ 00459210 f   hightime.obj
 0001:00058260       ?GetMilliSeconds@CHighTimeSpan@@QBEHXZ 00459260 f   hightime.obj
 0001:000582b0       ?GetMicroSeconds@CHighTimeSpan@@QBEHXZ 004592b0 f   hightime.obj
 0001:000582f0       ?GetNanoSeconds@CHighTimeSpan@@QBEHXZ 004592f0 f   hightime.obj
 0001:00058330       ??HCHighTimeSpan@@QBE?AV0@ABV0@@Z 00459330 f   hightime.obj
 0001:000583e0       ??GCHighTimeSpan@@QBE?AV0@ABV0@@Z 004593e0 f   hightime.obj
 0001:00058490       ?Format@CHighTimeSpan@@QBEPADPADHPBD@Z 00459490 f   hightime.obj
 0001:00058970       ?ParseDateTime@CHighTime@@QAEHPBD@Z 00459970 f   hightime.obj
 0001:00058cd0       ??1CParseField@@QAE@XZ     00459cd0 f i hightime.obj
 0001:00058cf0       ??BCParseField@@QAEHXZ     00459cf0 f i hightime.obj
 0001:00058d20       ?GetNumFields@CParseIt@@QAEHXZ 00459d20 f i hightime.obj
 0001:00058d40       ??0CHyperLink@@QAE@XZ      00459d40 f   HyperLink.obj
 0001:00058e20       ??_ECHyperLink@@UAEPAXI@Z  00459e20 f i HyperLink.obj
 0001:00058e20       ??_GCHyperLink@@UAEPAXI@Z  00459e20 f i HyperLink.obj
 0001:00058e60       ??1CHyperLink@@UAE@XZ      00459e60 f   HyperLink.obj
 0001:00058ef0       ?GetMessageMap@CHyperLink@@MBEPBUAFX_MSGMAP@@XZ 00459ef0 f   HyperLink.obj
 0001:00058f10       ?PreTranslateMessage@CHyperLink@@UAEHPAUtagMSG@@@Z 00459f10 f   HyperLink.obj
 0001:00058f40       ?RelayEvent@CToolTipCtrl@@QAEXPAUtagMSG@@@Z 00459f40 f i HyperLink.obj
 0001:00058f70       ?OnClicked@CHyperLink@@IAEXXZ 00459f70 f   HyperLink.obj
 0001:00058fe0       ?CtlColor@CHyperLink@@IAEPAUHBRUSH__@@PAVCDC@@I@Z 00459fe0 f   HyperLink.obj
 0001:00059060       ?OnMouseMove@CHyperLink@@IAEXIVCPoint@@@Z 0045a060 f   HyperLink.obj
 0001:00059120       ?RedrawWindow@CWnd@@QAEHPBUtagRECT@@PAVCRgn@@I@Z 0045a120 f i HyperLink.obj
 0001:00059160       ?OnSetCursor@CHyperLink@@IAEHPAVCWnd@@II@Z 0045a160 f   HyperLink.obj
 0001:000591a0       ?PreSubclassWindow@CHyperLink@@MAEXXZ 0045a1a0 f   HyperLink.obj
 0001:00059310       ?GetLogFont@CFont@@QAEHPAUtagLOGFONTA@@@Z 0045a310 f i HyperLink.obj
 0001:00059340       ?SetURL@CHyperLink@@QAEXVCString@@@Z 0045a340 f   HyperLink.obj
 0001:000593d0       ?GetURL@CHyperLink@@QBE?AVCString@@XZ 0045a3d0 f   HyperLink.obj
 0001:00059410       ?SetColours@CHyperLink@@QAEXKKK@Z 0045a410 f   HyperLink.obj
 0001:00059480       ?GetLinkColour@CHyperLink@@QBEKXZ 0045a480 f   HyperLink.obj
 0001:000594a0       ?GetVisitedColour@CHyperLink@@QBEKXZ 0045a4a0 f   HyperLink.obj
 0001:000594c0       ?GetHoverColour@CHyperLink@@QBEKXZ 0045a4c0 f   HyperLink.obj
 0001:000594e0       ?SetVisited@CHyperLink@@QAEXH@Z 0045a4e0 f   HyperLink.obj
 0001:00059520       ?GetVisited@CHyperLink@@QBEHXZ 0045a520 f   HyperLink.obj
 0001:00059540       ?SetLinkCursor@CHyperLink@@QAEXPAUHICON__@@@Z 0045a540 f   HyperLink.obj
 0001:00059570       ?GetLinkCursor@CHyperLink@@QBEPAUHICON__@@XZ 0045a570 f   HyperLink.obj
 0001:00059590       ?SetUnderline@CHyperLink@@QAEXH@Z 0045a590 f   HyperLink.obj
 0001:00059620       ?GetUnderline@CHyperLink@@QBEHXZ 0045a620 f   HyperLink.obj
 0001:00059640       ?SetAutoSize@CHyperLink@@QAEXH@Z 0045a640 f   HyperLink.obj
 0001:00059680       ?GetAutoSize@CHyperLink@@QBEHXZ 0045a680 f   HyperLink.obj
 0001:000596a0       ?PositionWindow@CHyperLink@@IAEXXZ 0045a6a0 f   HyperLink.obj
 0001:00059860       ?GetTextExtent@CDC@@QBE?AVCSize@@ABVCString@@@Z 0045a860 f i HyperLink.obj
 0001:000598b0       ?SetDefaultCursor@CHyperLink@@IAEXXZ 0045a8b0 f   HyperLink.obj
 0001:00059990       ?GetRegKey@CHyperLink@@IAEJPAUHKEY__@@PBDPAD@Z 0045a990 f   HyperLink.obj
 0001:00059a10       ?ReportError@CHyperLink@@IAEXH@Z 0045aa10 f   HyperLink.obj
 0001:00059c10       ?GotoURL@CHyperLink@@IAEPAUHINSTANCE__@@PBDH@Z 0045ac10 f   HyperLink.obj
 0001:00059d60       ??0CICSession@@QAE@XZ      0045ad60 f   ICSession.obj
 0001:00059e50       ?dump@CICSession@@UAEXXZ   0045ae50 f i ICSession.obj
 0001:00059e80       ??_GCICSession@@UAEPAXI@Z  0045ae80 f i ICSession.obj
 0001:00059e80       ??_ECICSession@@UAEPAXI@Z  0045ae80 f i ICSession.obj
 0001:00059ec0       ??1CICSession@@UAE@XZ      0045aec0 f   ICSession.obj
 0001:00059f20       ?clear@CICSession@@QAEXXZ  0045af20 f i ICSession.obj
 0001:00059fc0       ?clone@CICSession@@UAEPAVCLilacObject@@XZ 0045afc0 f   ICSession.obj
 0001:0005a080       ?isICSession@CICSession@@QAE_NXZ 0045b080 f   ICSession.obj
 0001:0005a0d0       ?Left@CICSession@@QAEXH@Z  0045b0d0 f   ICSession.obj
 0001:0005a150       ?Right@CICSession@@QAEXH@Z 0045b150 f   ICSession.obj
 0001:0005a240       ??0CImpIDispatch@@QAE@XZ   0045b240 f   Idispimp.obj
 0001:0005a280       ??0IDispatch@@QAE@XZ       0045b280 f i Idispimp.obj
 0001:0005a2a0       ??0IUnknown@@QAE@XZ        0045b2a0 f i Idispimp.obj
 0001:0005a2c0       ??1CImpIDispatch@@QAE@XZ   0045b2c0 f   Idispimp.obj
 0001:0005a2e0       ?QueryInterface@CImpIDispatch@@UAGJABU_GUID@@PAPAX@Z 0045b2e0 f   Idispimp.obj
 0001:0005a380       _==                        0045b380 f i Idispimp.obj
 0001:0005a3a0       ?AddRef@CImpIDispatch@@UAGKXZ 0045b3a0 f   Idispimp.obj
 0001:0005a3d0       ?Release@CImpIDispatch@@UAGKXZ 0045b3d0 f   Idispimp.obj
 0001:0005a400       ?GetTypeInfoCount@CImpIDispatch@@UAGJPAI@Z 0045b400 f   Idispimp.obj
 0001:0005a420       ?GetTypeInfo@CImpIDispatch@@UAGJIKPAPAUITypeInfo@@@Z 0045b420 f   Idispimp.obj
 0001:0005a440       ?GetIDsOfNames@CImpIDispatch@@UAGJABU_GUID@@PAPAGIKPAJ@Z 0045b440 f   Idispimp.obj
 0001:0005a580       ?Invoke@CImpIDispatch@@UAGJJABU_GUID@@KGPAUtagDISPPARAMS@@PAUtagVARIANT@@PAUtagEXCEPINFO@@PAI@Z 0045b580 f   Idispimp.obj
 0001:0005a870       ??0CImpIDropTarget@@QAE@XZ 0045b870 f   Idispimp.obj
 0001:0005a8b0       ??0IDropTarget@@QAE@XZ     0045b8b0 f i Idispimp.obj
 0001:0005a8d0       ??1CImpIDropTarget@@QAE@XZ 0045b8d0 f   Idispimp.obj
 0001:0005a8f0       ?QueryInterface@CImpIDropTarget@@UAGJABU_GUID@@PAPAX@Z 0045b8f0 f   Idispimp.obj
 0001:0005a990       ?AddRef@CImpIDropTarget@@UAGKXZ 0045b990 f   Idispimp.obj
 0001:0005a9c0       ?Release@CImpIDropTarget@@UAGKXZ 0045b9c0 f   Idispimp.obj
 0001:0005a9f0       ?DragEnter@CImpIDropTarget@@UAGJPAUIDataObject@@KU_POINTL@@PAK@Z 0045b9f0 f   Idispimp.obj
 0001:0005ab10       ??1COleDataObject@@QAE@XZ  0045bb10 f i Idispimp.obj
 0001:0005ab30       ?DragOver@CImpIDropTarget@@UAGJKU_POINTL@@PAK@Z 0045bb30 f   Idispimp.obj
 0001:0005ac20       ?DragLeave@CImpIDropTarget@@UAGJXZ 0045bc20 f   Idispimp.obj
 0001:0005acc0       ?Drop@CImpIDropTarget@@UAGJPAUIDataObject@@KU_POINTL@@PAK@Z 0045bcc0 f   Idispimp.obj
 0001:0005b980       ??0CIniFile@@QAE@XZ        0045c980 f   IniFile.obj
 0001:0005ba00       ??_GCIniFile@@UAEPAXI@Z    0045ca00 f i IniFile.obj
 0001:0005ba00       ??_ECIniFile@@UAEPAXI@Z    0045ca00 f i IniFile.obj
 0001:0005ba40       ??0CIniFile@@QAE@VCString@@@Z 0045ca40 f   IniFile.obj
 0001:0005baf0       ??1CIniFile@@UAE@XZ        0045caf0 f   IniFile.obj
 0001:0005bb70       ?SetPath@CIniFile@@QAEXVCString@@@Z 0045cb70 f   IniFile.obj
 0001:0005bbd0       ?ReadFile@CIniFile@@QAE_NXZ 0045cbd0 f   IniFile.obj
 0001:0005c000       ??Bios_base@std@@QBEPAXXZ  0045d000 f i IniFile.obj
 0001:0005c030       ??0CFileStatus@@QAE@XZ     0045d030 f i IniFile.obj
 0001:0005c070       ??0CTime@@QAE@XZ           0045d070 f i IniFile.obj
 0001:0005c090       ??_D?$basic_ifstream@DU?$char_traits@D@std@@@std@@QAEXXZ 0045d090 f i IniFile.obj
 0001:0005c0c0       ?ReadFile@CIniFile@@QAE?AVCString@@V2@@Z 0045d0c0 f   IniFile.obj
 0001:0005c550       ?WriteFile@CIniFile@@QAEXXZ 0045d550 f   IniFile.obj
 0001:0005c7b0       ?Reset@CIniFile@@QAEXXZ    0045d7b0 f   IniFile.obj
 0001:0005c7f0       ?GetNumKeys@CIniFile@@QAEHXZ 0045d7f0 f   IniFile.obj
 0001:0005c810       ?GetNumValues@CIniFile@@QAEHVCString@@@Z 0045d810 f   IniFile.obj
 0001:0005c8c0       ?GetValue@CIniFile@@QAE?AVCString@@V2@0@Z 0045d8c0 f   IniFile.obj
 0001:0005ca30       ?GetValueI@CIniFile@@QAEHVCString@@0@Z 0045da30 f   IniFile.obj
 0001:0005cb00       ?GetValueF@CIniFile@@QAENVCString@@0@Z 0045db00 f   IniFile.obj
 0001:0005cbd0       ?SetValue@CIniFile@@QAE_NVCString@@00_N@Z 0045dbd0 f   IniFile.obj
 0001:0005ce60       ?SetValueI@CIniFile@@QAE_NVCString@@0H_N@Z 0045de60 f   IniFile.obj
 0001:0005cf50       ?SetValueF@CIniFile@@QAE_NVCString@@0N_N@Z 0045df50 f   IniFile.obj
 0001:0005d040       ?DeleteValue@CIniFile@@QAE_NVCString@@0@Z 0045e040 f   IniFile.obj
 0001:0005d160       ?DeleteKey@CIniFile@@QAE_NVCString@@@Z 0045e160 f   IniFile.obj
 0001:0005d220       ?FindKey@CIniFile@@AAEHVCString@@@Z 0045e220 f   IniFile.obj
 0001:0005d2f0       ??9@YG_NABVCString@@0@Z    0045e2f0 f i IniFile.obj
 0001:0005d320       ?FindValue@CIniFile@@AAEHHVCString@@@Z 0045e320 f   IniFile.obj
 0001:0005d430       ?getline@CIniFile@@AAEAAV?$basic_istream@DU?$char_traits@D@std@@@std@@AAV23@AAVCString@@@Z 0045e430 f   IniFile.obj
 0001:0005d470       ?getline@?$basic_istream@DU?$char_traits@D@std@@@std@@QAEAAV12@PADH@Z 0045e470 f i IniFile.obj
 0001:0005d4b0       ??0?$basic_ifstream@DU?$char_traits@D@std@@@std@@QAE@XZ 0045e4b0 f i IniFile.obj
 0001:0005d560       ??1?$basic_istream@DU?$char_traits@D@std@@@std@@UAE@XZ 0045e560 f i IniFile.obj
 0001:0005d590       ??1?$basic_ifstream@DU?$char_traits@D@std@@@std@@UAE@XZ 0045e590 f i IniFile.obj
 0001:0005d600       ?open@?$basic_ifstream@DU?$char_traits@D@std@@@std@@QAEXPBDH@Z 0045e600 f i IniFile.obj
 0001:0005d650       ?close@?$basic_ifstream@DU?$char_traits@D@std@@@std@@QAEXXZ 0045e650 f i IniFile.obj
 0001:0005d690       ??_G?$basic_istream@DU?$char_traits@D@std@@@std@@UAEPAXI@Z 0045e690 f i IniFile.obj
 0001:0005d690       ??_E?$basic_istream@DU?$char_traits@D@std@@@std@@UAEPAXI@Z 0045e690 f i IniFile.obj
 0001:0005d6d0       ??_G?$basic_ifstream@DU?$char_traits@D@std@@@std@@UAEPAXI@Z 0045e6d0 f i IniFile.obj
 0001:0005d6d0       ??_E?$basic_ifstream@DU?$char_traits@D@std@@@std@@UAEPAXI@Z 0045e6d0 f i IniFile.obj
 0001:0005d710       ??_D?$basic_istream@DU?$char_traits@D@std@@@std@@QAEXXZ 0045e710 f i IniFile.obj
 0001:0005d740       ?widen@?$basic_ios@DU?$char_traits@D@std@@@std@@QBEDD@Z 0045e740 f i IniFile.obj
 0001:0005d7c0       ?widen@?$ctype@D@std@@QBEDD@Z 0045e7c0 f i IniFile.obj
 0001:0005d7e0       ??0?$basic_istream@DU?$char_traits@D@std@@@std@@QAE@PAV?$basic_streambuf@DU?$char_traits@D@std@@@1@_N@Z 0045e7e0 f i IniFile.obj
 0001:0005d890       ?getline@?$basic_istream@DU?$char_traits@D@std@@@std@@QAEAAV12@PADHD@Z 0045e890 f i IniFile.obj
 0001:0005da90       ??0sentry@?$basic_istream@DU?$char_traits@D@std@@@std@@QAE@AAV12@_N@Z 0045ea90 f i IniFile.obj
 0001:0005dac0       ??Bsentry@?$basic_istream@DU?$char_traits@D@std@@@std@@QBE_NXZ 0045eac0 f i IniFile.obj
 0001:0005dae0       ?sgetc@?$basic_streambuf@DU?$char_traits@D@std@@@std@@QAEHXZ 0045eae0 f i IniFile.obj
 0001:0005db40       ?snextc@?$basic_streambuf@DU?$char_traits@D@std@@@std@@QAEHXZ 0045eb40 f i IniFile.obj
 0001:0005dba0       ?ipfx@?$basic_istream@DU?$char_traits@D@std@@@std@@QAE_N_N@Z 0045eba0 f i IniFile.obj
 0001:0005ddb0       ?is@?$ctype@D@std@@QBE_NFD@Z 0045edb0 f i IniFile.obj
 0001:0005ddf0       ?sbumpc@?$basic_streambuf@DU?$char_traits@D@std@@@std@@QAEHXZ 0045edf0 f i IniFile.obj
 0001:0005de50       ?stossc@?$basic_streambuf@DU?$char_traits@D@std@@@std@@QAEXXZ 0045ee50 f i IniFile.obj
 0001:0005dea0       ?use_facet@std@@YAABV?$ctype@D@1@ABVlocale@1@PBV21@_N@Z 0045eea0 f i IniFile.obj
 0001:0005dfc0       ??0?$ctype@D@std@@QAE@PBF_NI@Z 0045efc0 f i IniFile.obj
 0001:0005e0c0       ??0ctype_base@std@@QAE@I@Z 0045f0c0 f i IniFile.obj
 0001:0005e0f0       ??_Ectype_base@std@@UAEPAXI@Z 0045f0f0 f i IniFile.obj
 0001:0005e0f0       ??_Gctype_base@std@@UAEPAXI@Z 0045f0f0 f i IniFile.obj
 0001:0005e130       ??1ctype_base@std@@UAE@XZ  0045f130 f i IniFile.obj
 0001:0005e150       ?_Init@?$ctype@D@std@@IAEXABV_Locinfo@2@@Z 0045f150 f i IniFile.obj
 0001:0005e200       ?_Getctype@_Locinfo@std@@QBE?AU_Ctypevec@@XZ 0045f200 f i IniFile.obj
 0001:0005e260       ?_Term@?$ctype@D@std@@KAXXZ 0045f260 f i IniFile.obj
 0001:0005e280       ?do_tolower@?$ctype@D@std@@MBEDD@Z 0045f280 f i IniFile.obj
 0001:0005e2b0       ?do_tolower@?$ctype@D@std@@MBEPBDPADPBD@Z 0045f2b0 f i IniFile.obj
 0001:0005e300       ?do_toupper@?$ctype@D@std@@MBEDD@Z 0045f300 f i IniFile.obj
 0001:0005e330       ?do_toupper@?$ctype@D@std@@MBEPBDPADPBD@Z 0045f330 f i IniFile.obj
 0001:0005e380       ??_E?$ctype@D@std@@UAEPAXI@Z 0045f380 f i IniFile.obj
 0001:0005e380       ??_G?$ctype@D@std@@UAEPAXI@Z 0045f380 f i IniFile.obj
 0001:0005e3c0       ??1?$ctype@D@std@@UAE@XZ   0045f3c0 f i IniFile.obj
 0001:0005e400       ??0?$CArray@VCString@@V1@@@QAE@XZ 0045f400 f i IniFile.obj
 0001:0005e450       ?GetSize@?$CArray@VCString@@V1@@@QBEHXZ 0045f450 f i IniFile.obj
 0001:0005e470       ?GetUpperBound@?$CArray@VCString@@V1@@@QBEHXZ 0045f470 f i IniFile.obj
 0001:0005e490       ?SetSize@?$CArray@VCString@@V1@@@QAEXHH@Z 0045f490 f i IniFile.obj
 0001:0005e6c0       ??A?$CArray@VCString@@V1@@@QAEAAVCString@@H@Z 0045f6c0 f i IniFile.obj
 0001:0005e6f0       ?RemoveAt@?$CArray@VCString@@V1@@@QAEXHH@Z 0045f6f0 f i IniFile.obj
 0001:0005e770       ??1?$CArray@VCString@@V1@@@UAE@XZ 0045f770 f i IniFile.obj
 0001:0005e800       ?Serialize@?$CArray@VCString@@V1@@@UAEXAAVCArchive@@@Z 0045f800 f i IniFile.obj
 0001:0005e870       ??0?$CArray@Ukey@CIniFile@@U12@@@QAE@XZ 0045f870 f i IniFile.obj
 0001:0005e8c0       ?GetSize@?$CArray@Ukey@CIniFile@@U12@@@QBEHXZ 0045f8c0 f i IniFile.obj
 0001:0005e8e0       ?SetSize@?$CArray@Ukey@CIniFile@@U12@@@QAEXHH@Z 0045f8e0 f i IniFile.obj
 0001:0005eb20       ??A?$CArray@Ukey@CIniFile@@U12@@@QAEAAUkey@CIniFile@@H@Z 0045fb20 f i IniFile.obj
 0001:0005eb50       ?RemoveAt@?$CArray@Ukey@CIniFile@@U12@@@QAEXHH@Z 0045fb50 f i IniFile.obj
 0001:0005ebe0       ??1?$CArray@Ukey@CIniFile@@U12@@@UAE@XZ 0045fbe0 f i IniFile.obj
 0001:0005ec70       ?Serialize@?$CArray@Ukey@CIniFile@@U12@@@UAEXAAVCArchive@@@Z 0045fc70 f i IniFile.obj
 0001:0005ece0       ??6std@@YAAAV?$basic_ostream@DU?$char_traits@D@std@@@0@AAV10@PBD@Z 0045fce0 f i IniFile.obj
 0001:0005efa0       ??_E?$CArray@VCString@@V1@@@UAEPAXI@Z 0045ffa0 f i IniFile.obj
 0001:0005efa0       ??_G?$CArray@VCString@@V1@@@UAEPAXI@Z 0045ffa0 f i IniFile.obj
 0001:0005efe0       ??_E?$CArray@Ukey@CIniFile@@U12@@@UAEPAXI@Z 0045ffe0 f i IniFile.obj
 0001:0005efe0       ??_G?$CArray@Ukey@CIniFile@@U12@@@UAEPAXI@Z 0045ffe0 f i IniFile.obj
 0001:0005f020       ?sputn@?$basic_streambuf@DU?$char_traits@D@std@@@std@@QAEHPBDH@Z 00460020 f i IniFile.obj
 0001:0005f050       ?_Save@?$_Tidyfac@V?$ctype@D@std@@@std@@SAPAV?$ctype@D@2@PAV32@@Z 00460050 f i IniFile.obj
 0001:0005f0d0       ?_Tidy@?$_Tidyfac@V?$ctype@D@std@@@std@@SAXXZ 004600d0 f i IniFile.obj
 0001:0005f160       ?ElementAt@?$CArray@VCString@@V1@@@QAEAAVCString@@H@Z 00460160 f i IniFile.obj
 0001:0005f190       ?ElementAt@?$CArray@Ukey@CIniFile@@U12@@@QAEAAUkey@CIniFile@@H@Z 00460190 f i IniFile.obj
 0001:0005f1c0       ?DestructElements@@YGXPAUkey@CIniFile@@H@Z 004601c0 f i IniFile.obj
 0001:0005f200       ?ConstructElements@@YGXPAUkey@CIniFile@@H@Z 00460200 f i IniFile.obj
 0001:0005f2b0       ?SerializeElements@@YGXAAVCArchive@@PAUkey@CIniFile@@H@Z 004602b0 f i IniFile.obj
 0001:0005f3c0       ??_Gkey@CIniFile@@QAEPAXI@Z 004603c0 f i IniFile.obj
 0001:0005f400       ??0key@CIniFile@@QAE@XZ    00460400 f i IniFile.obj
 0001:0005f460       ??1key@CIniFile@@QAE@XZ    00460460 f i IniFile.obj
 0001:0005f540       ??0CInputAlias@@QAE@PAVCWnd@@@Z 00460540 f   InputAlias.obj
 0001:0005f600       ??_ECInputAlias@@UAEPAXI@Z 00460600 f i InputAlias.obj
 0001:0005f600       ??_GCInputAlias@@UAEPAXI@Z 00460600 f i InputAlias.obj
 0001:0005f640       ??1CInputAlias@@UAE@XZ     00460640 f i InputAlias.obj
 0001:0005f6c0       ?DoDataExchange@CInputAlias@@MAEXPAVCDataExchange@@@Z 004606c0 f   InputAlias.obj
 0001:0005f730       ?GetMessageMap@CInputAlias@@MBEPBUAFX_MSGMAP@@XZ 00460730 f   InputAlias.obj
 0001:0005f750       ?OnInitDialog@CInputAlias@@MAEHXZ 00460750 f   InputAlias.obj
 0001:0005f8e0       ??0CInputDlg@@QAE@PAVCWnd@@@Z 004608e0 f   InputDlg.obj
 0001:0005f9b0       ??_ECInputDlg@@UAEPAXI@Z   004609b0 f i InputDlg.obj
 0001:0005f9b0       ??_GCInputDlg@@UAEPAXI@Z   004609b0 f i InputDlg.obj
 0001:0005f9f0       ??1CInputDlg@@UAE@XZ       004609f0 f i InputDlg.obj
 0001:0005fa70       ?DoDataExchange@CInputDlg@@MAEXPAVCDataExchange@@@Z 00460a70 f   InputDlg.obj
 0001:0005fae0       ?GetMessageMap@CInputDlg@@MBEPBUAFX_MSGMAP@@XZ 00460ae0 f   InputDlg.obj
 0001:0005fb00       ?OnInitDialog@CInputDlg@@MAEHXZ 00460b00 f   InputDlg.obj
 0001:00060050       ?OnUpUrl@CInputDlg@@IAEXXZ 00461050 f   InputDlg.obj
 0001:00060420       ?OnCopy@CInputDlg@@IAEXXZ  00461420 f   InputDlg.obj
 0001:000605f0       ??0CInputPassword@@QAE@PAVCWnd@@@Z 004615f0 f   InputPassword.obj
 0001:00060680       ??_GCInputPassword@@UAEPAXI@Z 00461680 f i InputPassword.obj
 0001:00060680       ??_ECInputPassword@@UAEPAXI@Z 00461680 f i InputPassword.obj
 0001:000606c0       ?DoDataExchange@CInputPassword@@MAEXPAVCDataExchange@@@Z 004616c0 f   InputPassword.obj
 0001:00060710       ?GetMessageMap@CInputPassword@@MBEPBUAFX_MSGMAP@@XZ 00461710 f   InputPassword.obj
 0001:00060730       ?OnInitDialog@CInputPassword@@MAEHXZ 00461730 f   InputPassword.obj
 0001:000607e0       ??0CDInstance@@QAE@XZ      004617e0 f   Instance.obj
 0001:00060850       ??_ECDInstance@@UAEPAXI@Z  00461850 f i Instance.obj
 0001:00060850       ??_GCDInstance@@UAEPAXI@Z  00461850 f i Instance.obj
 0001:00060890       ??0CDInstance@@QAE@ABV0@@Z 00461890 f   Instance.obj
 0001:00060920       ??1CDInstance@@UAE@XZ      00461920 f   Instance.obj
 0001:00060990       ?RemoveAll@CDInstance@@QAEXXZ 00461990 f   Instance.obj
 0001:000609b0       ?SetSize@CDInstance@@QAEXH@Z 004619b0 f   Instance.obj
 0001:000609e0       ??4CDInstance@@QAEXABV0@@Z 004619e0 f   Instance.obj
 0001:00060a20       ?SetAt@CDInstance@@QAEXHF@Z 00461a20 f   Instance.obj
 0001:00060a50       ??ACDInstance@@QBEFH@Z     00461a50 f   Instance.obj
 0001:00060a80       ?getAttValue@CDInstance@@QBEABV?$CArray@FAAF@@XZ 00461a80 f   Instance.obj
 0001:00060aa0       ?serialize@CDInstance@@QAEHAAVCArchive@@@Z 00461aa0 f   Instance.obj
 0001:00060b70       ?dump@CDInstance@@QAEXXZ   00461b70 f   Instance.obj
 0001:00060be0       ??0CInstance@@QAE@XZ       00461be0 f   Instance.obj
 0001:00060c50       ??_GCInstance@@UAEPAXI@Z   00461c50 f i Instance.obj
 0001:00060c50       ??_ECInstance@@UAEPAXI@Z   00461c50 f i Instance.obj
 0001:00060c90       ??1CInstance@@UAE@XZ       00461c90 f   Instance.obj
 0001:00060d00       ?SetSize@CInstance@@QAEXH@Z 00461d00 f   Instance.obj
 0001:00060d30       ??4CInstance@@QAEXABV0@@Z  00461d30 f   Instance.obj
 0001:00060d70       ?SetAt@CInstance@@QAEXHN@Z 00461d70 f   Instance.obj
 0001:00060da0       ??ACInstance@@QBENH@Z      00461da0 f   Instance.obj
 0001:00060dd0       ?getAttValue@CInstance@@QBEABV?$CArray@NAAN@@XZ 00461dd0 f   Instance.obj
 0001:00060df0       ?serialize@CInstance@@QAEHAAVCArchive@@@Z 00461df0 f   Instance.obj
 0001:00060ec0       ?dump@CInstance@@QAEXXZ    00461ec0 f   Instance.obj
 0001:00060f40       ??0?$CArray@FAAF@@QAE@XZ   00461f40 f i Instance.obj
 0001:00060f90       ?GetSize@?$CArray@FAAF@@QBEHXZ 00461f90 f i Instance.obj
 0001:00060fb0       ?SetSize@?$CArray@FAAF@@QAEXHH@Z 00461fb0 f i Instance.obj
 0001:000611e0       ?RemoveAll@?$CArray@FAAF@@QAEXXZ 004621e0 f i Instance.obj
 0001:00061200       ?SetAt@?$CArray@FAAF@@QAEXHAAF@Z 00462200 f i Instance.obj
 0001:00061230       ?Add@?$CArray@FAAF@@QAEHAAF@Z 00462230 f i Instance.obj
 0001:00061270       ?Append@?$CArray@FAAF@@QAEHABV1@@Z 00462270 f i Instance.obj
 0001:000612d0       ??A?$CArray@FAAF@@QAEAAFH@Z 004622d0 f i Instance.obj
 0001:00061300       ??A?$CArray@FAAF@@QBEFH@Z  00462300 f i Instance.obj
 0001:00061330       ??1?$CArray@FAAF@@UAE@XZ   00462330 f i Instance.obj
 0001:000613c0       ?Serialize@?$CArray@FAAF@@UAEXAAVCArchive@@@Z 004623c0 f i Instance.obj
 0001:00061430       ??A?$CArray@NAAN@@QBENH@Z  00462430 f i Instance.obj
 0001:00061460       ??_G?$CArray@FAAF@@UAEPAXI@Z 00462460 f i Instance.obj
 0001:00061460       ??_E?$CArray@FAAF@@UAEPAXI@Z 00462460 f i Instance.obj
 0001:000614a0       ?GetAt@?$CArray@FAAF@@QBEFH@Z 004624a0 f i Instance.obj
 0001:000614d0       ?ElementAt@?$CArray@FAAF@@QAEAAFH@Z 004624d0 f i Instance.obj
 0001:00061500       ?SetAtGrow@?$CArray@FAAF@@QAEXHAAF@Z 00462500 f i Instance.obj
 0001:00061550       ?DestructElements@@YGXPAFH@Z 00462550 f i Instance.obj
 0001:00061580       ?ConstructElements@@YGXPAFH@Z 00462580 f i Instance.obj
 0001:000615e0       ?CopyElements@@YGXPAFPBFH@Z 004625e0 f i Instance.obj
 0001:00061630       ?SerializeElements@@YGXAAVCArchive@@PAFH@Z 00462630 f i Instance.obj
 0001:00061680       ?GetAt@?$CArray@NAAN@@QBENH@Z 00462680 f i Instance.obj
 0001:000616b0       ??0CItemSet@@QAE@XZ        004626b0 f   ItemSet.obj
 0001:00061710       ??_GCItemSet@@UAEPAXI@Z    00462710 f i ItemSet.obj
 0001:00061710       ??_ECItemSet@@UAEPAXI@Z    00462710 f i ItemSet.obj
 0001:00061750       ??1CItemSet@@UAE@XZ        00462750 f   ItemSet.obj
 0001:000617c0       ?add@CItemSet@@QAEXH@Z     004627c0 f   ItemSet.obj
 0001:00061890       ?add@CItemSet@@QAEXHH@Z    00462890 f   ItemSet.obj
 0001:000619b0       ?concat@CItemSet@@QAEXPAV1@@Z 004629b0 f   ItemSet.obj
 0001:00061a00       ?clear@CItemSet@@QAEXXZ    00462a00 f   ItemSet.obj
 0001:00061a60       ?clone@CItemSet@@UAEPAVCLilacObject@@XZ 00462a60 f   ItemSet.obj
 0001:00061b40       ?keeporder@CItemSet@@QAEX_N@Z 00462b40 f i ItemSet.obj
 0001:00061b60       ?support@CItemSet@@QAEXJ@Z 00462b60 f i ItemSet.obj
 0001:00061b80       ?weight@CItemSet@@QAEXN@Z  00462b80 f i ItemSet.obj
 0001:00061bb0       ?compare@CItemSet@@UAEHPAVCLilacObject@@@Z 00462bb0 f   ItemSet.obj
 0001:00061d20       ?get@CItemSet@@QAEHH@Z     00462d20 f   ItemSet.obj
 0001:00061d60       ?indexOf@CItemSet@@QAEHH_N@Z 00462d60 f   ItemSet.obj
 0001:00061df0       ?remove@CItemSet@@QAEHH@Z  00462df0 f   ItemSet.obj
 0001:00061ec0       ?left@CItemSet@@QAEPAV1@H@Z 00462ec0 f   ItemSet.obj
 0001:00061f90       ?sub@CItemSet@@QAEPAV1@HH@Z 00462f90 f   ItemSet.obj
 0001:00062070       ?substract@CItemSet@@QAEPAV1@PAV1@@Z 00463070 f   ItemSet.obj
 0001:000620f0       ?dump@CItemSet@@UAEXXZ     004630f0 f   ItemSet.obj
 0001:00062160       ??0CLilacObject@@QAE@XZ    00463160 f   LilacObject.obj
 0001:00062180       ??_GCLilacObject@@UAEPAXI@Z 00463180 f i LilacObject.obj
 0001:00062180       ??_ECLilacObject@@UAEPAXI@Z 00463180 f i LilacObject.obj
 0001:000621c0       ??1CLilacObject@@UAE@XZ    004631c0 f   LilacObject.obj
 0001:000621e0       ?compare@CLilacObject@@UAEHPAV1@@Z 004631e0 f   LilacObject.obj
 0001:00062200       ?clone@CLilacObject@@UAEPAV1@XZ 00463200 f   LilacObject.obj
 0001:00062270       ?key@CLilacObject@@UAEHXZ  00463270 f   LilacObject.obj
 0001:00062290       ?dump@CLilacObject@@UAEXXZ 00463290 f   LilacObject.obj
 0001:000622b0       ??0CLilacString@@QAE@H@Z   004632b0 f   LilacString.obj
 0001:00062340       ??_GCLilacString@@UAEPAXI@Z 00463340 f i LilacString.obj
 0001:00062340       ??_ECLilacString@@UAEPAXI@Z 00463340 f i LilacString.obj
 0001:00062380       ??0CLilacString@@QAE@PBD@Z 00463380 f   LilacString.obj
 0001:00062420       ??0CLilacString@@QAE@PADH@Z 00463420 f   LilacString.obj
 0001:000624b0       ??0CLilacString@@QAE@ABV0@@Z 004634b0 f   LilacString.obj
 0001:00062550       ?length@CLilacString@@QBEHXZ 00463550 f i LilacString.obj
 0001:00062570       ??0CLilacString@@QAE@ABV0@H@Z 00463570 f   LilacString.obj
 0001:00062620       ??1CLilacString@@UAE@XZ    00463620 f   LilacString.obj
 0001:00062690       ??4CLilacString@@QAEXABV0@@Z 00463690 f   LilacString.obj
 0001:000626e0       ??4CLilacString@@QAEXPAD@Z 004636e0 f   LilacString.obj
 0001:00062740       ?append@CLilacString@@QAEXAAV1@@Z 00463740 f   LilacString.obj
 0001:000627b0       ?append@CLilacString@@QAEXPAD@Z 004637b0 f   LilacString.obj
 0001:000627f0       ?append@CLilacString@@QAEXPADH@Z 004637f0 f   LilacString.obj
 0001:00062860       ?append@CLilacString@@QAEXD@Z 00463860 f   LilacString.obj
 0001:000628c0       ?compare@CLilacString@@UAEHPAVCLilacObject@@@Z 004638c0 f   LilacString.obj
 0001:00062990       ?get@CLilacString@@QBEPADXZ 00463990 f   LilacString.obj
 0001:000629d0       ?new_char@CLilacString@@QBEPADXZ 004639d0 f   LilacString.obj
 0001:00062a50       ?as_integer@CLilacString@@QAEHH@Z 00463a50 f   LilacString.obj
 0001:00062aa0       ?sub@CLilacString@@QBE?AV1@HH@Z 00463aa0 f   LilacString.obj
 0001:00062b20       ?sub@CLilacString@@QBE?AV1@H@Z 00463b20 f   LilacString.obj
 0001:00062b70       ?indexOf@CLilacString@@QAEHPAD@Z 00463b70 f   LilacString.obj
 0001:00062bd0       ?indexOf@CLilacString@@QAEHD@Z 00463bd0 f   LilacString.obj
 0001:00062c30       ?indexOf@CLilacString@@QAEHDH@Z 00463c30 f   LilacString.obj
 0001:00062c90       ?lastIndexOf@CLilacString@@QAEHDH@Z 00463c90 f   LilacString.obj
 0001:00062cf0       ?lastIndexOf@CLilacString@@QAEHD@Z 00463cf0 f   LilacString.obj
 0001:00062d20       ??6CLilacString@@QAEAAV0@H@Z 00463d20 f   LilacString.obj
 0001:00062d60       ??6CLilacString@@QAEAAV0@J@Z 00463d60 f   LilacString.obj
 0001:00062da0       ??6CLilacString@@QAEAAV0@AAV0@@Z 00463da0 f   LilacString.obj
 0001:00062de0       ??5CLilacString@@QAEDD@Z   00463de0 f   LilacString.obj
 0001:00062e50       ?last@CLilacString@@QAEDXZ 00463e50 f   LilacString.obj
 0001:00062e80       ??ACLilacString@@QAEAADH@Z 00463e80 f   LilacString.obj
 0001:00062ed0       ?lowercase@CLilacString@@QAEXXZ 00463ed0 f   LilacString.obj
 0001:00062f30       ?uppercase@CLilacString@@QAEXXZ 00463f30 f   LilacString.obj
 0001:00062fa0       ?replace@CLilacString@@QAEXDD@Z 00463fa0 f   LilacString.obj
 0001:00063000       ?remove@CLilacString@@QAEXPAD@Z 00464000 f   LilacString.obj
 0001:000630b0       ?clone@CLilacString@@UAEPAVCLilacObject@@XZ 004640b0 f   LilacString.obj
 0001:00063130       ?chop@CLilacString@@QAEAAV1@H@Z 00464130 f   LilacString.obj
 0001:00063170       ?chop@CLilacString@@QAEAAV1@D@Z 00464170 f   LilacString.obj
 0001:000631c0       ?chop@CLilacString@@QAEAAV1@PAD@Z 004641c0 f   LilacString.obj
 0001:00063220       ??H@YA?AVCLilacString@@AAV0@0@Z 00464220 f   LilacString.obj
 0001:000632b0       ??8@YAHAAVCLilacString@@0@Z 004642b0 f   LilacString.obj
 0001:000632f0       ??9@YAHAAVCLilacString@@0@Z 004642f0 f   LilacString.obj
 0001:00063320       ??M@YAHAAVCLilacString@@0@Z 00464320 f   LilacString.obj
 0001:00063350       ??O@YAHAAVCLilacString@@0@Z 00464350 f   LilacString.obj
 0001:00063380       ??N@YAHAAVCLilacString@@0@Z 00464380 f   LilacString.obj
 0001:000633b0       ??P@YAHAAVCLilacString@@0@Z 004643b0 f   LilacString.obj
 0001:000633e0       ?copy_data_from@CLilacString@@AAEXPBDHH@Z 004643e0 f   LilacString.obj
 0001:00063410       ?allocate_space@CLilacString@@AAEXH@Z 00464410 f   LilacString.obj
 0001:000634a0       ?allocate_fix_space@CLilacString@@AAEXH@Z 004644a0 f   LilacString.obj
 0001:00063520       ?reallocate_space@CLilacString@@AAEXH@Z 00464520 f   LilacString.obj
 0001:000635a0       ?copy@CLilacString@@AAEXPADHH@Z 004645a0 f   LilacString.obj
 0001:000635f0       ?key@CLilacString@@UAEHXZ  004645f0 f   LilacString.obj
 0001:00063710       ?GetRuntimeClass@CLinkBar@@UBEPAUCRuntimeClass@@XZ 00464710 f   LinkBar.obj
 0001:00063730       ??0CLinkBar@@QAE@XZ        00464730 f   LinkBar.obj
 0001:00063760       ??_GCLinkBar@@UAEPAXI@Z    00464760 f i LinkBar.obj
 0001:00063760       ??_ECLinkBar@@UAEPAXI@Z    00464760 f i LinkBar.obj
 0001:000637a0       ??1CLinkBar@@UAE@XZ        004647a0 f i LinkBar.obj
 0001:000637c0       ?Init@CLinkBar@@UAEXXZ     004647c0 f   LinkBar.obj
 0001:00063830       ?HasButtonText@CLinkBar@@MAE_NI@Z 00464830 f   LinkBar.obj
 0001:00063850       ?GetButtonTip@CLinkBar@@MAEXIAAVCString@@@Z 00464850 f   LinkBar.obj
 0001:00063880       ?HasButtonTip@CLinkBar@@MAE_NI@Z 00464880 f   LinkBar.obj
 0001:000638a0       ?RemoveAll@?$CArray@UTBBUTTONEX@@AAU1@@@QAEXXZ 004648a0 f i LinkBar.obj
 0001:000638c0       ?SetSize@?$CArray@UTBBUTTONEX@@AAU1@@@QAEXHH@Z 004648c0 f i LinkBar.obj
 0001:00063b00       ?DestructElements@@YGXPAUTBBUTTONEX@@H@Z 00464b00 f i LinkBar.obj
 0001:00063b70       ?ConstructElements@@YGXPAUTBBUTTONEX@@H@Z 00464b70 f i LinkBar.obj
 0001:00063c50       ??0CLinkListDlg@@QAE@PAVCWnd@@@Z 00464c50 f   LinkListDlg.obj
 0001:00063cf0       ??_GCLinkListDlg@@UAEPAXI@Z 00464cf0 f i LinkListDlg.obj
 0001:00063cf0       ??_ECLinkListDlg@@UAEPAXI@Z 00464cf0 f i LinkListDlg.obj
 0001:00063d30       ??1CLinkListDlg@@UAE@XZ    00464d30 f i LinkListDlg.obj
 0001:00063dc0       ?DoDataExchange@CLinkListDlg@@MAEXPAVCDataExchange@@@Z 00464dc0 f   LinkListDlg.obj
 0001:00063e30       ?GetMessageMap@CLinkListDlg@@MBEPBUAFX_MSGMAP@@XZ 00464e30 f   LinkListDlg.obj
 0001:00063e50       ?OnInitDialog@CLinkListDlg@@MAEHXZ 00464e50 f   LinkListDlg.obj
 0001:00064760       ?GetItemRect@CToolBarCtrl@@QBEHHPAUtagRECT@@@Z 00465760 f i LinkListDlg.obj
 0001:00064790       ?SetBkColor@CListCtrl@@QAEHK@Z 00465790 f i LinkListDlg.obj
 0001:000647c0       ?OnUpdate@CLinkListDlg@@QAEXXZ 004657c0 f   LinkListDlg.obj
 0001:000649b0       ?GetFocus@CWnd@@SGPAV1@XZ  004659b0 f i LinkListDlg.obj
 0001:000649d0       ?DeleteAllItems@CListCtrl@@QAEHXZ 004659d0 f i LinkListDlg.obj
 0001:00064a00       ?FillLinkList@CLinkListDlg@@QAEXXZ 00465a00 f   LinkListDlg.obj
 0001:00064ac0       ?OnDblclkList@CLinkListDlg@@IAEXPAUtagNMHDR@@PAJ@Z 00465ac0 f   LinkListDlg.obj
 0001:00064b80       ?OnSelChangeUrl@CLinkListDlg@@IAEXXZ 00465b80 f   LinkListDlg.obj
 0001:00064c10       ?OnSize@CLinkListDlg@@IAEXIHH@Z 00465c10 f   LinkListDlg.obj
 0001:00064ca0       ?GetColumnWidth@CListCtrl@@QBEHH@Z 00465ca0 f i LinkListDlg.obj
 0001:00064cd0       ?OnCreate@CLinkListDlg@@IAEHPAUtagCREATESTRUCTA@@@Z 00465cd0 f   LinkListDlg.obj
 0001:00064d20       ?OnSelectAll@CLinkListDlg@@QAEXXZ 00465d20 f   LinkListDlg.obj
 0001:00064d80       ?OnSelectNone@CLinkListDlg@@QAEXXZ 00465d80 f   LinkListDlg.obj
 0001:00064de0       ?OnSelectUp@CLinkListDlg@@QAEXXZ 00465de0 f   LinkListDlg.obj
 0001:00064e50       ?OnSelectDown@CLinkListDlg@@QAEXXZ 00465e50 f   LinkListDlg.obj
 0001:00064ed0       ?OnSelectOdd@CLinkListDlg@@QAEXXZ 00465ed0 f   LinkListDlg.obj
 0001:00064f50       ?OnSelectEven@CLinkListDlg@@QAEXXZ 00465f50 f   LinkListDlg.obj
 0001:00064fd0       ?OnOpenSelect@CLinkListDlg@@QAEXXZ 00465fd0 f   LinkListDlg.obj
 0001:00065170       ?OnCloseSelect@CLinkListDlg@@QAEXXZ 00466170 f   LinkListDlg.obj
 0001:00065240       ?UpdateTitleInfo@CLinkListDlg@@QAEXXZ 00466240 f   LinkListDlg.obj
 0001:00065330       ?OnCopyUrl@CLinkListDlg@@QAEXXZ 00466330 f   LinkListDlg.obj
 0001:00065610       ?OnEditUrl@CLinkListDlg@@QAEXXZ 00466610 f   LinkListDlg.obj
 0001:00065740       ?OnRefreshLinkList@CLinkListDlg@@QAEXXZ 00466740 f   LinkListDlg.obj
 0001:00065770       ?OnOK@CLinkListDlg@@MAEXXZ 00466770 f   LinkListDlg.obj
 0001:000657e0       ?OnRdblclkList@CLinkListDlg@@IAEXPAUtagNMHDR@@PAJ@Z 004667e0 f   LinkListDlg.obj
 0001:00065950       ?GetUpperBound@?$CArray@PAVCLink@@PAV1@@@QBEHXZ 00466950 f i LinkListDlg.obj
 0001:00065970       ?GetAt@?$CArray@PAVCLink@@PAV1@@@QBEPAVCLink@@H@Z 00466970 f i LinkListDlg.obj
 0001:000659e0       ??0List@@QAE@XZ            004669e0 f   List.obj
 0001:00065a30       ??1List@@QAE@XZ            00466a30 f   List.obj
 0001:00065a50       ?add@List@@QAEXPAVCLilacObject@@@Z 00466a50 f   List.obj
 0001:00065ae0       ?add@List@@QAEXHPAVCLilacObject@@@Z 00466ae0 f   List.obj
 0001:00065bf0       ?add@List@@QAEXPAV1@@Z     00466bf0 f   List.obj
 0001:00065c50       ?clear@List@@QAEXXZ        00466c50 f   List.obj
 0001:00065d10       ?dump@List@@QAEXXZ         00466d10 f   List.obj
 0001:00065d50       ?clone@List@@QAEPAV1@XZ    00466d50 f   List.obj
 0001:00065e00       ?get@List@@QAEPAVCLilacObject@@H@Z 00466e00 f   List.obj
 0001:00065f00       ?indexOf@List@@QAEHPAVCLilacObject@@@Z 00466f00 f   List.obj
 0001:00065f70       ?RindexOf@List@@QAEHPAVCLilacObject@@@Z 00466f70 f   List.obj
 0001:00065fe0       ?remove@List@@QAEXH@Z      00466fe0 f   List.obj
 0001:000660a0       ?remove@List@@QAEXPAVCLilacObject@@@Z 004670a0 f   List.obj
 0001:00066100       ?remove@List@@QAEXPAUlistnode@@@Z 00467100 f   List.obj
 0001:00066210       ?set@List@@QAEXHPAVCLilacObject@@@Z 00467210 f   List.obj
 0001:000662c0       ?logging@@YAHVCString@@00@Z 004672c0 f   Logging.obj
 0001:00066500       ??0CLogTrace@@QAE@XZ       00467500 f   LogTrace.obj
 0001:00066570       ??1CLogTrace@@QAE@XZ       00467570 f   LogTrace.obj
 0001:000665d0       ?ResetFile@CLogTrace@@QAEXXZ 004675d0 f   LogTrace.obj
 0001:000666e0       ??0CFileException@@QAE@HJPBD@Z 004676e0 f i LogTrace.obj
 0001:00066770       ??_GCFileException@@UAEPAXI@Z 00467770 f i LogTrace.obj
 0001:00066770       ??_ECFileException@@UAEPAXI@Z 00467770 f i LogTrace.obj
 0001:000667b0       ??1CFileException@@UAE@XZ  004677b0 f i LogTrace.obj
 0001:00066810       ?OnStartup@CLogTrace@@QAEXHH@Z 00467810 f   LogTrace.obj
 0001:000668d0       ?WriteLine@CLogTrace@@QAAXPBDZZ 004678d0 f   LogTrace.obj
 0001:00066970       ?Write@CLogTrace@@QAEXPBD@Z 00467970 f   LogTrace.obj
 0001:00066b80       ?SeekToEnd@CFile@@QAEKXZ   00467b80 f i LogTrace.obj
 0001:00066bb0       ?SetFileName@CLogTrace@@QAEXPBD@Z 00467bb0 f   LogTrace.obj
 0001:00066c30       ?OnPaint@CWnd@@IAEXXZ      00467c30 f i MainFrm.obj
 0001:000674f0       ?GetRuntimeClass@CMainFrame@@UBEPAUCRuntimeClass@@XZ 004684f0 f   MainFrm.obj
 0001:00067550       ?GetMessageMap@CMainFrame@@MBEPBUAFX_MSGMAP@@XZ 00468550 f   MainFrm.obj
 0001:00067730       ??0CMaleLogger@@QAE@HVCString@@P6A_NAAV1@ABV1@ABVCTime@@@ZP6A_NPBVCFileException@@QAXAAH71PBVCStringList@@22@Z_NH00@Z 00468730 f i MainFrm.obj
 0001:000678e0       ?StartInternalThread@CMaleLogger@@QAEXXZ 004688e0 f i MainFrm.obj
 0001:00067980       ??1CSingleLock@@QAE@XZ     00468980 f i MainFrm.obj
 0001:00067a00       ?Process@CMaleLogger@@QAEXXZ 00468a00 f i MainFrm.obj
 0001:00067a70       ?IsEmpty@CMapStringToPtr@@QBEHXZ 00468a70 f i MainFrm.obj
 0001:00067aa0       ?Processor@CMaleLogger@@AAEX_N@Z 00468aa0 f i MainFrm.obj
 0001:00067fc0       ?GetCount@CStringList@@QBEHXZ 00468fc0 f i MainFrm.obj
 0001:00067fe0       ?IsEmpty@CStringList@@QBEHXZ 00468fe0 f i MainFrm.obj
 0001:00068010       ?GetHead@CStringList@@QAEAAVCString@@XZ 00469010 f i MainFrm.obj
 0001:00068030       ?SetAt@CMapStringToPtr@@QAEXPBDPAX@Z 00469030 f i MainFrm.obj
 0001:00068060       ?GetStartPosition@CMapStringToPtr@@QBEPAU__POSITION@@XZ 00469060 f i MainFrm.obj
 0001:00068080       ?MakeSurePathExists@CMaleLogger@@SAHAAVCString@@_N1@Z 00469080 f i MainFrm.obj
 0001:00068230       ??1CMaleLogger@@QAE@XZ     00469230 f i MainFrm.obj
 0001:00068300       ?KillInternalThread@CMaleLogger@@QAEXXZ 00469300 f i MainFrm.obj
 0001:00068350       ?Flash@CMaleLogger@@QAEX_N@Z 00469350 f i MainFrm.obj
 0001:000683d0       ?HeaderCB@@YA_NAAVCString@@ABV1@ABVCTime@@@Z 004693d0 f   MainFrm.obj
 0001:000684c0       ??0CMainFrame@@QAE@XZ      004694c0 f   MainFrm.obj
 0001:00069290       ?setOnLine@CPageRepository@@QAEX_N@Z 0046a290 f i MainFrm.obj
 0001:000692b0       ?setSaveCache@CPageRepository@@QAEX_N@Z 0046a2b0 f i MainFrm.obj
 0001:000692d0       ?setSaveHTML@CPageRepository@@QAEX_N@Z 0046a2d0 f i MainFrm.obj
 0001:000692f0       ?recordWordMapping@CPageRepository@@QAEX_N@Z 0046a2f0 f i MainFrm.obj
 0001:00069320       ?recordWordMapping@CTextProcessor@@QAEX_N@Z 0046a320 f i MainFrm.obj
 0001:000693f0       ?setRepository@Extractor@@QAEXPAVCPageRepository@@@Z 0046a3f0 f i MainFrm.obj
 0001:00069430       ?setRepository@CFeatureExtraction@@QAEXPAVCPageRepository@@@Z 0046a430 f i MainFrm.obj
 0001:00069450       ?serialize@CDataSet@@QAEHAAVCArchive@@@Z 0046a450 f i MainFrm.obj
 0001:00069590       ??_ECMainFrame@@UAEPAXI@Z  0046a590 f i MainFrm.obj
 0001:00069590       ??_GCMainFrame@@UAEPAXI@Z  0046a590 f i MainFrm.obj
 0001:000695d0       ??1CMDIFrameWnd@@UAE@XZ    0046a5d0 f i MainFrm.obj
 0001:000695f0       ??0CSearchList@@QAE@XZ     0046a5f0 f i MainFrm.obj
 0001:00069620       ??0CLinkList@@QAE@XZ       0046a620 f i MainFrm.obj
 0001:00069650       ??0CGestureList@@QAE@XZ    0046a650 f i MainFrm.obj
 0001:00069680       ??0CFavIconList@@QAE@XZ    0046a680 f i MainFrm.obj
 0001:000696b0       ??1CStatusBarWithProgress@@UAE@XZ 0046a6b0 f i MainFrm.obj
 0001:00069730       ??1CNewDlgBar@@UAE@XZ      0046a730 f i MainFrm.obj
 0001:00069790       ??1CPsychoStateBar@@UAE@XZ 0046a790 f i MainFrm.obj
 0001:000697b0       ??_ECSearchList@@UAEPAXI@Z 0046a7b0 f i MainFrm.obj
 0001:000697b0       ??_GCSearchList@@UAEPAXI@Z 0046a7b0 f i MainFrm.obj
 0001:000697f0       ??_ECLinkList@@UAEPAXI@Z   0046a7f0 f i MainFrm.obj
 0001:000697f0       ??_GCLinkList@@UAEPAXI@Z   0046a7f0 f i MainFrm.obj
 0001:00069830       ??_GCGestureList@@UAEPAXI@Z 0046a830 f i MainFrm.obj
 0001:00069830       ??_ECGestureList@@UAEPAXI@Z 0046a830 f i MainFrm.obj
 0001:00069870       ??_ECFavIconList@@UAEPAXI@Z 0046a870 f i MainFrm.obj
 0001:00069870       ??_GCFavIconList@@UAEPAXI@Z 0046a870 f i MainFrm.obj
 0001:000698b0       ??1CMainFrame@@UAE@XZ      0046a8b0 f   MainFrm.obj
 0001:0006a0f0       ?KillTimer@CWnd@@QAEHH@Z   0046b0f0 f i MainFrm.obj
 0001:0006a120       ?ClearWorkSpace@CMainFrame@@QAEXXZ 0046b120 f   MainFrm.obj
 0001:0006a370       ??_GCMarkup@@QAEPAXI@Z     0046b370 f i MainFrm.obj
 0001:0006a3b0       ?OnCreate@CMainFrame@@IAEHPAUtagCREATESTRUCTA@@@Z 0046b3b0 f   MainFrm.obj
 0001:0006c200       ?CheckMenuItem@CMenu@@QAEIII@Z 0046d200 f i MainFrm.obj
 0001:0006c230       ?LoadMenuA@CMenu@@QAEHI@Z  0046d230 f i MainFrm.obj
 0001:0006c270       ?GetStatusBarCtrl@CStatusBar@@QBEAAVCStatusBarCtrl@@XZ 0046d270 f i MainFrm.obj
 0001:0006c290       ?SetExtendedStyle@CToolBarCtrl@@QAEKK@Z 0046d290 f i MainFrm.obj
 0001:0006c2c0       ?SetImageList@CTabCtrl@@QAEPAVCImageList@@PAV2@@Z 0046d2c0 f i MainFrm.obj
 0001:0006c300       ?SetPadding@CTabCtrl@@QAEXVCSize@@@Z 0046d300 f i MainFrm.obj
 0001:0006c350       ?GetExtendedStyle@CTabCtrl@@QAEKXZ 0046d350 f i MainFrm.obj
 0001:0006c380       ?SetExtendedStyle@CTabCtrl@@QAEKKK@Z 0046d380 f i MainFrm.obj
 0001:0006c3b0       ?SetIcon@CStatusBarCtrl@@QAEHHPAUHICON__@@@Z 0046d3b0 f i MainFrm.obj
 0001:0006c3e0       ?SetBandInfo@CReBarCtrl@@QAEHIPAUtagREBARBANDINFOA@@@Z 0046d3e0 f i MainFrm.obj
 0001:0006c410       ?ShowBand@CReBarCtrl@@QAEHIH@Z 0046d410 f i MainFrm.obj
 0001:0006c440       ?SetProgressBarWidth@CStatusBarWithProgress@@QAEXH@Z 0046d440 f i MainFrm.obj
 0001:0006c470       ?SetRange@CStatusBarWithProgress@@QAEXHH@Z 0046d470 f i MainFrm.obj
 0001:0006c4a0       ?SetRange@CProgressCtrl@@QAEXFF@Z 0046d4a0 f i MainFrm.obj
 0001:0006c4f0       ?LoadMenuA@CMenuBar@@QAEPAUHMENU__@@I@Z 0046d4f0 f i MainFrm.obj
 0001:0006c520       ?GetMenu@CMenuBar@@QAEPAVCMenu@@XZ 0046d520 f i MainFrm.obj
 0001:0006c560       ?SetAddress@CMainFrame@@QAEXPBD@Z 0046d560 f   MainFrm.obj
 0001:0006c5f0       ?OnNewAddress@CMainFrame@@IAEXXZ 0046d5f0 f   MainFrm.obj
 0001:0006c9d0       ?OnNewAddressEnter@CMainFrame@@IAEXXZ 0046d9d0 f   MainFrm.obj
 0001:0006de80       ?DoNothing@CMainFrame@@IAEXXZ 0046ee80 f   MainFrm.obj
 0001:0006dea0       ?BuildFavoritesMenu@CMainFrame@@QAEHPBDHPAVCMenu@@HHAAH@Z 0046eea0 f   MainFrm.obj
 0001:0006f210       ?IDToIndex@CReBarCtrl@@QBEHI@Z 00470210 f i MainFrm.obj
 0001:0006f240       ??0CMenuOrder@@QAE@XZ      00470240 f i MainFrm.obj
 0001:0006f280       ??1CMenuOrder@@QAE@XZ      00470280 f i MainFrm.obj
 0001:0006f320       ??_ECMenuOrderItem@@QAEPAXI@Z 00470320 f i MainFrm.obj
 0001:0006f3a0       ??1CMenuOrderItem@@QAE@XZ  004703a0 f i MainFrm.obj
 0001:0006f430       ?OpenGoUpMenuItem@CMainFrame@@IAEXI@Z 00470430 f   MainFrm.obj
 0001:0006f7a0       ?OnGoUpPage@CMainFrame@@AAEXXZ 004707a0 f   MainFrm.obj
 0001:0006fb70       ?OpenMenuItem@CMainFrame@@IAEXI@Z 00470b70 f   MainFrm.obj
 0001:0006fe40       ?OpenMenuUrl@CMainFrame@@QAEXVCString@@KH@Z 00470e40 f   MainFrm.obj
 0001:00070200       ?OnFileNewBlank@CMainFrame@@IAEXXZ 00471200 f   MainFrm.obj
 0001:00070260       ?OnFileNewCurrentpage@CMainFrame@@IAEXXZ 00471260 f   MainFrm.obj
 0001:00070360       ?OnUpdateProgress@CMainFrame@@IAEXPAVCCmdUI@@@Z 00471360 f   MainFrm.obj
 0001:00070480       ?IsProgressBarVisible@CStatusBarWithProgress@@QBEHXZ 00471480 f i MainFrm.obj
 0001:000704a0       ?SetPos@CStatusBarWithProgress@@QAEHH@Z 004714a0 f i MainFrm.obj
 0001:000704d0       ?SetPos@CProgressCtrl@@QAEHH@Z 004714d0 f i MainFrm.obj
 0001:00070500       ?AddNewTab@CMainFrame@@QAEHPAVCChildFrame@@HPADH@Z 00471500 f   MainFrm.obj
 0001:00070810       ?OnSelChange@CMainFrame@@IAEXPAUtagNMHDR@@PAJ@Z 00471810 f   MainFrm.obj
 0001:00070840       ?OnSelTab@CMainFrame@@IAEXIJ@Z 00471840 f   MainFrm.obj
 0001:00070930       ?OnRClickElse@CMainFrame@@IAEXPAUtagNMHDR@@PAJ@Z 00471930 f   MainFrm.obj
 0001:00070d20       ?WindowFromPoint@CWnd@@SGPAV1@UtagPOINT@@@Z 00471d20 f i MainFrm.obj
 0001:00070d50       ?OnRClickStatusToolbar@CMainFrame@@IAEXPAUtagNMHDR@@PAJ@Z 00471d50 f   MainFrm.obj
 0001:00070e00       ?OnRClick@CMainFrame@@IAEXPAUtagNMHDR@@PAJ@Z 00471e00 f   MainFrm.obj
 0001:00071050       ?SaveTypedURL@CMainFrame@@QAEXXZ 00472050 f   MainFrm.obj
 0001:00071230       ?OnDropDown@CMainFrame@@IAEXPAUtagNMHDR@@PAJ@Z 00472230 f   MainFrm.obj
 0001:00072170       ?GetRect@CToolBarCtrl@@QBEHHPAUtagRECT@@@Z 00473170 f i MainFrm.obj
 0001:000721a0       ?OnViewAddressbar@CMainFrame@@IAEXXZ 004731a0 f   MainFrm.obj
 0001:000722a0       ?OnViewTaskbar@CMainFrame@@IAEXXZ 004732a0 f   MainFrm.obj
 0001:00072410       ?OnFileWorkoffline@CMainFrame@@IAEXXZ 00473410 f   MainFrm.obj
 0001:00072480       ?LoadTypedURL@CMainFrame@@QAEXXZ 00473480 f   MainFrm.obj
 0001:000725d0       ?LockTab@CMainFrame@@QAEXPAVCChildFrame@@@Z 004735d0 f   MainFrm.obj
 0001:00072760       ?MarkTab@CMainFrame@@QAEXPAVCChildFrame@@@Z 00473760 f   MainFrm.obj
 0001:00072890       ?OnRtabLock@CMainFrame@@IAEXXZ 00473890 f   MainFrm.obj
 0001:00072940       ?OnViewLock@CMainFrame@@IAEXXZ 00473940 f   MainFrm.obj
 0001:00072970       ?OnToolsAddtopopupfilter@CMainFrame@@IAEXXZ 00473970 f   MainFrm.obj
 0001:000729b0       ?OnRtabAddtopopupfilter@CMainFrame@@IAEXXZ 004739b0 f   MainFrm.obj
 0001:00072a00       ?AddToPopup@CMainFrame@@QAEXPAVCChildFrame@@@Z 00473a00 f   MainFrm.obj
 0001:00072bb0       ?SavePopFilterList@@YAIPAX@Z 00473bb0 f   MainFrm.obj
 0001:00072d70       ?GetHeadPosition@CStringList@@QBEPAU__POSITION@@XZ 00473d70 f i MainFrm.obj
 0001:00072d90       ?GetNext@CStringList@@QAEAAVCString@@AAPAU__POSITION@@@Z 00473d90 f i MainFrm.obj
 0001:00072dc0       ?GetAt@CStringList@@QAEAAVCString@@PAU__POSITION@@@Z 00473dc0 f i MainFrm.obj
 0001:00072df0       ?SaveUrlFilterList@@YAIPAX@Z 00473df0 f   MainFrm.obj
 0001:00072fe0       ?SaveFilterList2File@CMainFrame@@QAEXH@Z 00473fe0 f   MainFrm.obj
 0001:00073020       ?OnToolsEditpopupfilterlist@CMainFrame@@IAEXXZ 00474020 f   MainFrm.obj
 0001:00073060       ?OnToolsEmail@CMainFrame@@IAEXXZ 00474060 f   MainFrm.obj
 0001:000730f0       ?OnToolsAddr@CMainFrame@@IAEXXZ 004740f0 f   MainFrm.obj
 0001:00073350       ?OnToolsCleanCookie@CMainFrame@@IAEXXZ 00474350 f   MainFrm.obj
 0001:00073380       ?OnToolsCache@CMainFrame@@IAEXXZ 00474380 f   MainFrm.obj
 0001:000733b0       ?OnToolsHistory@CMainFrame@@IAEXXZ 004743b0 f   MainFrm.obj
 0001:00073410       ?OnToolsCleanaddr@CMainFrame@@IAEXXZ 00474410 f   MainFrm.obj
 0001:000734b0       ?OnCleanTypedSearch@CMainFrame@@IAEXXZ 004744b0 f   MainFrm.obj
 0001:00073510       ?OnToolsCleanUndoClose@CMainFrame@@IAEXXZ 00474510 f   MainFrm.obj
 0001:000735b0       ?OnToolsAll@CMainFrame@@IAEXXZ 004745b0 f   MainFrm.obj
 0001:000736d0       ?DelTempFiles@CMainFrame@@QAEHKH@Z 004746d0 f   MainFrm.obj
 0001:000738a0       ?OnFonts@CMainFrame@@IAEXI@Z 004748a0 f   MainFrm.obj
 0001:00073970       ?SetAsDefaultBrowser@CMainFrame@@QAEXXZ 00474970 f   MainFrm.obj
 0001:00073e00       ?OnAddrDrop@CMainFrame@@IAEXXZ 00474e00 f   MainFrm.obj
 0001:00073e50       ?ShowDropDown@CComboBox@@QAEXH@Z 00474e50 f i MainFrm.obj
 0001:00073e80       ?GetDroppedState@CComboBox@@QBEHXZ 00474e80 f i MainFrm.obj
 0001:00073eb0       ?OnAddrFocus@CMainFrame@@IAEXXZ 00474eb0 f   MainFrm.obj
 0001:00073ee0       ?OnHelpHelp@CMainFrame@@IAEXXZ 00474ee0 f   MainFrm.obj
 0001:00074000       ?OnOptionsActivenewwindow@CMainFrame@@IAEXXZ 00475000 f   MainFrm.obj
 0001:00074040       ?SetDefault@CMainFrame@@QAEHPBDH@Z 00475040 f   MainFrm.obj
 0001:000745a0       ?OnViewLinks@CMainFrame@@IAEXXZ 004755a0 f   MainFrm.obj
 0001:000746a0       ?OnViewToolbar@CMainFrame@@IAEXXZ 004756a0 f   MainFrm.obj
 0001:00074790       ?OnHelpMail@CMainFrame@@IAEXXZ 00475790 f   MainFrm.obj
 0001:00074820       ?OnHelpForum@CMainFrame@@IAEXXZ 00475820 f   MainFrm.obj
 0001:00074850       ?OnFileNewClip@CMainFrame@@IAEXXZ 00475850 f   MainFrm.obj
 0001:00074a10       ?OnViewMenubar@CMainFrame@@IAEXXZ 00475a10 f   MainFrm.obj
 0001:00074b00       ?ShowSkin@CMainFrame@@QAEXXZ 00475b00 f   MainFrm.obj
 0001:00074c10       ?ShowBackground@CMainFrame@@QAEXH@Z 00475c10 f   MainFrm.obj
 0001:00074f10       ?GetBandCount@CReBarCtrl@@QBEIXZ 00475f10 f i MainFrm.obj
 0001:00074f40       ?OnToolsSetSkin@CMainFrame@@IAEXI@Z 00475f40 f   MainFrm.obj
 0001:00075040       ?OnShortcutSc@CMainFrame@@IAEXXZ 00476040 f   MainFrm.obj
 0001:000750b0       ??1CSetSCDlg@@UAE@XZ       004760b0 f i MainFrm.obj
 0001:00075140       ?OnShortcutManalias@CMainFrame@@IAEXXZ 00476140 f   MainFrm.obj
 0001:000751c0       ??1CSetAliasDlg@@UAE@XZ    004761c0 f i MainFrm.obj
 0001:00075220       ?OnViewToolbarsCustomize@CMainFrame@@IAEXXZ 00476220 f   MainFrm.obj
 0001:00075350       ?OnOptionsWebMindoptions@CMainFrame@@IAEXXZ 00476350 f   MainFrm.obj
 0001:00079670       ?SetDefaultItem@CMenu@@QAEHIH@Z 0047a670 f i MainFrm.obj
 0001:000796a0       ?SetStartPage@CSAPrefsDialog@@QAEXH@Z 0047a6a0 f i MainFrm.obj
 0001:000796d0       ?GetCurrentPage@CSAPrefsDialog@@QAEHXZ 0047a6d0 f i MainFrm.obj
 0001:000796f0       ??1CPopupDlg@@UAE@XZ       0047a6f0 f i MainFrm.obj
 0001:00079760       ??1CUrlFilterProp@@UAE@XZ  0047a760 f i MainFrm.obj
 0001:000797e0       ?OnRtabStickname@CMainFrame@@IAEXXZ 0047a7e0 f   MainFrm.obj
 0001:00079ae0       ?OnViewFavs@CMainFrame@@IAEXXZ 0047aae0 f   MainFrm.obj
 0001:00079be0       ?OnViewSearch@CMainFrame@@IAEXXZ 0047abe0 f   MainFrm.obj
 0001:00079ce0       ?SaveSearchEngine@@YAIPAX@Z 0047ace0 f   MainFrm.obj
 0001:00079ec0       ?OnToolsQuicksearch@CMainFrame@@IAEXXZ 0047aec0 f   MainFrm.obj
 0001:0007a0a0       ??1CQuickSearchDlg@@UAE@XZ 0047b0a0 f i MainFrm.obj
 0001:0007a130       ?OnToolsSync@CMainFrame@@IAEXXZ 0047b130 f   MainFrm.obj
 0001:0007a160       ?OnToolsCollector@CMainFrame@@QAEXH@Z 0047b160 f   MainFrm.obj
 0001:0007a4a0       ?MoveWindow@CWnd@@QAEXPBUtagRECT@@H@Z 0047b4a0 f i MainFrm.obj
 0001:0007a4f0       ?OnToolsCollect@CMainFrame@@IAEXXZ 0047b4f0 f   MainFrm.obj
 0001:0007a510       ?OnAllPageLinks@CMainFrame@@IAEXXZ 0047b510 f   MainFrm.obj
 0001:0007a760       ?IsIconic@CWnd@@QBEHXZ     0047b760 f i MainFrm.obj
 0001:0007a780       ?GetAllLinks@CMainFrame@@AAEHPAVCWebMindView@@@Z 0047b780 f   MainFrm.obj
 0001:0007aab0       ??0CLink@@QAE@XZ           0047bab0 f i MainFrm.obj
 0001:0007ab10       ?OnFileCloseall@CMainFrame@@IAEXXZ 0047bb10 f   MainFrm.obj
 0001:0007ac40       ?SetTabTitle@CMainFrame@@QAEXPBDH@Z 0047bc40 f   MainFrm.obj
 0001:0007ad60       ?SetItem@CTabCtrl@@QAEHHPAUtagTCITEMA@@@Z 0047bd60 f i MainFrm.obj
 0001:0007ad90       ?GetToolTips@CTabCtrl@@QBEPAVCToolTipCtrl@@XZ 0047bd90 f i MainFrm.obj
 0001:0007adc0       ?FindTab@CMainFrame@@QAEHPAVCChildFrame@@H@Z 0047bdc0 f   MainFrm.obj
 0001:0007aea0       ?IsDownloading@CMainFrame@@QAEHXZ 0047bea0 f   MainFrm.obj
 0001:0007af80       ?TerminateAppEnum@@YGHPAUHWND__@@J@Z 0047bf80 f   MainFrm.obj
 0001:0007afc0       ?TerminateApp@@YGKKK@Z     0047bfc0 f   MainFrm.obj
 0001:0007b020       ?OnClose@CMainFrame@@IAEXXZ 0047c020 f   MainFrm.obj
 0001:0007b990       ?IsZoomed@CWnd@@QBEHXZ     0047c990 f i MainFrm.obj
 0001:0007b9b0       ?UpdateWindow@CWnd@@QAEXXZ 0047c9b0 f i MainFrm.obj
 0001:0007b9d0       ?OnViewSource@CMainFrame@@IAEXXZ 0047c9d0 f   MainFrm.obj
 0001:0007ba20       ?OnFileClose@CMainFrame@@IAEXXZ 0047ca20 f   MainFrm.obj
 0001:0007ba80       ?OnFileClose2@CMainFrame@@IAEXXZ 0047ca80 f   MainFrm.obj
 0001:0007bb20       ?ExecCmdTarget@CMainFrame@@QAEJKPAVCFixedHtmlView@@@Z 0047cb20 f   MainFrm.obj
 0001:0007bc20       ?OnToolsInternetoptions@CMainFrame@@IAEXXZ 0047cc20 f   MainFrm.obj
 0001:0007bd00       ?OnFavoritesAddtofavorites@CMainFrame@@IAEXXZ 0047cd00 f   MainFrm.obj
 0001:0007bd40       ?OnFavoritesExportfavorites@CMainFrame@@IAEXXZ 0047cd40 f   MainFrm.obj
 0001:0007be10       ?OnFavoritesImportfavorites@CMainFrame@@IAEXXZ 0047ce10 f   MainFrm.obj
 0001:0007bee0       ?OnFavoritesOrgnizefavorites@CMainFrame@@IAEXXZ 0047cee0 f   MainFrm.obj
 0001:0007bfa0       ?InitFavorites@CMainFrame@@QAEXH@Z 0047cfa0 f   MainFrm.obj
 0001:0007c950       ?DeleteMenu@CMenu@@QAEHII@Z 0047d950 f i MainFrm.obj
 0001:0007c980       ?AddMenuBreak@CMainFrame@@QAEXPAVCMenu@@H@Z 0047d980 f   MainFrm.obj
 0001:0007cd40       ?OnUpdateFileWorkoffline@CMainFrame@@IAEXPAVCCmdUI@@@Z 0047dd40 f   MainFrm.obj
 0001:0007cdd0       ?OnUpdateMenu@CMainFrame@@IAEXPAVCCmdUI@@@Z 0047ddd0 f   MainFrm.obj
 0001:0007ce00       ?OnUpdateOptionsUseProxy@CMainFrame@@IAEXPAVCCmdUI@@@Z 0047de00 f   MainFrm.obj
 0001:0007ce30       ?OnOptionsUseProxy@CMainFrame@@IAEXXZ 0047de30 f   MainFrm.obj
 0001:0007ce70       ?OnOptionsSetProxy@CMainFrame@@IAEXXZ 0047de70 f   MainFrm.obj
 0001:0007d1f0       ??1CSetProxy@@UAE@XZ       0047e1f0 f i MainFrm.obj
 0001:0007d2d0       ??_GCSetProxy@@UAEPAXI@Z   0047e2d0 f i MainFrm.obj
 0001:0007d2d0       ??_ECSetProxy@@UAEPAXI@Z   0047e2d0 f i MainFrm.obj
 0001:0007d310       ?OnEncoding@CMainFrame@@IAEXI@Z 0047e310 f   MainFrm.obj
 0001:0007d8e0       ?HideSelectBars@CMainFrame@@QAEXK@Z 0047e8e0 f   MainFrm.obj
 0001:0007d990       ?ShowSelectBars@CMainFrame@@QAEXK@Z 0047e990 f   MainFrm.obj
 0001:0007da20       ?FullScreenModeOn@CMainFrame@@QAEXH@Z 0047ea20 f   MainFrm.obj
 0001:0007dae0       ?FullScreenModeOff@CMainFrame@@QAEXH@Z 0047eae0 f   MainFrm.obj
 0001:0007db70       ?OnViewFullscreen@CMainFrame@@IAEXXZ 0047eb70 f   MainFrm.obj
 0001:0007dc00       ?AutoHideModeOn@CMainFrame@@QAEXXZ 0047ec00 f   MainFrm.obj
 0001:0007dc50       ?AutoHideModeOff@CMainFrame@@QAEXXZ 0047ec50 f   MainFrm.obj
 0001:0007dca0       ?OnViewAutoHide@CMainFrame@@IAEXXZ 0047eca0 f   MainFrm.obj
 0001:0007dd30       ?OnUpdateViewFullscreen@CMainFrame@@IAEXPAVCCmdUI@@@Z 0047ed30 f   MainFrm.obj
 0001:0007dda0       ?OnShellOpen@CMainFrame@@IAEXIJ@Z 0047eda0 f   MainFrm.obj
 0001:0007dfb0       ?SetForegroundWindow@CWnd@@QAEHXZ 0047efb0 f i MainFrm.obj
 0001:0007dfd0       ?ResolveLink@CMainFrame@@QAEHPBDPAD@Z 0047efd0 f   MainFrm.obj
 0001:0007e1a0       ?OnFileNew@CMainFrame@@IAEXXZ 0047f1a0 f   MainFrm.obj
 0001:0007e1f0       ?NewChildWindow@CMainFrame@@QAEPAVCChildFrame@@HHPBDPAVCWebMindView@@H@Z 0047f1f0 f   MainFrm.obj
 0001:0007ec60       ?OnUpdateOptionsActivenewwindow@CMainFrame@@IAEXPAVCCmdUI@@@Z 0047fc60 f   MainFrm.obj
 0001:0007ec90       ?OnRtabAddfav@CMainFrame@@IAEXXZ 0047fc90 f   MainFrm.obj
 0001:0007ece0       ?ItemFromPath@@YAJPBDAAPAU_ITEMIDLIST@@@Z 0047fce0 f   MainFrm.obj
 0001:0007ed70       ?AddFavorite@CMainFrame@@QAEXPAVCChildFrame@@@Z 0047fd70 f   MainFrm.obj
 0001:0007f020       ?OpenAllFavs@CMainFrame@@QAEHPBD@Z 00480020 f   MainFrm.obj
 0001:0007f390       ?GetFavoriteFolder@CMainFrame@@QAEHAAVCString@@@Z 00480390 f   MainFrm.obj
 0001:0007f5c0       ?OnLinkPopup@CMainFrame@@IAEXXZ 004805c0 f   MainFrm.obj
 0001:0007f7b0       ?OnFavPopup@CMainFrame@@IAEXXZ 004807b0 f   MainFrm.obj
 0001:0007f910       ?OnUpdateViewToolbar@CMainFrame@@IAEXPAVCCmdUI@@@Z 00480910 f   MainFrm.obj
 0001:0007f9e0       ?OnUpdateFav@CMainFrame@@IAEXIJ@Z 004809e0 f   MainFrm.obj
 0001:0007fa00       ?OnSize@CMainFrame@@IAEXIHH@Z 00480a00 f   MainFrm.obj
 0001:0007fa80       ?OnOptionMultiTab@CMainFrame@@QAEXXZ 00480a80 f   MainFrm.obj
 0001:0007fb00       ?OnUpdateTab@CMainFrame@@IAEXIJ@Z 00480b00 f   MainFrm.obj
 0001:0007fcd0       ?GetRowCount@CTabCtrl@@QBEHXZ 00480cd0 f i MainFrm.obj
 0001:0007fd00       ?OnAllFav@CMainFrame@@IAEXI@Z 00480d00 f   MainFrm.obj
 0001:0007fd60       ?OnRtabCloseKeepcur@CMainFrame@@IAEXXZ 00480d60 f   MainFrm.obj
 0001:0007feb0       ?OnFileCloseKeepcur@CMainFrame@@IAEXXZ 00480eb0 f   MainFrm.obj
 0001:0007fee0       ?OnViewRefreshall@CMainFrame@@IAEXXZ 00480ee0 f   MainFrm.obj
 0001:0007ffb0       ?OnViewStopAll@CMainFrame@@IAEXXZ 00480fb0 f   MainFrm.obj
 0001:00080000       ?OnHelpHomepage@CMainFrame@@IAEXXZ 00481000 f   MainFrm.obj
 0001:00080030       ?GetTabIcon@CMainFrame@@QAEHH@Z 00481030 f   MainFrm.obj
 0001:000800b0       ?SetTabIcon@CMainFrame@@QAEXHHPAVCWebMindView@@@Z 004810b0 f   MainFrm.obj
 0001:00080240       ?OnUpdateTabTips@CMainFrame@@IAEXIJ@Z 00481240 f   MainFrm.obj
 0001:00080370       ?OnWindowCascade@CMainFrame@@IAEXXZ 00481370 f   MainFrm.obj
 0001:000803c0       ?OnWindowTileHorz@CMainFrame@@IAEXXZ 004813c0 f   MainFrm.obj
 0001:00080410       ?OnWindowTileVert@CMainFrame@@IAEXXZ 00481410 f   MainFrm.obj
 0001:00080460       ?OnSettingChange@CMainFrame@@IAEXIPBD@Z 00481460 f   MainFrm.obj
 0001:00080490       ?OnTabNeedText@CMainFrame@@IAEXPAUtagNMHDR@@PAJ@Z 00481490 f   MainFrm.obj
 0001:000805a0       ?PreTranslateMessage@CMainFrame@@UAEHPAUtagMSG@@@Z 004815a0 f   MainFrm.obj
 0001:00080660       ?DoKeyMsg@CMainFrame@@QAEHPAUtagMSG@@@Z 00481660 f   MainFrm.obj
 0001:00080b00       ?GetComboBoxCtrl@CComboBoxEx@@QAEPAVCComboBox@@XZ 00481b00 f i MainFrm.obj
 0001:00080b30       ?DoMouseMsg@CMainFrame@@QAEHPAUtagMSG@@@Z 00481b30 f   MainFrm.obj
 0001:00080f60       ??0CPoint@@QAE@UtagPOINT@@@Z 00481f60 f i MainFrm.obj
 0001:00080f90       ?OnMeasureItem@CMainFrame@@IAEXHPAUtagMEASUREITEMSTRUCT@@@Z 00481f90 f   MainFrm.obj
 0001:00081010       ?DecodeEscap@CMainFrame@@QAEHAAVCString@@@Z 00482010 f   MainFrm.obj
 0001:00081280       ?GetMenu@CMainFrame@@QAEPAVCMenu@@XZ 00482280 f   MainFrm.obj
 0001:000812b0       ?OnWindowRestore@CMainFrame@@IAEXXZ 004822b0 f   MainFrm.obj
 0001:00081310       ?MDIRestore@CMDIFrameWnd@@QAEXPAVCWnd@@@Z 00482310 f i MainFrm.obj
 0001:00081350       ?OnDrawItem@CMainFrame@@IAEXHPAUtagDRAWITEMSTRUCT@@@Z 00482350 f   MainFrm.obj
 0001:000813e0       ?OnWindowMin@CMainFrame@@IAEXXZ 004823e0 f   MainFrm.obj
 0001:00081440       ?OnUpdateToolsSetSkin@CMainFrame@@IAEXPAVCCmdUI@@@Z 00482440 f   MainFrm.obj
 0001:00081750       ?InitToolBarImage@CMainFrame@@QAEXH@Z 00482750 f   MainFrm.obj
 0001:00081a30       ?InitToolBar@CMainFrame@@QAEXH@Z 00482a30 f   MainFrm.obj
 0001:00082090       ?SetButtonSize@CToolBarCtrl@@QAEHVCSize@@@Z 00483090 f i MainFrm.obj
 0001:000820e0       ?OnUpdateToolbar@CMainFrame@@IAEXIJ@Z 004830e0 f   MainFrm.obj
 0001:00082140       ?OnFileNewWebMind@CMainFrame@@IAEXXZ 00483140 f   MainFrm.obj
 0001:000821d0       ?OnFileOpen@CMainFrame@@IAEXXZ 004831d0 f   MainFrm.obj
 0001:00082370       ??1CWebFileOpenDlg@@UAE@XZ 00483370 f i MainFrm.obj
 0001:000823e0       ?OnViewToolbartextlabel@CMainFrame@@IAEXXZ 004833e0 f   MainFrm.obj
 0001:00082430       ?OnUpdateViewToolbartextlabel@CMainFrame@@IAEXPAVCCmdUI@@@Z 00483430 f   MainFrm.obj
 0001:00082460       ?OnChangeProxy@CMainFrame@@IAEXI@Z 00483460 f   MainFrm.obj
 0001:00082580       ?OnChangeWebProxy@CMainFrame@@IAEXI@Z 00483580 f   MainFrm.obj
 0001:00082770       ?OnOptionAutotab@CMainFrame@@QAEXXZ 00483770 f   MainFrm.obj
 0001:00082820       ?AdjustTabWidth@CMainFrame@@QAEHH@Z 00483820 f   MainFrm.obj
 0001:00082a40       ?SetItemSize@CTabCtrl@@QAE?AVCSize@@V2@@Z 00483a40 f i MainFrm.obj
 0001:00082ab0       ??0CSize@@QAE@K@Z          00483ab0 f i MainFrm.obj
 0001:00082af0       ?OnAddThisFav@CMainFrame@@IAEXI@Z 00483af0 f   MainFrm.obj
 0001:00083690       ?OnF2@CMainFrame@@IAEXI@Z  00484690 f   MainFrm.obj
 0001:00083ba0       ?OnShortcutUseSc@CMainFrame@@IAEXXZ 00484ba0 f   MainFrm.obj
 0001:00083bd0       ?OnUpdateShortcutUseSc@CMainFrame@@IAEXPAVCCmdUI@@@Z 00484bd0 f   MainFrm.obj
 0001:00083c00       ?OnShortcutAlias@CMainFrame@@IAEXXZ 00484c00 f   MainFrm.obj
 0001:00083c30       ?OnUpdateShortcutAlias@CMainFrame@@IAEXPAVCCmdUI@@@Z 00484c30 f   MainFrm.obj
 0001:00083c60       ?OnUpdateMsg@CMainFrame@@IAEXPAVCCmdUI@@@Z 00484c60 f   MainFrm.obj
 0001:00083cf0       ?OnInitMenuPopup@CMainFrame@@IAEXPAVCMenu@@IH@Z 00484cf0 f   MainFrm.obj
 0001:00084030       ?OnSysCommand@CMainFrame@@IAEXIJ@Z 00485030 f   MainFrm.obj
 0001:00084230       ?OnNotifyTray@CMainFrame@@IAEXIJ@Z 00485230 f   MainFrm.obj
 0001:000842c0       ?OnTabPre@CMainFrame@@IAEXXZ 004852c0 f   MainFrm.obj
 0001:00084390       ?OnTabNext@CMainFrame@@IAEXXZ 00485390 f   MainFrm.obj
 0001:00084490       ?OnOptionsUrlinstatus@CMainFrame@@IAEXXZ 00485490 f   MainFrm.obj
 0001:000844c0       ?OnUpdateOptionsUrlinstatus@CMainFrame@@IAEXPAVCCmdUI@@@Z 004854c0 f   MainFrm.obj
 0001:000844f0       ?GetMenuItemUrl@CMainFrame@@IAE?AVCString@@IPAUHMENU__@@H@Z 004854f0 f   MainFrm.obj
 0001:000846d0       ?OnMenuSelect@CMainFrame@@IAEXIIPAUHMENU__@@@Z 004856d0 f   MainFrm.obj
 0001:00084860       ?OnSwitchWins@CMainFrame@@IAEXI@Z 00485860 f   MainFrm.obj
 0001:00084900       ?OnRtabStop@CMainFrame@@IAEXXZ 00485900 f   MainFrm.obj
 0001:00084930       ?OnRtabRefresh@CMainFrame@@IAEXXZ 00485930 f   MainFrm.obj
 0001:00084990       ?OnViewProtect@CMainFrame@@IAEXXZ 00485990 f   MainFrm.obj
 0001:000849c0       ?OnRtabProtect@CMainFrame@@IAEXXZ 004859c0 f   MainFrm.obj
 0001:00084c70       ?OnActivateWindow@CMainFrame@@IAEXIJ@Z 00485c70 f   MainFrm.obj
 0001:00084ca0       ?OnDropFiles@CMainFrame@@IAEXPAUHDROP__@@@Z 00485ca0 f   MainFrm.obj
 0001:00085080       ?OnTimer@CMainFrame@@IAEXI@Z 00486080 f   MainFrm.obj
 0001:000852d0       ?PreCreateWindow@CMainFrame@@MAEHAAUtagCREATESTRUCTA@@@Z 004862d0 f   MainFrm.obj
 0001:00085330       ?OnFileHide@CMainFrame@@IAEXXZ 00486330 f   MainFrm.obj
 0001:00085350       ?OnHotKey@CMainFrame@@IAEXIJ@Z 00486350 f   MainFrm.obj
 0001:00085500       ?OnOptionsOpenlinkinnewwindow@CMainFrame@@IAEXXZ 00486500 f   MainFrm.obj
 0001:00085530       ?OnUpdateOptionsOpenlinkinnewwindow@CMainFrame@@IAEXPAVCCmdUI@@@Z 00486530 f   MainFrm.obj
 0001:00085560       ?OnScRll@CMainFrame@@IAEXIJ@Z 00486560 f   MainFrm.obj
 0001:000855c0       ?OnMouseWheel@CMainFrame@@IAEHIFVCPoint@@@Z 004865c0 f   MainFrm.obj
 0001:00085780       ?OnMouseWheel@CWnd@@IAEHIFVCPoint@@@Z 00486780 f i MainFrm.obj
 0001:000857a0       ?OnEditUndoclose@CMainFrame@@IAEXXZ 004867a0 f   MainFrm.obj
 0001:00085840       ?OnUpdateEditUndoclose@CMainFrame@@IAEXPAVCCmdUI@@@Z 00486840 f   MainFrm.obj
 0001:00085880       ?OnEditEdit@CMainFrame@@IAEXXZ 00486880 f   MainFrm.obj
 0001:00085970       ?FavMenuAddFolder@CMainFrame@@QAEXPBD0HHPAVCMenu@@AAH@Z 00486970 f   MainFrm.obj
 0001:00086220       ?AddButtons@CToolBarCtrl@@QAEHHPAU_TBBUTTON@@@Z 00487220 f i MainFrm.obj
 0001:00086250       ?AddStrings@CToolBarCtrl@@QAEHPBD@Z 00487250 f i MainFrm.obj
 0001:000862c0       ?FavMenuAddURL@CMainFrame@@QAEXPBD0HHPAVCMenu@@H@Z 004872c0 f   MainFrm.obj
 0001:000867f0       ?OnViewRefresh@CMainFrame@@IAEXXZ 004877f0 f   MainFrm.obj
 0001:00086870       ?OnViewStop@CMainFrame@@IAEXXZ 00487870 f   MainFrm.obj
 0001:000868d0       ?OnFilePrintpreview@CMainFrame@@IAEXXZ 004878d0 f   MainFrm.obj
 0001:00086920       ?OnFilePrint@CMainFrame@@IAEXXZ 00487920 f   MainFrm.obj
 0001:00086970       ?ToolBarSetCheck@CMainFrame@@QAEXPAVCCmdUI@@H@Z 00487970 f   MainFrm.obj
 0001:00086a50       ?PressButton@CToolBarCtrl@@QAEHHH@Z 00487a50 f i MainFrm.obj
 0001:00086a90       ?OnActivate@CMainFrame@@IAEXIPAVCWnd@@H@Z 00487a90 f   MainFrm.obj
 0001:00086c40       ?AddtoFavorite@CMainFrame@@QAEXPAGPAUtagVARIANT@@@Z 00487c40 f   MainFrm.obj
 0001:00086d00       ?OnWindowList@CMainFrame@@IAEXI@Z 00487d00 f   MainFrm.obj
 0001:00086da0       ?SaveLastVisit@CMainFrame@@QAEXH@Z 00487da0 f   MainFrm.obj
 0001:00087170       ?SaveLastClose@CMainFrame@@QAEXXZ 00488170 f   MainFrm.obj
 0001:00087330       ?OpenLastClose@CMainFrame@@QAEXXZ 00488330 f   MainFrm.obj
 0001:00087510       ?OnNewwindow@CMainFrame@@IAEXXZ 00488510 f   MainFrm.obj
 0001:000875c0       ?OnFileSendpagebyemail@CMainFrame@@IAEXXZ 004885c0 f   MainFrm.obj
 0001:00087e50       ?OnFileQuicksave@CMainFrame@@IAEXXZ 00488e50 f   MainFrm.obj
 0001:00088e80       ?SetAt@CMapStringToString@@QAEXPBD0@Z 00489e80 f i MainFrm.obj
 0001:00088eb0       ??0stagSaveFiles@@QAE@XZ   00489eb0 f i MainFrm.obj
 0001:00088f30       ?SendDocuments@@YAIPAX@Z   00489f30 f   MainFrm.obj
 0001:00089030       ?OnFileSendlinkbyemail@CMainFrame@@IAEXXZ 0048a030 f   MainFrm.obj
 0001:00089430       ?DefaultMail@CMainFrame@@QAEXPBD@Z 0048a430 f   MainFrm.obj
 0001:00089810       ?GetProxyName@CMainFrame@@QAE?AVCString@@AAV2@@Z 0048a810 f   MainFrm.obj
 0001:00089940       ?ResolveRelativePath@@YAXPBD0AAVCString@@@Z 0048a940 f   MainFrm.obj
 0001:00089d30       ?QuickSaveDocuments@@YAIPAX@Z 0048ad30 f   MainFrm.obj
 0001:0008adb0       ?IsEmpty@CMapStringToString@@QBEHXZ 0048bdb0 f i MainFrm.obj
 0001:0008ade0       ?GetStartPosition@CMapStringToString@@QBEPAU__POSITION@@XZ 0048bde0 f i MainFrm.obj
 0001:0008ae00       ??_GstagSaveFiles@@QAEPAXI@Z 0048be00 f i MainFrm.obj
 0001:0008ae40       ??1stagSaveFiles@@QAE@XZ   0048be40 f i MainFrm.obj
 0001:0008aec0       ?LaunchEmail@CMainFrame@@AAEXPBD@Z 0048bec0 f   MainFrm.obj
 0001:0008b0c0       ?LaunchEditor@CMainFrame@@AAEXPBD0@Z 0048c0c0 f   MainFrm.obj
 0001:0008b3d0       ?UpdateUndoMenu@CMainFrame@@QAEXXZ 0048c3d0 f   MainFrm.obj
 0001:0008b530       ?OnUndoList@CMainFrame@@IAEXI@Z 0048c530 f   MainFrm.obj
 0001:0008b600       ?FindDupURL@CMainFrame@@QAEHPBDPAVCChildFrame@@@Z 0048c600 f   MainFrm.obj
 0001:0008b750       ?IsBrowsing@CMainFrame@@AAEHXZ 0048c750 f   MainFrm.obj
 0001:0008b860       ?OnScFillform@CMainFrame@@IAEXXZ 0048c860 f   MainFrm.obj
 0001:0008c7c0       ?OnScSaveform@CMainFrame@@IAEXXZ 0048d7c0 f   MainFrm.obj
 0001:0008c7e0       ?OnScSavegenform@CMainFrame@@IAEXXZ 0048d7e0 f   MainFrm.obj
 0001:0008c800       ?SaveForm@CMainFrame@@AAEXH@Z 0048d800 f   MainFrm.obj
 0001:0008d190       ?ChangTabPos@CMainFrame@@AAEXH@Z 0048e190 f   MainFrm.obj
 0001:0008d370       ?DeleteBand@CReBarCtrl@@QAEHI@Z 0048e370 f i MainFrm.obj
 0001:0008d3a0       ?OnViewEncodingAuto@CMainFrame@@IAEXXZ 0048e3a0 f   MainFrm.obj
 0001:0008d470       ?OnUpdateViewEncodingAuto@CMainFrame@@IAEXPAVCCmdUI@@@Z 0048e470 f   MainFrm.obj
 0001:0008d4f0       ?GetHomePage@CMainFrame@@QAE?AVCString@@XZ 0048e4f0 f   MainFrm.obj
 0001:0008d5b0       ?SetHomePage@CMainFrame@@QAEXVCString@@@Z 0048e5b0 f   MainFrm.obj
 0001:0008d620       ?OnToolCleanWebMindform@CMainFrame@@IAEXXZ 0048e620 f   MainFrm.obj
 0001:0008d650       ?OnDelayLoadConfig@CMainFrame@@IAEXIJ@Z 0048e650 f   MainFrm.obj
 0001:0008f600       ??4CTime@@QAEABV0@ABV0@@Z  00490600 f i MainFrm.obj
 0001:0008f630       ??0CTabDropTarget@@QAE@XZ  00490630 f i MainFrm.obj
 0001:0008f670       ??_GCTabDropTarget@@UAEPAXI@Z 00490670 f i MainFrm.obj
 0001:0008f670       ??_ECTabDropTarget@@UAEPAXI@Z 00490670 f i MainFrm.obj
 0001:0008f6b0       ??1CTabDropTarget@@UAE@XZ  004906b0 f i MainFrm.obj
 0001:0008f6d0       ?TSaveConfig@@YAIPAX@Z     004906d0 f   MainFrm.obj
 0001:0008f6f0       ?BuildWebProxyMenu@CMainFrame@@QAEXPAVCMenu@@H@Z 004906f0 f   MainFrm.obj
 0001:0008fc80       ?OnRtabAddalias@CMainFrame@@IAEXXZ 00490c80 f   MainFrm.obj
 0001:0008fe20       ?OnRtabAddsc@CMainFrame@@IAEXXZ 00490e20 f   MainFrm.obj
 0001:0008fed0       ?OnRtabAutosave@CMainFrame@@IAEXXZ 00490ed0 f   MainFrm.obj
 0001:0008ff30       ?OnBitMapButton@CMainFrame@@IAEXXZ 00490f30 f   MainFrm.obj
 0001:0008ffa0       ?OnViewWinCust@CMainFrame@@IAEXI@Z 00490fa0 f   MainFrm.obj
 0001:0008ffe0       ?OnUpdateViewWinCust@CMainFrame@@IAEXPAVCCmdUI@@@Z 00490fe0 f   MainFrm.obj
 0001:00090020       ?BuildWinButtons@CMainFrame@@AAEXXZ 00491020 f   MainFrm.obj
 0001:000904b0       ?OnNewTab@CMainFrame@@IAEXXZ 004914b0 f   MainFrm.obj
 0001:000904e0       ?OnUpdateNewTab@CMainFrame@@IAEXPAVCCmdUI@@@Z 004914e0 f   MainFrm.obj
 0001:00090520       ?OnToolsUrlFilter@CMainFrame@@IAEXXZ 00491520 f   MainFrm.obj
 0001:00090560       ?OnUpdateToolsUrlFilter@CMainFrame@@IAEXPAVCCmdUI@@@Z 00491560 f   MainFrm.obj
 0001:00090590       ?InitialUrlFilter@CMainFrame@@QAEXXZ 00491590 f   MainFrm.obj
 0001:000907e0       ?GetUpperBound@CStringArray@@QBEHXZ 004917e0 f i MainFrm.obj
 0001:00090800       ?InitialNameSpace@CMainFrame@@QAEXXZ 00491800 f   MainFrm.obj
 0001:000908f0       ?UninitialNameSpace@CMainFrame@@QAEXXZ 004918f0 f   MainFrm.obj
 0001:000909c0       ?OnViewLocktoolbar@CMainFrame@@IAEXXZ 004919c0 f   MainFrm.obj
 0001:00090a00       ?OnUpdateViewLocktoolbar@CMainFrame@@IAEXPAVCCmdUI@@@Z 00491a00 f   MainFrm.obj
 0001:00090a30       ?FixToolbar@CMainFrame@@QAEXH@Z 00491a30 f   MainFrm.obj
 0001:00090b50       ?OnOptionTabStyle@CMainFrame@@QAEXXZ 00491b50 f   MainFrm.obj
 0001:00090bd0       ?SessionHistory@CMainFrame@@AAEXPAVCMenu@@HPAVCChildFrame@@@Z 00491bd0 f   MainFrm.obj
 0001:00090fc0       ?UpdateTabTitleIndex@CMainFrame@@QAEXH@Z 00491fc0 f   MainFrm.obj
 0001:00091130       ?GetUrlType@CMainFrame@@QAEHPBD@Z 00492130 f   MainFrm.obj
 0001:00091640       ?GetSiteName@CMainFrame@@QAEXAAVCString@@@Z 00492640 f   MainFrm.obj
 0001:00091940       ?MenuInserOwnerItem@CMainFrame@@QAEXPAVCMenu@@IIIPBDH@Z 00492940 f   MainFrm.obj
 0001:00091a00       ?InsertMenuA@CMenu@@QAEHIIIPBD@Z 00492a00 f i MainFrm.obj
 0001:00091a40       ?MenuAppendOwnerItem@CMainFrame@@QAEXPAVCMenu@@IIVCString@@@Z 00492a40 f   MainFrm.obj
 0001:00091b20       ?MenuAppendOwnerUrl@CMainFrame@@QAEXPAVCMenu@@IIVCString@@1@Z 00492b20 f   MainFrm.obj
 0001:00091c20       ?MenuAppendSeparator@CMainFrame@@QAEXPAVCMenu@@@Z 00492c20 f   MainFrm.obj
 0001:00091cd0       ?MenuInsertSeparator@CMainFrame@@QAEXPAVCMenu@@I@Z 00492cd0 f   MainFrm.obj
 0001:00091d80       ?OnEncode@CMainFrame@@QAEXXZ 00492d80 f   MainFrm.obj
 0001:00091dc0       ?GetHtmlSelectedText@CMainFrame@@QAEXAAVCString@@@Z 00492dc0 f   MainFrm.obj
 0001:00091f30       ?OnFileNewSelect@CMainFrame@@IAEXXZ 00492f30 f   MainFrm.obj
 0001:00091fe0       ?GetNetWorkInfo@CMainFrame@@QAEXXZ 00492fe0 f   MainFrm.obj
 0001:000920e0       ?OnUpdateRMouseDrag@CMainFrame@@IAEXPAVCCmdUI@@@Z 004930e0 f   MainFrm.obj
 0001:00092110       ?OnUpdateRMouseGesture@CMainFrame@@IAEXPAVCCmdUI@@@Z 00493110 f   MainFrm.obj
 0001:00092140       ?OnRMouseDrag@CMainFrame@@IAEXXZ 00493140 f   MainFrm.obj
 0001:00092190       ?OnRMouseGesture@CMainFrame@@IAEXXZ 00493190 f   MainFrm.obj
 0001:000921e0       ?GetStandUrl@CMainFrame@@QAE?AVCString@@V2@@Z 004931e0 f   MainFrm.obj
 0001:000922b0       ?OnToolsEnablePopFilter@CMainFrame@@IAEXXZ 004932b0 f   MainFrm.obj
 0001:000922e0       ?OnUpdateToolsEnablePopFilter@CMainFrame@@IAEXPAVCCmdUI@@@Z 004932e0 f   MainFrm.obj
 0001:00092310       ?BuildGoUpMenu@CMainFrame@@QAEXPAVCMenu@@@Z 00493310 f   MainFrm.obj
 0001:00092500       ?BuildProxyMenu@CMainFrame@@QAEXPAVCMenu@@@Z 00493500 f   MainFrm.obj
 0001:00092a70       ?OnOptionsUseIeProxy@CMainFrame@@IAEXXZ 00493a70 f   MainFrm.obj
 0001:00092b40       ?OnUpdateOptionsUseIeProxy@CMainFrame@@IAEXPAVCCmdUI@@@Z 00493b40 f   MainFrm.obj
 0001:00092bb0       ?UpdateProxy@CMainFrame@@QAEXXZ 00493bb0 f   MainFrm.obj
 0001:00092cf0       ?GetIeProxy@CMainFrame@@QAEXXZ 00493cf0 f   MainFrm.obj
 0001:00092e50       ?LoadTypedSearch@CMainFrame@@QAEXXZ 00493e50 f   MainFrm.obj
 0001:00092fa0       ?BuildSearchMenu@CMainFrame@@QAEXH@Z 00493fa0 f   MainFrm.obj
 0001:00093120       ?BuildTextDropSearchMenu@CMainFrame@@QAEXPAVCMenu@@@Z 00494120 f   MainFrm.obj
 0001:00093270       ?OnNewSearchEnter@CMainFrame@@IAEXXZ 00494270 f   MainFrm.obj
 0001:00093340       ?OnSearch@CMainFrame@@IAEXI@Z 00494340 f   MainFrm.obj
 0001:000938e0       ?SearchKey@CMainFrame@@QAEXVCString@@0@Z 004948e0 f   MainFrm.obj
 0001:00093b90       ?AddTrayIcon@CMainFrame@@QAEXXZ 00494b90 f   MainFrm.obj
 0001:00093c20       ?DelTrayIcon@CMainFrame@@QAEXXZ 00494c20 f   MainFrm.obj
 0001:00093c90       ?StopView@CMainFrame@@QAEXH@Z 00494c90 f   MainFrm.obj
 0001:00093d80       ?CloseAllTabDirect@CMainFrame@@QAEXXZ 00494d80 f   MainFrm.obj
 0001:00093e80       ?OnUpdateViewAutohide@CMainFrame@@IAEXPAVCCmdUI@@@Z 00494e80 f   MainFrm.obj
 0001:00093eb0       ?OnViewSysMenuBar@CMainFrame@@IAEXXZ 00494eb0 f   MainFrm.obj
 0001:00093fa0       ?DropFiles@CMainFrame@@QAEXPAUHDROP__@@@Z 00494fa0 f   MainFrm.obj
 0001:00093ff0       ?CollectorDrop@CMainFrame@@QAEXPAVCOleDataObject@@K@Z 00494ff0 f   MainFrm.obj
 0001:00094060       ?AddToPopList@CMainFrame@@QAEXVCString@@H@Z 00495060 f   MainFrm.obj
 0001:000941a0       ?AddToCollector@CMainFrame@@QAEXVCString@@H@Z 004951a0 f   MainFrm.obj
 0001:00094220       ?DoFont@CMainFrame@@IAEXXZ 00495220 f   MainFrm.obj
 0001:000942f0       ?OnEndSession@CMainFrame@@IAEXH@Z 004952f0 f   MainFrm.obj
 0001:00094330       ?OnToolsSearchText@CMainFrame@@IAEXXZ 00495330 f   MainFrm.obj
 0001:000943d0       ?OnLastVisited@CMainFrame@@IAEXXZ 004953d0 f   MainFrm.obj
 0001:00094440       ??1CSelectURL@@UAE@XZ      00495440 f i MainFrm.obj
 0001:000944b0       ?ConfirmPopupFilter@CMainFrame@@QAEHVCString@@H@Z 004954b0 f   MainFrm.obj
 0001:00094730       ??1CPopupConfirm@@UAE@XZ   00495730 f i MainFrm.obj
 0001:000947a0       ?GetDefaultProperty@CMainFrame@@QAEKXZ 004957a0 f   MainFrm.obj
 0001:000948e0       ?SetMessageText@CMainFrame@@QAEXPBD@Z 004958e0 f   MainFrm.obj
 0001:00094a50       ?GetMemory@CMainFrame@@IAE?AVCString@@XZ 00495a50 f   MainFrm.obj
 0001:00094c40       ??0CTimeSpan@@QAE@XZ       00495c40 f i MainFrm.obj
 0001:00094c60       ??4CTimeSpan@@QAEABV0@ABV0@@Z 00495c60 f i MainFrm.obj
 0001:00094c90       ?GetTotalSeconds@CTimeSpan@@QBEJXZ 00495c90 f i MainFrm.obj
 0001:00094cb0       ??GCTime@@QBE?AVCTimeSpan@@V0@@Z 00495cb0 f i MainFrm.obj
 0001:00094cf0       ??0CTimeSpan@@QAE@J@Z      00495cf0 f i MainFrm.obj
 0001:00094d10       ??0CTimeSpan@@QAE@ABV0@@Z  00495d10 f i MainFrm.obj
 0001:00094d60       ?GetLocalIP@CMainFrame@@IAE?AVCString@@XZ 00495d60 f   MainFrm.obj
 0001:00095030       ?GetOnlineTime@CMainFrame@@IAE?AVCString@@XZ 00496030 f   MainFrm.obj
 0001:00095110       ?GetHours@CTimeSpan@@QBEHXZ 00496110 f i MainFrm.obj
 0001:00095140       ?GetDays@CTimeSpan@@QBEJXZ 00496140 f i MainFrm.obj
 0001:00095160       ?GetTotalHours@CTimeSpan@@QBEJXZ 00496160 f i MainFrm.obj
 0001:00095180       ?GetMinutes@CTimeSpan@@QBEHXZ 00496180 f i MainFrm.obj
 0001:000951b0       ?GetTotalMinutes@CTimeSpan@@QBEJXZ 004961b0 f i MainFrm.obj
 0001:000951d0       ?GetSeconds@CTimeSpan@@QBEHXZ 004961d0 f i MainFrm.obj
 0001:00095200       ?OnUpdateDisp@CMainFrame@@IAEXPAVCCmdUI@@@Z 00496200 f   MainFrm.obj
 0001:00095800       ?IsImageType@CMainFrame@@QAEHPBD@Z 00496800 f   MainFrm.obj
 0001:00095910       ?GetBitmap@CMainFrame@@QAEPAUHBITMAP__@@PBD@Z 00496910 f   MainFrm.obj
 0001:00095b00       ?InitTaskBarImage@CMainFrame@@QAEXXZ 00496b00 f   MainFrm.obj
 0001:00095ce0       ?GetImageCount@CImageList@@QBEHXZ 00496ce0 f i MainFrm.obj
 0001:00095d00       ?Replace@CImageList@@QAEHHPAUHICON__@@@Z 00496d00 f i MainFrm.obj
 0001:00095d30       ?SetImageCount@CImageList@@QAEHI@Z 00496d30 f i MainFrm.obj
 0001:00095d60       ?InitGoImage@CMainFrame@@QAEXXZ 00496d60 f   MainFrm.obj
 0001:00095e40       ?InitMenuBarImage@CMainFrame@@QAEXXZ 00496e40 f   MainFrm.obj
 0001:00095f90       ?InitSystemBarImage@CMainFrame@@QAEXXZ 00496f90 f   MainFrm.obj
 0001:00096070       ?InitLinkBarImage@CMainFrame@@QAEXXZ 00497070 f   MainFrm.obj
 0001:00096180       ?InitFavBarImage@CMainFrame@@QAEXXZ 00497180 f   MainFrm.obj
 0001:00096290       ?InitMainAnimIcon@CMainFrame@@QAEXXZ 00497290 f   MainFrm.obj
 0001:000962f0       ?OnWindowManager@CMainFrame@@IAEXXZ 004972f0 f   MainFrm.obj
 0001:00096360       ?OnUpdateWindowManager@CMainFrame@@IAEXPAVCCmdUI@@@Z 00497360 f   MainFrm.obj
 0001:00096600       ?SaveExUtilsList@@YAIPAX@Z 00497600 f   MainFrm.obj
 0001:00096890       ?OnToolsExternalUtilitymanager@CMainFrame@@IAEXXZ 00497890 f   MainFrm.obj
 0001:00096920       ?BuildUtilMenu@CMainFrame@@QAEXXZ 00497920 f   MainFrm.obj
 0001:00097310       ?OnViewExTool@CMainFrame@@IAEXXZ 00498310 f   MainFrm.obj
 0001:00097410       ?OnUtils@CMainFrame@@IAEXI@Z 00498410 f   MainFrm.obj
 0001:00097440       ?RunUtils@CMainFrame@@QAEXIPAVCChildFrame@@@Z 00498440 f   MainFrm.obj
 0001:00097d20       ?CloseExternalUtil@CMainFrame@@AAEXXZ 00498d20 f   MainFrm.obj
 0001:00098170       ?StartUtil@CMainFrame@@QAEXH@Z 00499170 f   MainFrm.obj
 0001:00098580       ?OnFileNewSelectedLink@CMainFrame@@IAEXXZ 00499580 f   MainFrm.obj
 0001:00098930       ?OnFindSearchBar@CMainFrame@@IAEXXZ 00499930 f   MainFrm.obj
 0001:00098ec0       ?OnHighLightSearchBar@CMainFrame@@IAEXXZ 00499ec0 f   MainFrm.obj
 0001:000994c0       ?GetPageKeyWordCount@CMainFrame@@QAEHXZ 0049a4c0 f   MainFrm.obj
 0001:00099760       ?OnFileAutoSaveAll@CMainFrame@@IAEXXZ 0049a760 f   MainFrm.obj
 0001:00099840       ?OnFileNewCurrentHomePage@CMainFrame@@IAEXXZ 0049a840 f   MainFrm.obj
 0001:00099950       ?SaveAliasConfig@CMainFrame@@QAEXXZ 0049a950 f   MainFrm.obj
 0001:00099ad0       ?OnFileNewCurrentUpPage@CMainFrame@@IAEXXZ 0049aad0 f   MainFrm.obj
 0001:00099c00       ?DoWithImgUrl@CMainFrame@@QAEXH@Z 0049ac00 f   MainFrm.obj
 0001:00099da0       ?DoWithLinkUrl@CMainFrame@@QAEXHVCString@@0@Z 0049ada0 f   MainFrm.obj
 0001:00099fa0       ?OnEditImgUrl@CMainFrame@@IAEXXZ 0049afa0 f   MainFrm.obj
 0001:0009a040       ?DoWithText@CMainFrame@@QAEXHVCString@@@Z 0049b040 f   MainFrm.obj
 0001:0009a240       ?OpenJumpUrl@CMainFrame@@QAEXVCString@@@Z 0049b240 f   MainFrm.obj
 0001:0009a4a0       ?OnGoStartPage@CMainFrame@@IAEXXZ 0049b4a0 f   MainFrm.obj
 0001:0009a500       ?OnScSetFormData@CMainFrame@@IAEXXZ 0049b500 f   MainFrm.obj
 0001:0009a690       ??1CSetFormDataDlg@@UAE@XZ 0049b690 f i MainFrm.obj
 0001:0009a710       ?GetScriptLangCode@CMainFrame@@QAEHAAVCString@@0@Z 0049b710 f   MainFrm.obj
 0001:0009a930       ?RunScript@CMainFrame@@QAEXVCString@@@Z 0049b930 f   MainFrm.obj
 0001:0009ab40       ?RunOneScript@CMainFrame@@QAEXVCString@@PAVCChildFrame@@@Z 0049bb40 f   MainFrm.obj
 0001:0009ac30       ?RunScriptByFrame@CMainFrame@@QAEXVCString@@0PAVCChildFrame@@@Z 0049bc30 f   MainFrm.obj
 0001:0009aec0       ?CloseAllKindPage@CMainFrame@@QAEXPAVCChildFrame@@H@Z 0049bec0 f   MainFrm.obj
 0001:0009b180       ?OnViewFontsIncrease@CMainFrame@@IAEXXZ 0049c180 f   MainFrm.obj
 0001:0009b260       ?OnViewFontsDecrease@CMainFrame@@IAEXXZ 0049c260 f   MainFrm.obj
 0001:0009b340       ?OnViewMarkKind@CMainFrame@@IAEXXZ 0049c340 f   MainFrm.obj
 0001:0009b5f0       ?OnRtabMark@CMainFrame@@IAEXXZ 0049c5f0 f   MainFrm.obj
 0001:0009b6a0       ?OnViewMark@CMainFrame@@IAEXXZ 0049c6a0 f   MainFrm.obj
 0001:0009b6d0       ?OnToolsNoBackground@CMainFrame@@IAEXXZ 0049c6d0 f   MainFrm.obj
 0001:0009b710       ?OnUpdateToolsNoBackground@CMainFrame@@IAEXPAVCCmdUI@@@Z 0049c710 f   MainFrm.obj
 0001:0009b740       ?OnViewSetUndoClose@CMainFrame@@IAEXXZ 0049c740 f   MainFrm.obj
 0001:0009b7b0       ?OnAddtoIe@CMainFrame@@IAEXXZ 0049c7b0 f   MainFrm.obj
 0001:0009b8d0       ?OnFileCloseAlikeUrl@CMainFrame@@IAEXXZ 0049c8d0 f   MainFrm.obj
 0001:0009b990       ?OnFileCloseAlikeTitle@CMainFrame@@IAEXXZ 0049c990 f   MainFrm.obj
 0001:0009ba50       ?OnFileCloseAllLeft@CMainFrame@@IAEXXZ 0049ca50 f   MainFrm.obj
 0001:0009bb30       ?OnFileCloseAllRight@CMainFrame@@IAEXXZ 0049cb30 f   MainFrm.obj
 0001:0009bc20       ?SaveSearchKey@CMainFrame@@QAEXXZ 0049cc20 f   MainFrm.obj
 0001:0009bd50       ?OnOptionsAllowAnimate@CMainFrame@@IAEXXZ 0049cd50 f   MainFrm.obj
 0001:0009be60       ?OnUpdateOptionsAllowAnimate@CMainFrame@@IAEXPAVCCmdUI@@@Z 0049ce60 f   MainFrm.obj
 0001:0009bf40       ?OnOptionsDisableFlash@CMainFrame@@IAEXXZ 0049cf40 f   MainFrm.obj
 0001:0009bfe0       ?OnUpdateOptionsDisableFlash@CMainFrame@@IAEXPAVCCmdUI@@@Z 0049cfe0 f   MainFrm.obj
 0001:0009c070       ?OnToolsSearchCase@CMainFrame@@IAEXXZ 0049d070 f   MainFrm.obj
 0001:0009c0e0       ?OnUpdateToolsSearchCase@CMainFrame@@IAEXPAVCCmdUI@@@Z 0049d0e0 f   MainFrm.obj
 0001:0009c110       ?OnToolsSearchWhole@CMainFrame@@IAEXXZ 0049d110 f   MainFrm.obj
 0001:0009c180       ?OnUpdateToolsSearchWhole@CMainFrame@@IAEXPAVCCmdUI@@@Z 0049d180 f   MainFrm.obj
 0001:0009c1b0       ?RunDownManagerScript@CMainFrame@@QAEXVCString@@PAVCChildFrame@@@Z 0049d1b0 f   MainFrm.obj
 0001:0009c5a0       ?IsDownloadAble@CMainFrame@@QAEHVCString@@@Z 0049d5a0 f   MainFrm.obj
 0001:0009c760       ?OnUpdateToolsQuickSearch@CMainFrame@@IAEXPAVCCmdUI@@@Z 0049d760 f   MainFrm.obj
 0001:0009c790       ?OnToolsExternalAutorun@CMainFrame@@IAEXXZ 0049d790 f   MainFrm.obj
 0001:0009c7c0       ?OnUpdateToolsExternalAutorun@CMainFrame@@IAEXPAVCCmdUI@@@Z 0049d7c0 f   MainFrm.obj
 0001:0009c7f0       ?RunSelectedExternal@CMainFrame@@QAEXPAVCChildFrame@@H@Z 0049d7f0 f   MainFrm.obj
 0001:0009cbd0       ?OnViewCompletelyRefresh@CMainFrame@@IAEXXZ 0049dbd0 f   MainFrm.obj
 0001:0009cc60       ?GetProxySetting@CMainFrame@@QAEHAAVCString@@0@Z 0049dc60 f   MainFrm.obj
 0001:0009cd90       ?GetImageUrlByPoint@CMainFrame@@QAE?AVCString@@VCPoint@@@Z 0049dd90 f   MainFrm.obj
 0001:0009cff0       ?OnUrlShow@CMainFrame@@IAEXXZ 0049dff0 f   MainFrm.obj
 0001:0009d020       ?OnUrlEdit@CMainFrame@@IAEXXZ 0049e020 f   MainFrm.obj
 0001:0009d140       ?OnTextEdit@CMainFrame@@IAEXXZ 0049e140 f   MainFrm.obj
 0001:0009d260       ?OnUrlCopy@CMainFrame@@IAEXXZ 0049e260 f   MainFrm.obj
 0001:0009d290       ?OnUrlShowImg@CMainFrame@@IAEXXZ 0049e290 f   MainFrm.obj
 0001:0009d390       ?ClickPoint@CMainFrame@@QAEXH@Z 0049e390 f   MainFrm.obj
 0001:0009d4f0       ?OnUrlFilter@CMainFrame@@IAEXXZ 0049e4f0 f   MainFrm.obj
 0001:0009d780       ?OnUrlOpen@CMainFrame@@IAEXXZ 0049e780 f   MainFrm.obj
 0001:0009d7e0       ?OnUrlOpenActive@CMainFrame@@IAEXXZ 0049e7e0 f   MainFrm.obj
 0001:0009d840       ?OnUrlOpenInactive@CMainFrame@@IAEXXZ 0049e840 f   MainFrm.obj
 0001:0009d8c0       ?OnUrlOpenOtherSide@CMainFrame@@IAEXXZ 0049e8c0 f   MainFrm.obj
 0001:0009d960       ?OnUrlOpenIe@CMainFrame@@IAEXXZ 0049e960 f   MainFrm.obj
 0001:0009d9a0       ?OnUrlOpenJump@CMainFrame@@IAEXXZ 0049e9a0 f   MainFrm.obj
 0001:0009d9d0       ?OnTextSearch@CMainFrame@@IAEXXZ 0049e9d0 f   MainFrm.obj
 0001:0009da50       ?OnTextCopy@CMainFrame@@IAEXXZ 0049ea50 f   MainFrm.obj
 0001:0009da80       ?OnTextSave@CMainFrame@@IAEXXZ 0049ea80 f   MainFrm.obj
 0001:0009dd40       ?OnTextAutoSave@CMainFrame@@IAEXXZ 0049ed40 f   MainFrm.obj
 0001:0009e670       ?OnTextHighLight@CMainFrame@@IAEXXZ 0049f670 f   MainFrm.obj
 0001:0009e6d0       ?OnTextFind@CMainFrame@@IAEXXZ 0049f6d0 f   MainFrm.obj
 0001:0009e730       ?OnTextOpenLinks@CMainFrame@@IAEXXZ 0049f730 f   MainFrm.obj
 0001:0009e750       ?OnUrlAddtoFav@CMainFrame@@IAEXXZ 0049f750 f   MainFrm.obj
 0001:0009e8d0       ?OnUrlCollector@CMainFrame@@IAEXXZ 0049f8d0 f   MainFrm.obj
 0001:0009e980       ?OnTextCollector@CMainFrame@@IAEXXZ 0049f980 f   MainFrm.obj
 0001:0009ea10       ?OnToolsSearchDelete@CMainFrame@@IAEXXZ 0049fa10 f   MainFrm.obj
 0001:0009ea40       ?OnProxyExport@CMainFrame@@IAEXXZ 0049fa40 f   MainFrm.obj
 0001:0009f110       ??1CSelProxyCatDlg@@UAE@XZ 004a0110 f i MainFrm.obj
 0001:0009f190       ?OnProxyImport@CMainFrame@@IAEXXZ 004a0190 f   MainFrm.obj
 0001:0009fe40       ?OnFileCloseMarkedUrl@CMainFrame@@IAEXXZ 004a0e40 f   MainFrm.obj
 0001:0009ff90       ?OnToolsExternalRun@CMainFrame@@IAEXXZ 004a0f90 f   MainFrm.obj
 0001:0009ffe0       ?ShowBarLabel@CMainFrame@@QAEXXZ 004a0fe0 f   MainFrm.obj
 0001:000a0300       ?OnViewSelectLang@CMainFrame@@IAEXXZ 004a1300 f   MainFrm.obj
 0001:000a0590       ??1CSelectLang@@UAE@XZ     004a1590 f i MainFrm.obj
 0001:000a05f0       ?OnRtabNewWindow@CMainFrame@@IAEXXZ 004a15f0 f   MainFrm.obj
 0001:000a06b0       ?OnGoPageUp@CMainFrame@@IAEXXZ 004a16b0 f   MainFrm.obj
 0001:000a06e0       ?OnGoPageDown@CMainFrame@@IAEXXZ 004a16e0 f   MainFrm.obj
 0001:000a0710       ?OnGoPageTop@CMainFrame@@IAEXXZ 004a1710 f   MainFrm.obj
 0001:000a0740       ?OnGoPageBottom@CMainFrame@@IAEXXZ 004a1740 f   MainFrm.obj
 0001:000a0770       ?OnGoPageLeft@CMainFrame@@IAEXXZ 004a1770 f   MainFrm.obj
 0001:000a07c0       ?OnGoPageRight@CMainFrame@@IAEXXZ 004a17c0 f   MainFrm.obj
 0001:000a0810       ?ReloadTabMenu@CMainFrame@@QAEXXZ 004a1810 f   MainFrm.obj
 0001:000a09d0       ?OnHighlightSelectedText@CMainFrame@@IAEXXZ 004a19d0 f   MainFrm.obj
 0001:000a0a80       ?OnFindPrevSelectedText@CMainFrame@@IAEXXZ 004a1a80 f   MainFrm.obj
 0001:000a0ad0       ?OnFindNextSelectedText@CMainFrame@@IAEXXZ 004a1ad0 f   MainFrm.obj
 0001:000a0b80       ?OnOpenLink@CMainFrame@@IAEXXZ 004a1b80 f   MainFrm.obj
 0001:000a0bd0       ?OnOpenLinkActive@CMainFrame@@IAEXXZ 004a1bd0 f   MainFrm.obj
 0001:000a0c20       ?OnOpenLinkDeactive@CMainFrame@@IAEXXZ 004a1c20 f   MainFrm.obj
 0001:000a0c70       ?OnNotSaveKey@CMainFrame@@IAEXXZ 004a1c70 f   MainFrm.obj
 0001:000a0ca0       ?OnUpdateNotSaveKey@CMainFrame@@IAEXPAVCCmdUI@@@Z 004a1ca0 f   MainFrm.obj
 0001:000a0cd0       ?OnUrlOpenFtp@CMainFrame@@IAEXXZ 004a1cd0 f   MainFrm.obj
 0001:000a0d10       ?OnAppCommand@CMainFrame@@IAEJIJ@Z 004a1d10 f   MainFrm.obj
 0001:000a0f70       ?WriteProfileReBarBandsState@CMainFrame@@QAEXXZ 004a1f70 f   MainFrm.obj
 0001:000a10e0       ?SetBandInfo@@YAXIIII@Z    004a20e0 f   MainFrm.obj
 0001:000a1160       ?GetBandInfo@@YAPAUtagBandInfo@@I@Z 004a2160 f   MainFrm.obj
 0001:000a11c0       ?GetBandWnd@CMainFrame@@QAEPAVCWnd@@H@Z 004a21c0 f   MainFrm.obj
 0001:000a12f0       ?GetBandTitle@CMainFrame@@QAE?AVCString@@H@Z 004a22f0 f   MainFrm.obj
 0001:000a1520       ?GetProfileReBarBandsState@CMainFrame@@QAEXXZ 004a2520 f   MainFrm.obj
 0001:000a1a60       ?ActiveViewSetFocus@CMainFrame@@QAEHXZ 004a2a60 f   MainFrm.obj
 0001:000a1ae0       ?OnToolTipText@CMainFrame@@IAEHIPAUtagNMHDR@@PAJ@Z 004a2ae0 f   MainFrm.obj
 0001:000a1c80       ?OnToolsFlyFilter@CMainFrame@@IAEXXZ 004a2c80 f   MainFrm.obj
 0001:000a1cf0       ?OnUpdateToolsFlyFilter@CMainFrame@@IAEXPAVCCmdUI@@@Z 004a2cf0 f   MainFrm.obj
 0001:000a1d20       ?RefreshKillFlyingCode@CMainFrame@@QAEXXZ 004a2d20 f   MainFrm.obj
 0001:000a1dd0       ?RunKillFlying@CMainFrame@@QAEXPAVCChildFrame@@@Z 004a2dd0 f   MainFrm.obj
 0001:000a1e70       ?RunKillBlank@CMainFrame@@QAEXPAVCChildFrame@@@Z 004a2e70 f   MainFrm.obj
 0001:000a1f10       ?RunReloadUnloadImage@CMainFrame@@QAEXPAVCChildFrame@@@Z 004a2f10 f   MainFrm.obj
 0001:000a1fb0       ?RefreshKillBlankCode@CMainFrame@@QAEXXZ 004a2fb0 f   MainFrm.obj
 0001:000a2010       ?OnToolsDisDownActivex@CMainFrame@@IAEXXZ 004a3010 f   MainFrm.obj
 0001:000a2040       ?OnUpdateToolsDisDownActivex@CMainFrame@@IAEXPAVCCmdUI@@@Z 004a3040 f   MainFrm.obj
 0001:000a2070       ?OnMenuRButtonUp@CMainFrame@@IAEJIJ@Z 004a3070 f   MainFrm.obj
 0001:000a21e0       ?UpdateBandInfo@CMainFrame@@QAEXPAVCToolBar@@I@Z 004a31e0 f   MainFrm.obj
 0001:000a2290       ?OnToolsDialogFilter@CMainFrame@@IAEXXZ 004a3290 f   MainFrm.obj
 0001:000a22d0       ?OnUpdateToolsDialogFilter@CMainFrame@@IAEXPAVCCmdUI@@@Z 004a32d0 f   MainFrm.obj
 0001:000a2300       ?PopFilterStar@CMainFrame@@QAEHAAVCStringList@@VCString@@@Z 004a3300 f   MainFrm.obj
 0001:000a26a0       ?NeedPopFilter@CMainFrame@@QAEHVCString@@@Z 004a36a0 f   MainFrm.obj
 0001:000a27b0       ?NeedUnPopFilter@CMainFrame@@QAEHVCString@@@Z 004a37b0 f   MainFrm.obj
 0001:000a2870       ?NeedUrlFilter@CMainFrame@@QAEHVCString@@@Z 004a3870 f   MainFrm.obj
 0001:000a2940       ?UrlFilterStar@CMainFrame@@QAEHAAVCStringArray@@VCString@@@Z 004a3940 f i MainFrm.obj
 0001:000a2d60       ?NeedUnUrlFilter@CMainFrame@@QAEHVCString@@@Z 004a3d60 f   MainFrm.obj
 0001:000a2e20       ?UpdateFilter@CMainFrame@@QAEXH@Z 004a3e20 f   MainFrm.obj
 0001:000a2f30       ?OnEnableFilter@CMainFrame@@IAEXXZ 004a3f30 f   MainFrm.obj
 0001:000a3020       ?OnUpdateEnableFilter@CMainFrame@@IAEXPAVCCmdUI@@@Z 004a4020 f   MainFrm.obj
 0001:000a3070       ?DragDropLink@CMainFrame@@QAEXVCString@@H@Z 004a4070 f   MainFrm.obj
 0001:000a3800       ?DragDropUrl@CMainFrame@@QAEXVCString@@H@Z 004a4800 f   MainFrm.obj
 0001:000a3f00       ?GetChildFrameByTarget@CMainFrame@@QAEPAVCChildFrame@@PAV2@VCString@@@Z 004a4f00 f   MainFrm.obj
 0001:000a4050       ?GetChildFrameByUrl@CMainFrame@@QAEPAVCChildFrame@@PAV2@VCString@@@Z 004a5050 f   MainFrm.obj
 0001:000a4120       ?PromptMenuCommand@CMainFrame@@QAEHI@Z 004a5120 f   MainFrm.obj
 0001:000a4270       ?OnFavoritesResetOrder@CMainFrame@@IAEXXZ 004a5270 f   MainFrm.obj
 0001:000a42d0       ?AdjustMenuWidth@CMainFrame@@QAEXAAVCString@@@Z 004a52d0 f   MainFrm.obj
 0001:000a43f0       ?DoSpecialUrl@CMainFrame@@QAEHVCString@@@Z 004a53f0 f   MainFrm.obj
 0001:000a4be0       ?DownloadThreadProc@@YAIPAX@Z 004a5be0 f   MainFrm.obj
 0001:000a4e90       ?_GetCacheFilePath@@YA?AVCString@@V1@@Z 004a5e90 f   MainFrm.obj
 0001:000a4fa0       ?SetAllTabFavIcon@CMainFrame@@QAEXVCString@@H@Z 004a5fa0 f   MainFrm.obj
 0001:000a5100       ?FindCacheFavIcon@CMainFrame@@QAEHVCString@@@Z 004a6100 f   MainFrm.obj
 0001:000a5240       ?GetFavIcon@CMainFrame@@QAEHVCString@@@Z 004a6240 f   MainFrm.obj
 0001:000a54d0       ?UpDateHistoryBar@CMainFrame@@QAEXXZ 004a64d0 f   MainFrm.obj
 0001:000a56b0       ?SetColumn@CListCtrl@@QAEHHPBUtagLVCOLUMNA@@@Z 004a66b0 f i MainFrm.obj
 0001:000a56e0       ?getHistory@CWebMindView@@QAEPAVList@@XZ 004a66e0 f i MainFrm.obj
 0001:000a5700       ?NavigateToUrl@CMainFrame@@QAEPAVCWebMindView@@VCString@@HHH@Z 004a6700 f   MainFrm.obj
 0001:000a5870       ?NewHtmlView@CMainFrame@@QAEPAVCView@@HH@Z 004a6870 f   MainFrm.obj
 0001:000a5ab0       ?genID@CMainFrame@@QAEJXZ  004a6ab0 f   MainFrm.obj
 0001:000a5b00       ?exportXML@CMainFrame@@QAEXPAVCMarkup@@@Z 004a6b00 f   MainFrm.obj
 0001:000a5be0       ?addPageSequence@CMainFrame@@QAEXPAVList@@@Z 004a6be0 f   MainFrm.obj
 0001:000a5c30       ?addPageSequence@CMainFrame@@QAEXPAVList@@PAVCMarkup@@AAH@Z 004a6c30 f   MainFrm.obj
 0001:000a5dc0       ?AddChildElem@CMarkup@@QAE_NUMCD_CSTR@@0H@Z 004a6dc0 f i MainFrm.obj
 0001:000a5e00       ?convertOnLine@CMainFrame@@QAEXPAVCViewOnLine@@PAVCPageView@@@Z 004a6e00 f   MainFrm.obj
 0001:000a5fe0       ?getURL@CPageCache@@QAEAAVCString@@XZ 004a6fe0 f i MainFrm.obj
 0001:000a6000       ?getBaseURL@CPageCache@@QAEAAVCString@@XZ 004a7000 f i MainFrm.obj
 0001:000a6020       ?getBaseTarget@CPageCache@@QAEAAVCString@@XZ 004a7020 f i MainFrm.obj
 0001:000a6040       ?isSearchQuery@CPageCache@@QAE_NXZ 004a7040 f i MainFrm.obj
 0001:000a6060       ?RandModel@CMainFrame@@QAEHXZ 004a7060 f   MainFrm.obj
 0001:000a6160       ?LoadModelPara@CMainFrame@@QAEXXZ 004a7160 f   MainFrm.obj
 0001:000a62b0       ?LoadICWordModel@CMainFrame@@QAEXXZ 004a72b0 f   MainFrm.obj
 0001:000a63d0       ?LoadICRelevantModel@CMainFrame@@QAEXXZ 004a73d0 f   MainFrm.obj
 0001:000a64f0       ?LoadICQueryModel@CMainFrame@@QAEXXZ 004a74f0 f   MainFrm.obj
 0001:000a6610       ?GenerationScheduleSingle@CMainFrame@@QAEXPAVCWebMindView@@HPAVList@@AAVCStringArray@@222AAHAAVCString@@4@Z 004a7610 f   MainFrm.obj
 0001:000a6a40       ?getVersion@C45Learner@@QAEAAVCString@@XZ 004a7a40 f i MainFrm.obj
 0001:000a6a60       ?evalRecommendation@CMainFrame@@QAEHPAVCWebMindView@@H@Z 004a7a60 f   MainFrm.obj
 0001:000a7be0       ??0CPageEvaluation@@QAE@XZ 004a8be0 f i MainFrm.obj
 0001:000a7d80       ?isValid@CViewOnLine@@QAE_NXZ 004a8d80 f i MainFrm.obj
 0001:000a7da0       ?ClearWordVector@CICSession@@QAEXXZ 004a8da0 f i MainFrm.obj
 0001:000a7dd0       ?setSession@Extractor@@QAEXPAVList@@@Z 004a8dd0 f i MainFrm.obj
 0001:000a7df0       ?setType@Extractor@@QAEXH@Z 004a8df0 f i MainFrm.obj
 0001:000a7e20       ??_GCPageEvaluation@@QAEPAXI@Z 004a8e20 f i MainFrm.obj
 0001:000a7e60       ??1CPageEvaluation@@QAE@XZ 004a8e60 f i MainFrm.obj
 0001:000a7f70       ?modelMFW@CMainFrame@@QAEXPAVList@@AAVCStringArray@@111@Z 004a8f70 f   MainFrm.obj
 0001:000a8080       ?modelICWordC45@CMainFrame@@QAEXPAVList@@AAVCStringArray@@111@Z 004a9080 f   MainFrm.obj
 0001:000a8110       ?modelICRelevant@CMainFrame@@QAEXPAVList@@AAVCStringArray@@111@Z 004a9110 f   MainFrm.obj
 0001:000a81a0       ?modelICQuery@CMainFrame@@QAEXPAVList@@AAVCStringArray@@111@Z 004a91a0 f   MainFrm.obj
 0001:000a8230       ?modelBase@CMainFrame@@QAEXHPAVList@@AAVCStringArray@@111PAVC45Learner@@N@Z 004a9230 f   MainFrm.obj
 0001:000a8660       ?setAttSize@CDataSet@@QAEXH@Z 004a9660 f i MainFrm.obj
 0001:000a8690       ?queryingSearchEngine@CMainFrame@@QAEXAAVCStringArray@@AAV?$CArray@NAAN@@0000@Z 004a9690 f   MainFrm.obj
 0001:000a8a00       ?getTextProcessor@CPageRepository@@QAEPAVCTextProcessor@@XZ 004a9a00 f i MainFrm.obj
 0001:000a8a20       ?queryingGoogle@CMainFrame@@QAEXAAVCString@@AAVCStringArray@@1@Z 004a9a20 f   MainFrm.obj
 0001:000a8db0       ?getTitle@CQueryResult@@QAEAAVCString@@XZ 004a9db0 f i MainFrm.obj
 0001:000a8dd0       ?getRelevantWords@CMainFrame@@QAEXPAVList@@AAVCStringArray@@@Z 004a9dd0 f   MainFrm.obj
 0001:000a8f70       ?excludeExaminedURL@CMainFrame@@QAEXPAVCWebMindView@@AAVCStringArray@@1@Z 004a9f70 f   MainFrm.obj
 0001:000a9070       ?IsSameURL@CMainFrame@@QAE_NABVCString@@0@Z 004aa070 f   MainFrm.obj
 0001:000a92d0       ?NewMenu@CMainFrame@@QAEPAUHMENU__@@XZ 004aa2d0 f   MainFrm.obj
 0001:000a93c0       ?dumpAllStuff@CMainFrame@@QAEXXZ 004aa3c0 f   MainFrm.obj
 0001:000a95e0       ?SetViewNames@CMainFrame@@QAEXVCString@@PAVCView@@@Z 004aa5e0 f   MainFrm.obj
 0001:000a9650       ?ClearHideHistory@CMainFrame@@QAEXXZ 004aa650 f   MainFrm.obj
 0001:000a9680       ?GetBrowserViewNum@CMainFrame@@QAEHXZ 004aa680 f   MainFrm.obj
 0001:000a96b0       ?GetChildWindowNum@CMainFrame@@QAEHXZ 004aa6b0 f   MainFrm.obj
 0001:000a96e0       ?PagesInMemory@CMainFrame@@QAEXAAV?$CArray@JAAJ@@@Z 004aa6e0 f   MainFrm.obj
 0001:000a9840       ?GetSize@?$CArray@JAAJ@@QBEHXZ 004aa840 f i MainFrm.obj
 0001:000a9860       ?RemoveAll@?$CArray@JAAJ@@QAEXXZ 004aa860 f i MainFrm.obj
 0001:000a9880       ?Add@?$CArray@JAAJ@@QAEHAAJ@Z 004aa880 f i MainFrm.obj
 0001:000a98c0       ??A?$CArray@JAAJ@@QAEAAJH@Z 004aa8c0 f i MainFrm.obj
 0001:000a98f0       ?GetUpperBound@?$CArray@PAVCProxyItem@@PAV1@@@QBEHXZ 004aa8f0 f i MainFrm.obj
 0001:000a9910       ?RemoveAll@?$CArray@PAVCProxyItem@@PAV1@@@QAEXXZ 004aa910 f i MainFrm.obj
 0001:000a9930       ?GetAt@?$CArray@PAVCProxyItem@@PAV1@@@QBEPAVCProxyItem@@H@Z 004aa930 f i MainFrm.obj
 0001:000a9960       ?ElementAt@?$CArray@PAVCProxyItem@@PAV1@@@QAEAAPAVCProxyItem@@H@Z 004aa960 f i MainFrm.obj
 0001:000a9990       ?Add@?$CArray@PAVCProxyItem@@PAV1@@@QAEHPAVCProxyItem@@@Z 004aa990 f i MainFrm.obj
 0001:000a99d0       ?GetUpperBound@?$CArray@PAVCProxyList@@PAV1@@@QBEHXZ 004aa9d0 f i MainFrm.obj
 0001:000a99f0       ?GetAt@?$CArray@PAVCProxyList@@PAV1@@@QBEPAVCProxyList@@H@Z 004aa9f0 f i MainFrm.obj
 0001:000a9a20       ?Add@?$CArray@PAVCProxyList@@PAV1@@@QAEHPAVCProxyList@@@Z 004aaa20 f i MainFrm.obj
 0001:000a9a60       ??0?$CArray@PAVCSearch@@PAV1@@@QAE@XZ 004aaa60 f i MainFrm.obj
 0001:000a9ab0       ?GetSize@?$CArray@PAVCSearch@@PAV1@@@QBEHXZ 004aaab0 f i MainFrm.obj
 0001:000a9ad0       ?Serialize@?$CArray@PAVCSearch@@PAV1@@@UAEXAAVCArchive@@@Z 004aaad0 f i MainFrm.obj
 0001:000a9b40       ??0?$CArray@PAVCLink@@PAV1@@@QAE@XZ 004aab40 f i MainFrm.obj
 0001:000a9b90       ?Add@?$CArray@PAVCLink@@PAV1@@@QAEHPAVCLink@@@Z 004aab90 f i MainFrm.obj
 0001:000a9bd0       ?Serialize@?$CArray@PAVCLink@@PAV1@@@UAEXAAVCArchive@@@Z 004aabd0 f i MainFrm.obj
 0001:000a9c40       ??0?$CArray@PAVCGesture@@PAV1@@@QAE@XZ 004aac40 f i MainFrm.obj
 0001:000a9c90       ?Serialize@?$CArray@PAVCGesture@@PAV1@@@UAEXAAVCArchive@@@Z 004aac90 f i MainFrm.obj
 0001:000a9d00       ??0?$CArray@PAVCFavIcon@@PAV1@@@QAE@XZ 004aad00 f i MainFrm.obj
 0001:000a9d50       ?Serialize@?$CArray@PAVCFavIcon@@PAV1@@@UAEXAAVCArchive@@@Z 004aad50 f i MainFrm.obj
 0001:000a9dc0       ?GetSize@?$CArray@PAVCExternalUtilItem@@PAV1@@@QBEHXZ 004aadc0 f i MainFrm.obj
 0001:000a9de0       ?RemoveAll@?$CArray@VCAttribute@@AAV1@@@QAEXXZ 004aade0 f i MainFrm.obj
 0001:000a9e00       ??0?$CArray@HH@@QAE@XZ     004aae00 f i MainFrm.obj
 0001:000a9e50       ?Add@?$CArray@HH@@QAEHH@Z  004aae50 f i MainFrm.obj
 0001:000a9e90       ??A?$CArray@HH@@QAEAAHH@Z  004aae90 f i MainFrm.obj
 0001:000a9ec0       ??1?$CArray@HH@@UAE@XZ     004aaec0 f i MainFrm.obj
 0001:000a9f50       ?Serialize@?$CArray@HH@@UAEXAAVCArchive@@@Z 004aaf50 f i MainFrm.obj
 0001:000a9fc0       ?QueryInterface@IUnknown@@QAGJPAPAUIHTMLAnchorElement@@@Z 004aafc0 f i MainFrm.obj
 0001:000a9ff0       ?QueryInterface@IUnknown@@QAGJPAPAUIHTMLElement@@@Z 004aaff0 f i MainFrm.obj
 0001:000aa020       ?QueryInterface@IUnknown@@QAGJPAPAUIHTMLImgElement@@@Z 004ab020 f i MainFrm.obj
 0001:000aa050       ?QueryInterface@IUnknown@@QAGJPAPAUIHTMLBodyElement@@@Z 004ab050 f i MainFrm.obj
 0001:000aa080       ?QueryInterface@IUnknown@@QAGJPAPAUIHTMLInputTextElement@@@Z 004ab080 f i MainFrm.obj
 0001:000aa0b0       ?QueryInterface@IUnknown@@QAGJPAPAUIHTMLTextAreaElement@@@Z 004ab0b0 f i MainFrm.obj
 0001:000aa0e0       ?QueryInterface@IUnknown@@QAGJPAPAUIHTMLOptionButtonElement@@@Z 004ab0e0 f i MainFrm.obj
 0001:000aa110       ?QueryInterface@IUnknown@@QAGJPAPAUIHTMLSelectElement@@@Z 004ab110 f i MainFrm.obj
 0001:000aa140       ?QueryInterface@IUnknown@@QAGJPAPAUIHTMLTxtRange@@@Z 004ab140 f i MainFrm.obj
 0001:000aa170       ??_E?$CArray@PAVCSearch@@PAV1@@@UAEPAXI@Z 004ab170 f i MainFrm.obj
 0001:000aa170       ??_G?$CArray@PAVCSearch@@PAV1@@@UAEPAXI@Z 004ab170 f i MainFrm.obj
 0001:000aa1b0       ??1?$CArray@PAVCSearch@@PAV1@@@UAE@XZ 004ab1b0 f i MainFrm.obj
 0001:000aa240       ??_G?$CArray@PAVCLink@@PAV1@@@UAEPAXI@Z 004ab240 f i MainFrm.obj
 0001:000aa240       ??_E?$CArray@PAVCLink@@PAV1@@@UAEPAXI@Z 004ab240 f i MainFrm.obj
 0001:000aa280       ??1?$CArray@PAVCLink@@PAV1@@@UAE@XZ 004ab280 f i MainFrm.obj
 0001:000aa310       ??_E?$CArray@PAVCGesture@@PAV1@@@UAEPAXI@Z 004ab310 f i MainFrm.obj
 0001:000aa310       ??_G?$CArray@PAVCGesture@@PAV1@@@UAEPAXI@Z 004ab310 f i MainFrm.obj
 0001:000aa350       ??1?$CArray@PAVCGesture@@PAV1@@@UAE@XZ 004ab350 f i MainFrm.obj
 0001:000aa3e0       ??_G?$CArray@PAVCFavIcon@@PAV1@@@UAEPAXI@Z 004ab3e0 f i MainFrm.obj
 0001:000aa3e0       ??_E?$CArray@PAVCFavIcon@@PAV1@@@UAEPAXI@Z 004ab3e0 f i MainFrm.obj
 0001:000aa420       ??1?$CArray@PAVCFavIcon@@PAV1@@@UAE@XZ 004ab420 f i MainFrm.obj
 0001:000aa4b0       ??_E?$CArray@HH@@UAEPAXI@Z 004ab4b0 f i MainFrm.obj
 0001:000aa4b0       ??_G?$CArray@HH@@UAEPAXI@Z 004ab4b0 f i MainFrm.obj
 0001:000aa4f0       ?SetSize@?$CArray@JAAJ@@QAEXHH@Z 004ab4f0 f i MainFrm.obj
 0001:000aa720       ?ElementAt@?$CArray@JAAJ@@QAEAAJH@Z 004ab720 f i MainFrm.obj
 0001:000aa750       ?SetAtGrow@?$CArray@JAAJ@@QAEXHAAJ@Z 004ab750 f i MainFrm.obj
 0001:000aa7a0       ?DestructElements@@YGXPAJH@Z 004ab7a0 f i MainFrm.obj
 0001:000aa7d0       ?SetSize@?$CArray@PAVCProxyItem@@PAV1@@@QAEXHH@Z 004ab7d0 f i MainFrm.obj
 0001:000aaa00       ?SetAtGrow@?$CArray@PAVCProxyItem@@PAV1@@@QAEXHPAVCProxyItem@@@Z 004aba00 f i MainFrm.obj
 0001:000aaa40       ?DestructElements@@YGXPAPAVCProxyItem@@H@Z 004aba40 f i MainFrm.obj
 0001:000aaa70       ?SetAtGrow@?$CArray@PAVCProxyList@@PAV1@@@QAEXHPAVCProxyList@@@Z 004aba70 f i MainFrm.obj
 0001:000aaab0       ?SetSize@?$CArray@PAVCProxyList@@PAV1@@@QAEXHH@Z 004abab0 f i MainFrm.obj
 0001:000aace0       ?DestructElements@@YGXPAPAVCProxyList@@H@Z 004abce0 f i MainFrm.obj
 0001:000aad10       ?SetSize@?$CArray@PAVCSearch@@PAV1@@@QAEXHH@Z 004abd10 f i MainFrm.obj
 0001:000aaf40       ?DestructElements@@YGXPAPAVCSearch@@H@Z 004abf40 f i MainFrm.obj
 0001:000aaf70       ?SerializeElements@@YGXAAVCArchive@@PAPAVCSearch@@H@Z 004abf70 f i MainFrm.obj
 0001:000aafc0       ?SetSize@?$CArray@PAVCLink@@PAV1@@@QAEXHH@Z 004abfc0 f i MainFrm.obj
 0001:000ab1f0       ?SetAtGrow@?$CArray@PAVCLink@@PAV1@@@QAEXHPAVCLink@@@Z 004ac1f0 f i MainFrm.obj
 0001:000ab230       ?DestructElements@@YGXPAPAVCLink@@H@Z 004ac230 f i MainFrm.obj
 0001:000ab260       ?SerializeElements@@YGXAAVCArchive@@PAPAVCLink@@H@Z 004ac260 f i MainFrm.obj
 0001:000ab2b0       ?SetSize@?$CArray@PAVCGesture@@PAV1@@@QAEXHH@Z 004ac2b0 f i MainFrm.obj
 0001:000ab4e0       ?DestructElements@@YGXPAPAVCGesture@@H@Z 004ac4e0 f i MainFrm.obj
 0001:000ab510       ?SerializeElements@@YGXAAVCArchive@@PAPAVCGesture@@H@Z 004ac510 f i MainFrm.obj
 0001:000ab560       ?SetSize@?$CArray@PAVCFavIcon@@PAV1@@@QAEXHH@Z 004ac560 f i MainFrm.obj
 0001:000ab790       ?DestructElements@@YGXPAPAVCFavIcon@@H@Z 004ac790 f i MainFrm.obj
 0001:000ab7c0       ?SerializeElements@@YGXAAVCArchive@@PAPAVCFavIcon@@H@Z 004ac7c0 f i MainFrm.obj
 0001:000ab810       ?DestructElements@@YGXPAHH@Z 004ac810 f i MainFrm.obj
 0001:000ab840       ?SerializeElements@@YGXAAVCArchive@@PAHH@Z 004ac840 f i MainFrm.obj
 0001:000ab890       ?SetSize@?$CArray@HH@@QAEXHH@Z 004ac890 f i MainFrm.obj
 0001:000abac0       ?ElementAt@?$CArray@HH@@QAEAAHH@Z 004acac0 f i MainFrm.obj
 0001:000abaf0       ?SetAtGrow@?$CArray@HH@@QAEXHH@Z 004acaf0 f i MainFrm.obj
 0001:000abba0       ?ConstructElements@@YGXPAJH@Z 004acba0 f i MainFrm.obj
 0001:000abc00       ?ConstructElements@@YGXPAPAVCProxyItem@@H@Z 004acc00 f i MainFrm.obj
 0001:000abc60       ?ConstructElements@@YGXPAPAVCProxyList@@H@Z 004acc60 f i MainFrm.obj
 0001:000abcc0       ?ConstructElements@@YGXPAPAVCSearch@@H@Z 004accc0 f i MainFrm.obj
 0001:000abd20       ?ConstructElements@@YGXPAPAVCLink@@H@Z 004acd20 f i MainFrm.obj
 0001:000abd80       ?ConstructElements@@YGXPAPAVCGesture@@H@Z 004acd80 f i MainFrm.obj
 0001:000abde0       ?ConstructElements@@YGXPAPAVCFavIcon@@H@Z 004acde0 f i MainFrm.obj
 0001:000abe40       ?ConstructElements@@YGXPAHH@Z 004ace40 f i MainFrm.obj
 0001:000abea0       ?x_StrInsertReplace@@YAXAAVCString@@HHABV1@@Z 004acea0 f   Markup.obj
 0001:000abf80       ?x_Hash@@YAHPBDH@Z         004acf80 f   Markup.obj
 0001:000abfd0       ?x_IntToStr@@YA?AVCString@@H@Z 004acfd0 f   Markup.obj
 0001:000ac060       ?x_StrNCmp@@YAHPBD0HH@Z    004ad060 f   Markup.obj
 0001:000ac190       ?x_AddResult@@YAXAAVCString@@UMCD_CSTR@@1HHH@Z 004ad190 f   Markup.obj
 0001:000ac3c0       ??0CMarkup@@QAE@UMCD_CSTR@@@Z 004ad3c0 f i Markup.obj
 0001:000ac440       ?SetAttrib@CMarkup@@QAE_NUMCD_CSTR@@HH@Z 004ad440 f i Markup.obj
 0001:000ac480       ?x_GetEncodingCodePage@@YAHUMCD_CSTR@@@Z 004ad480 f   Markup.obj
 0001:000ac620       ?CanConvert@TextEncoding@@SA_NUMCD_CSTR@@0@Z 004ad620 f   Markup.obj
 0001:000ac6a0       ?x_NoDefaultChar@@YA_NH@Z  004ad6a0 f   Markup.obj
 0001:000ac730       ?PerformConversion@TextEncoding@@QAEHPAXUMCD_CSTR@@@Z 004ad730 f   Markup.obj
 0001:000acac0       ?FindRaggedEnd@TextEncoding@@QAE_NAAH@Z 004adac0 f   Markup.obj
 0001:000ad100       ?x_EndianSwapRequired@@YA_NH@Z 004ae100 f   Markup.obj
 0001:000ad150       ?x_EndianSwapUTF16@@YAXPAGH@Z 004ae150 f   Markup.obj
 0001:000ad1b0       ?CopyElemPosTree@ElemPosTree@@QAEXPAU1@H@Z 004ae1b0 f   Markup.obj
 0001:000ad2b0       ?ReleaseElemPosTree@ElemPosTree@@QAEXXZ 004ae2b0 f i Markup.obj
 0001:000ad2e0       ?Release@ElemPosTree@@QAEXXZ 004ae2e0 f i Markup.obj
 0001:000ad350       ?Clear@ElemPosTree@@QAEXXZ 004ae350 f i Markup.obj
 0001:000ad380       ?SegsUsed@ElemPosTree@@QBEHXZ 004ae380 f i Markup.obj
 0001:000ad3b0       ?GrowElemPosTree@ElemPosTree@@QAEXH@Z 004ae3b0 f   Markup.obj
 0001:000ad5b0       ?FindAttrib@TokenPos@@QAE_NPBDHPAVCString@@@Z 004ae5b0 f   Markup.obj
 0001:000ad950       ?GetTokenText@TokenPos@@QBE?AVCString@@XZ 004ae950 f i Markup.obj
 0001:000ad9a0       ?Length@TokenPos@@QBEHXZ   004ae9a0 f i Markup.obj
 0001:000ad9d0       ?GetTokenPtr@TokenPos@@QBEPBDXZ 004ae9d0 f i Markup.obj
 0001:000ad9f0       ?NextChar@TokenPos@@QAEDXZ 004ae9f0 f i Markup.obj
 0001:000ada30       ?FindAny@TokenPos@@QAE_NXZ 004aea30 f i Markup.obj
 0001:000adae0       ?Match@TokenPos@@QAE_NUMCD_CSTR@@@Z 004aeae0 f i Markup.obj
 0001:000adbb0       ??_ETagPos@@QAEPAXI@Z      004aebb0 f i Markup.obj
 0001:000adc30       ??1TagPos@@QAE@XZ          004aec30 f i Markup.obj
 0001:000adc50       ?CalcSlot@ElemStack@@SAHPBDH_N@Z 004aec50 f   Markup.obj
 0001:000adcd0       ?PushTagAndCount@ElemStack@@QAEXAAUTokenPos@@@Z 004aecd0 f   Markup.obj
 0001:000adf50       ?Init@TagPos@@QAEXHH@Z     004aef50 f i Markup.obj
 0001:000adfb0       ?IncCount@TagPos@@QAEXXZ   004aefb0 f i Markup.obj
 0001:000adfe0       ?Current@ElemStack@@QAEAAUTagPos@@XZ 004aefe0 f i Markup.obj
 0001:000ae010       ?Push@ElemStack@@QAEXPBDH@Z 004af010 f i Markup.obj
 0001:000ae0a0       ?SetTagName@TagPos@@QAEXPBDH@Z 004af0a0 f i Markup.obj
 0001:000ae0e0       ?Slot@ElemStack@@QAEXH@Z   004af0e0 f i Markup.obj
 0001:000ae160       ?Unslot@ElemStack@@QAEXAAUTagPos@@@Z 004af160 f i Markup.obj
 0001:000ae1d0       ?Alloc@ElemStack@@IAEXH@Z  004af1d0 f i Markup.obj
 0001:000ae290       ??0TagPos@@QAE@XZ          004af290 f i Markup.obj
 0001:000ae2f0       ?Copy@ElemStack@@IAEXPAUTagPos@@@Z 004af2f0 f i Markup.obj
 0001:000ae380       ??4TagPos@@QAEAAU0@ABU0@@Z 004af380 f i Markup.obj
 0001:000ae410       ?FileErrorAddResult@FilePos@@QAE_NXZ 004af410 f   Markup.obj
 0001:000ae5d0       ?FileSpecifyEncoding@FilePos@@QAEXPAVCString@@@Z 004af5d0 f   Markup.obj
 0001:000ae650       ?FileAtTop@FilePos@@QAE_NXZ 004af650 f   Markup.obj
 0001:000ae6a0       ?FileOpen@FilePos@@QAE_NUMCD_CSTR@@@Z 004af6a0 f   Markup.obj
 0001:000aeb60       ?FileRead@FilePos@@QAE_NPAX@Z 004afb60 f   Markup.obj
 0001:000aedc0       ?FileCheckRaggedEnd@FilePos@@QAE_NPAX@Z 004afdc0 f   Markup.obj
 0001:000aef60       ??0TextEncoding@@QAE@UMCD_CSTR@@PBXH@Z 004aff60 f i Markup.obj
 0001:000af000       ??1TextEncoding@@QAE@XZ    004b0000 f i Markup.obj
 0001:000af060       ?FileReadText@FilePos@@QAE_NAAVCString@@@Z 004b0060 f   Markup.obj
 0001:000af870       ?FileWrite@FilePos@@QAE_NPAXPBX@Z 004b0870 f   Markup.obj
 0001:000af9f0       ?FileWriteText@FilePos@@QAE_NABVCString@@H@Z 004b09f0 f   Markup.obj
 0001:000afd30       ?FileClose@FilePos@@QAE_NXZ 004b0d30 f   Markup.obj
 0001:000afd90       ?FileReadNextBuffer@FilePos@@QAE_NXZ 004b0d90 f   Markup.obj
 0001:000aff90       ?FileGatherStart@FilePos@@QAEXH@Z 004b0f90 f   Markup.obj
 0001:000affc0       ?FileGatherEnd@FilePos@@QAEHAAVCString@@@Z 004b0fc0 f   Markup.obj
 0001:000b0010       ?FileFlush@FilePos@@QAE_NAAVCString@@H_N@Z 004b1010 f   Markup.obj
 0001:000b01a0       ?ParsePath@PathPos@@AAE_NXZ 004b11a0 f   Markup.obj
 0001:000b0350       ?GetTypeAndInc@PathPos@@QAEHXZ 004b1350 f i Markup.obj
 0001:000b03e0       ?GetNumAndInc@PathPos@@QAEHXZ 004b13e0 f i Markup.obj
 0001:000b0460       ?GetValAndInc@PathPos@@QAEPBDXZ 004b1460 f i Markup.obj
 0001:000b0520       ?GetChar@PathPos@@QAEDXZ   004b1520 f i Markup.obj
 0001:000b0550       ?SaveOffset@PathPos@@QAEXXZ 004b1550 f i Markup.obj
 0001:000b0570       ?RevertOffset@PathPos@@QAEXXZ 004b1570 f i Markup.obj
 0001:000b0590       ?IncWord@PathPos@@QAEXXZ   004b1590 f i Markup.obj
 0001:000b0620       ?IncWord@PathPos@@QAEXD@Z  004b1620 f i Markup.obj
 0001:000b0680       ?IncChar@PathPos@@QAEXXZ   004b1680 f i Markup.obj
 0001:000b06b0       ?IsAnywherePath@PathPos@@QAE_NXZ 004b16b0 f i Markup.obj
 0001:000b06d0       ?AttribPredicateMatch@PathPos@@QAE_NAAUTokenPos@@@Z 004b16d0 f   Markup.obj
 0001:000b0820       ?GetValOrWordLen@PathPos@@QAEHXZ 004b1820 f i Markup.obj
 0001:000b0840       ?GetPtr@PathPos@@QAEPBDXZ  004b1840 f i Markup.obj
 0001:000b0860       ??_ESavedPos@@QAEPAXI@Z    004b1860 f i Markup.obj
 0001:000b08e0       ??1SavedPos@@QAE@XZ        004b18e0 f i Markup.obj
 0001:000b0900       ?GetMap@SavedPosMapArray@@QAE_NAAPAUSavedPosMap@@HH@Z 004b1900 f   Markup.obj
 0001:000b0a70       ??0SavedPosMap@@QAE@H@Z    004b1a70 f i Markup.obj
 0001:000b0ad0       ?CopySavedPosMaps@SavedPosMapArray@@QAEXPAU1@@Z 004b1ad0 f   Markup.obj
 0001:000b0cd0       ??0SavedPos@@QAE@XZ        004b1cd0 f i Markup.obj
 0001:000b0d10       ?ReleaseMaps@SavedPosMapArray@@QAEXXZ 004b1d10 f i Markup.obj
 0001:000b0d90       ??_GSavedPosMap@@QAEPAXI@Z 004b1d90 f i Markup.obj
 0001:000b0dd0       ??1SavedPosMap@@QAE@XZ     004b1dd0 f i Markup.obj
 0001:000b0e60       ??4SavedPos@@QAEAAU0@ABU0@@Z 004b1e60 f i Markup.obj
 0001:000b0ea0       ?ParseNode@TokenPos@@QAEHAAUNodePos@@@Z 004b1ea0 f   Markup.obj
 0001:000b1950       ??1CMarkup@@QAE@XZ         004b2950 f   Markup.obj
 0001:000b1a00       ??_GSavedPosMapArray@@QAEPAXI@Z 004b2a00 f i Markup.obj
 0001:000b1a40       ??1SavedPosMapArray@@QAE@XZ 004b2a40 f i Markup.obj
 0001:000b1a60       ??_GElemPosTree@@QAEPAXI@Z 004b2a60 f i Markup.obj
 0001:000b1aa0       ??1ElemPosTree@@QAE@XZ     004b2aa0 f i Markup.obj
 0001:000b1ac0       ??4CMarkup@@QAEXABV0@@Z    004b2ac0 f   Markup.obj
 0001:000b1bb0       ?SetDoc@CMarkup@@QAE_NPBD@Z 004b2bb0 f   Markup.obj
 0001:000b1c60       ?SetDoc@CMarkup@@QAE_NABVCString@@@Z 004b2c60 f   Markup.obj
 0001:000b1cb0       ?IsWellFormed@CMarkup@@QAE_NXZ 004b2cb0 f   Markup.obj
 0001:000b1d70       ?GetSize@ElemPosTree@@QBEHXZ 004b2d70 f i Markup.obj
 0001:000b1d90       ?GetRefElemPosAt@ElemPosTree@@QBEAAUElemPos@@H@Z 004b2d90 f i Markup.obj
 0001:000b1dd0       ?GetError@CMarkup@@QBE?AVCString@@XZ 004b2dd0 f   Markup.obj
 0001:000b2d30       ?Load@CMarkup@@QAE_NUMCD_CSTR@@@Z 004b3d30 f   Markup.obj
 0001:000b2d90       ?ReadTextFile@CMarkup@@SA_NUMCD_CSTR@@AAVCString@@PAV3@PAH2@Z 004b3d90 f   Markup.obj
 0001:000b2ed0       ??0FilePos@@QAE@XZ         004b3ed0 f i Markup.obj
 0001:000b2fd0       ??0ElemStack@@QAE@XZ       004b3fd0 f i Markup.obj
 0001:000b3050       ??1ElemStack@@QAE@XZ       004b4050 f i Markup.obj
 0001:000b30a0       ?InitTable@ElemStack@@QAEXXZ 004b40a0 f i Markup.obj
 0001:000b30d0       ??1FilePos@@QAE@XZ         004b40d0 f i Markup.obj
 0001:000b3150       ?Save@CMarkup@@QAE_NUMCD_CSTR@@@Z 004b4150 f   Markup.obj
 0001:000b31a0       ?WriteTextFile@CMarkup@@SA_NUMCD_CSTR@@ABVCString@@PAV3@PAH2@Z 004b41a0 f   Markup.obj
 0001:000b3360       ?FindElem@CMarkup@@QAE_NUMCD_CSTR@@@Z 004b4360 f   Markup.obj
 0001:000b3400       ??0PathPos@@QAE@PBD_N@Z    004b4400 f i Markup.obj
 0001:000b3470       ?FindChildElem@CMarkup@@QAE_NUMCD_CSTR@@@Z 004b4470 f   Markup.obj
 0001:000b3530       ?EscapeText@CMarkup@@SA?AVCString@@UMCD_CSTR@@H@Z 004b4530 f   Markup.obj
 0001:000b3850       ?UnescapeText@CMarkup@@SA?AVCString@@UMCD_CSTR@@HH@Z 004b4850 f   Markup.obj
 0001:000b3c70       ?DetectUTF8@CMarkup@@SA_NPBDHPAHPA_N@Z 004b4c70 f   Markup.obj
 0001:000b3d20       ?DecodeCharUTF8@CMarkup@@SAHAAPBDPBD@Z 004b4d20 f   Markup.obj
 0001:000b3e20       ?EncodeCharUTF16@CMarkup@@SAXHPAGAAH@Z 004b4e20 f   Markup.obj
 0001:000b3ee0       ?DecodeCharUTF16@CMarkup@@SAHAAPBGPBG@Z 004b4ee0 f   Markup.obj
 0001:000b3f70       ?EncodeCharUTF8@CMarkup@@SAXHPADAAH@Z 004b4f70 f   Markup.obj
 0001:000b4180       ?UTF16To8@CMarkup@@SAHPADPBGH@Z 004b5180 f   Markup.obj
 0001:000b4230       ?UTF8To16@CMarkup@@SAHPAGPBDH@Z 004b5230 f   Markup.obj
 0001:000b42d0       ?UTF8ToA@CMarkup@@SA?AVCString@@UMCD_CSTR@@PAH@Z 004b52d0 f   Markup.obj
 0001:000b43f0       ?AToUTF8@CMarkup@@SA?AVCString@@UMCD_CSTR@@@Z 004b53f0 f   Markup.obj
 0001:000b44f0       ?GetDeclaredEncoding@CMarkup@@SA?AVCString@@UMCD_CSTR@@@Z 004b54f0 f   Markup.obj
 0001:000b4880       ??0NodePos@@QAE@XZ         004b5880 f i Markup.obj
 0001:000b48b0       ??0TokenPos@@QAE@UMCD_CSTR@@HPAUFilePos@@@Z 004b58b0 f i Markup.obj
 0001:000b48f0       ?Clear@TokenPos@@QAEXXZ    004b58f0 f i Markup.obj
 0001:000b4920       ?FindName@TokenPos@@QAE_NXZ 004b5920 f i Markup.obj
 0001:000b49d0       ??1NodePos@@QAE@XZ         004b59d0 f i Markup.obj
 0001:000b49f0       ?GetEncodingCodePage@CMarkup@@SAHUMCD_CSTR@@@Z 004b59f0 f   Markup.obj
 0001:000b4a10       ?FindNode@CMarkup@@QAEHH@Z 004b5a10 f   Markup.obj
 0001:000b4d00       ?IsEmptyElement@ElemPos@@QAE_NXZ 004b5d00 f i Markup.obj
 0001:000b4d30       ?StartTagLen@ElemPos@@QBEHXZ 004b5d30 f i Markup.obj
 0001:000b4d50       ?StartContent@ElemPos@@QBEHXZ 004b5d50 f i Markup.obj
 0001:000b4d80       ?ContentLen@ElemPos@@QBEHXZ 004b5d80 f i Markup.obj
 0001:000b4db0       ?EndTagLen@ElemPos@@QBEHXZ 004b5db0 f i Markup.obj
 0001:000b4de0       ?StartAfter@ElemPos@@QBEHXZ 004b5de0 f i Markup.obj
 0001:000b4e00       ?RemoveNode@CMarkup@@QAE_NXZ 004b5e00 f   Markup.obj
 0001:000b4e80       ?GetTagName@CMarkup@@QBE?AVCString@@XZ 004b5e80 f   Markup.obj
 0001:000b5160       ?IntoElem@CMarkup@@QAE_NXZ 004b6160 f   Markup.obj
 0001:000b51b0       ?OutOfElem@CMarkup@@QAE_NXZ 004b61b0 f   Markup.obj
 0001:000b5200       ?GetNthAttrib@CMarkup@@QBE_NHAAVCString@@0@Z 004b6200 f   Markup.obj
 0001:000b5330       ?GetAttribName@CMarkup@@QBE?AVCString@@H@Z 004b6330 f   Markup.obj
 0001:000b5430       ?SavePos@CMarkup@@QAE_NUMCD_CSTR@@H@Z 004b6430 f   Markup.obj
 0001:000b57a0       ?RestorePos@CMarkup@@QAE_NUMCD_CSTR@@H@Z 004b67a0 f   Markup.obj
 0001:000b5940       ?SetMapSize@CMarkup@@QAE_NHH@Z 004b6940 f   Markup.obj
 0001:000b5980       ?RemoveElem@CMarkup@@QAE_NXZ 004b6980 f   Markup.obj
 0001:000b59f0       ?RemoveChildElem@CMarkup@@QAE_NXZ 004b69f0 f   Markup.obj
 0001:000b5a50       ?x_InitMarkup@CMarkup@@IAEXXZ 004b6a50 f   Markup.obj
 0001:000b5b20       ??0ElemPosTree@@QAE@XZ     004b6b20 f i Markup.obj
 0001:000b5b40       ??0SavedPosMapArray@@QAE@XZ 004b6b40 f i Markup.obj
 0001:000b5b60       ?x_GetParent@CMarkup@@IAEHH@Z 004b6b60 f   Markup.obj
 0001:000b5b90       ?x_SetPos@CMarkup@@IAEXHHH@Z 004b6b90 f   Markup.obj
 0001:000b5bf0       ?x_GetFreePos@CMarkup@@IAEHXZ 004b6bf0 f   Markup.obj
 0001:000b5c40       ?x_AllocElemPos@CMarkup@@IAE_NH@Z 004b6c40 f   Markup.obj
 0001:000b5c90       ?x_ParseDoc@CMarkup@@IAE_NXZ 004b6c90 f   Markup.obj
 0001:000b5df0       ?ResetPos@CMarkup@@QAEXXZ  004b6df0 f i Markup.obj
 0001:000b5e20       ?ClearVirtualParent@ElemPos@@QAEXXZ 004b6e20 f i Markup.obj
 0001:000b5e50       ?x_ParseElem@CMarkup@@IAEHHAAUTokenPos@@@Z 004b6e50 f   Markup.obj
 0001:000b64f0       ?SetStartTagLen@ElemPos@@QAEXH@Z 004b74f0 f i Markup.obj
 0001:000b6530       ?SetEndTagLen@ElemPos@@QAEXH@Z 004b7530 f i Markup.obj
 0001:000b6570       ?Level@ElemPos@@QBEHXZ     004b7570 f i Markup.obj
 0001:000b6590       ?SetLevel@ElemPos@@QAEXH@Z 004b7590 f i Markup.obj
 0001:000b65c0       ?GetRefTagPosAt@ElemStack@@QAEAAUTagPos@@H@Z 004b75c0 f i Markup.obj
 0001:000b65f0       ?PushIntoLevel@ElemStack@@QAEXPBDH@Z 004b75f0 f i Markup.obj
 0001:000b6650       ?PopOutOfLevel@ElemStack@@QAEXXZ 004b7650 f i Markup.obj
 0001:000b6670       ?x_FindElem@CMarkup@@IBEHHHAAUPathPos@@@Z 004b7670 f   Markup.obj
 0001:000b67a0       ?IsAbsolutePath@PathPos@@QAE_NXZ 004b77a0 f i Markup.obj
 0001:000b67c0       ?IsPath@PathPos@@QAE_NXZ   004b77c0 f i Markup.obj
 0001:000b67e0       ?ValidPath@PathPos@@QAE_NXZ 004b77e0 f i Markup.obj
 0001:000b6800       ?x_GetPath@CMarkup@@IBE?AVCString@@H@Z 004b7800 f   Markup.obj
 0001:000b6ad0       ?x_GetTagName@CMarkup@@IBE?AVCString@@H@Z 004b7ad0 f   Markup.obj
 0001:000b6b70       ?x_GetAttrib@CMarkup@@IBE?AVCString@@HPBD@Z 004b7b70 f   Markup.obj
 0001:000b6c90       ?x_SetAttrib@CMarkup@@IAE_NHPBDHH@Z 004b7c90 f   Markup.obj
 0001:000b6ce0       ?x_SetAttrib@CMarkup@@IAE_NHPBD0H@Z 004b7ce0 f   Markup.obj
 0001:000b7110       ?AdjustStartTagLen@ElemPos@@QAEXH@Z 004b8110 f i Markup.obj
 0001:000b7150       ?x_CreateNode@CMarkup@@KA_NAAVCString@@HPBD@Z 004b8150 f   Markup.obj
 0001:000b7390       ?x_EncodeCDATASection@CMarkup@@KA?AVCString@@PBD@Z 004b8390 f   Markup.obj
 0001:000b74a0       ?x_SetData@CMarkup@@IAE_NHH@Z 004b84a0 f   Markup.obj
 0001:000b74e0       ?x_SetData@CMarkup@@IAE_NHPBDH@Z 004b84e0 f   Markup.obj
 0001:000b77f0       ??0NodePos@@QAE@H@Z        004b87f0 f i Markup.obj
 0001:000b7840       ?x_GetData@CMarkup@@IAE?AVCString@@H@Z 004b8840 f   Markup.obj
 0001:000b7ea0       ?IsUnparsed@ElemPos@@QAE_NXZ 004b8ea0 f i Markup.obj
 0001:000b7ed0       ?OutOfLevel@ElemStack@@QAEXXZ 004b8ed0 f i Markup.obj
 0001:000b7f20       ?Pop@ElemStack@@QAEXXZ     004b8f20 f i Markup.obj
 0001:000b7fb0       ?x_GetElemContent@CMarkup@@IBE?AVCString@@H@Z 004b8fb0 f   Markup.obj
 0001:000b8050       ?x_SetElemContent@CMarkup@@IAE_NPBD@Z 004b9050 f   Markup.obj
 0001:000b8340       ?x_DocChange@CMarkup@@IAEXHHABVCString@@@Z 004b9340 f   Markup.obj
 0001:000b8370       ?x_Adjust@CMarkup@@IAEXHH_N@Z 004b9370 f   Markup.obj
 0001:000b8510       ?x_InsertNew@CMarkup@@IAEHHAAHAAUNodePos@@@Z 004b9510 f   Markup.obj
 0001:000b8bd0       ?WhitespaceToTag@TokenPos@@QAEHH@Z 004b9bd0 f i Markup.obj
 0001:000b8c30       ?x_AddElem@CMarkup@@IAE_NPBDHH@Z 004b9c30 f   Markup.obj
 0001:000b8c70       ?x_AddElem@CMarkup@@IAE_NPBD0H@Z 004b9c70 f   Markup.obj
 0001:000b91a0       ?x_GetSubDoc@CMarkup@@IAE?AVCString@@H@Z 004ba1a0 f   Markup.obj
 0001:000b9270       ?x_AddSubDoc@CMarkup@@IAE_NPBDH@Z 004ba270 f   Markup.obj
 0001:000b97e0       ?x_RemoveElem@CMarkup@@IAEHH@Z 004ba7e0 f   Markup.obj
 0001:000b98f0       ?x_LinkElem@CMarkup@@IAEXHHH@Z 004ba8f0 f   Markup.obj
 0001:000b9b30       ?x_UnlinkElem@CMarkup@@IAEHH@Z 004bab30 f   Markup.obj
 0001:000b9c70       ?x_UnlinkPrevElem@CMarkup@@IAEHHHH@Z 004bac70 f   Markup.obj
 0001:000b9d30       ?x_ReleasePos@CMarkup@@IAEHH@Z 004bad30 f   Markup.obj
 0001:000b9da0       ?x_ReleaseSubDoc@CMarkup@@IAEHH@Z 004bada0 f   Markup.obj
 0001:000b9e60       ?x_CheckSavedPos@CMarkup@@IAEXXZ 004bae60 f   Markup.obj
 0001:000ba000       ?x_AdjustForNode@CMarkup@@IAEXHHH@Z 004bb000 f   Markup.obj
 0001:000ba0a0       ?x_AddNode@CMarkup@@IAE_NHPBDH@Z 004bb0a0 f   Markup.obj
 0001:000ba300       ?x_RemoveNode@CMarkup@@IAEXHAAH000@Z 004bb300 f   Markup.obj
 0001:000ba5c0       ?GetRuntimeClass@CMenuBar@@UBEPAUCRuntimeClass@@XZ 004bb5c0 f   MenuBar.obj
 0001:000ba5e0       ?GetMessageMap@CMenuBar@@MBEPBUAFX_MSGMAP@@XZ 004bb5e0 f   MenuBar.obj
 0001:000ba600       ??0CMenuBar@@QAE@XZ        004bb600 f   MenuBar.obj
 0001:000ba720       ??_ECMenuBar@@UAEPAXI@Z    004bb720 f i MenuBar.obj
 0001:000ba720       ??_GCMenuBar@@UAEPAXI@Z    004bb720 f i MenuBar.obj
 0001:000ba760       ??1CMenuBar@@UAE@XZ        004bb760 f   MenuBar.obj
 0001:000ba820       ?OnCreate@CMenuBar@@IAEHPAUtagCREATESTRUCTA@@@Z 004bb820 f   MenuBar.obj
 0001:000ba860       ?LoadMenuA@CMenuBar@@QAEPAUHMENU__@@PAU2@@Z 004bb860 f   MenuBar.obj
 0001:000bab20       ?AutoSize@CToolBarCtrl@@QAEXXZ 004bbb20 f i MenuBar.obj
 0001:000bab50       ?LoadMenuA@CMenuBar@@QAEPAUHMENU__@@PBD@Z 004bbb50 f   MenuBar.obj
 0001:000bab80       ?UpdateFont@CMenuBar@@IAEXXZ 004bbb80 f   MenuBar.obj
 0001:000bac30       ??BCFont@@QBEPAUHFONT__@@XZ 004bbc30 f i MenuBar.obj
 0001:000bac80       ?OnUpdateMenuButton@CMenuBar@@IAEXPAVCCmdUI@@@Z 004bbc80 f   MenuBar.obj
 0001:000bacc0       ?IsValidButton@CMenuBar@@IBEHH@Z 004bbcc0 f i MenuBar.obj
 0001:000bad00       ?SetTrackingState@CMenuBar@@IAEXW4TRACKINGSTATE@1@H@Z 004bbd00 f   MenuBar.obj
 0001:000bad90       ?SetHotItem@CToolBarCtrl@@QAEHH@Z 004bbd90 f i MenuBar.obj
 0001:000badc0       ?ToggleTrackButtonMode@CMenuBar@@IAEXXZ 004bbdc0 f   MenuBar.obj
 0001:000bae10       ?GetNextOrPrevButton@CMenuBar@@IAEHHH@Z 004bbe10 f   MenuBar.obj
 0001:000bae70       ?HitTest@CMenuBar@@IBEHVCPoint@@@Z 004bbe70 f   MenuBar.obj
 0001:000baee0       ?OnLButtonDown@CMenuBar@@IAEXIVCPoint@@@Z 004bbee0 f   MenuBar.obj
 0001:000baf80       ?OnMouseMove@CMenuBar@@IAEXIVCPoint@@@Z 004bbf80 f   MenuBar.obj
 0001:000bb030       ??9CPoint@@QBEHUtagPOINT@@@Z 004bc030 f i MenuBar.obj
 0001:000bb070       ?OnMenuSelect@CMenuBar@@QAEXPAUHMENU__@@I@Z 004bc070 f   MenuBar.obj
 0001:000bb0e0       ?MenuInputFilter@CMenuBar@@KGJHIJ@Z 004bc0e0 f   MenuBar.obj
 0001:000bb150       ?OnMenuInput@CMenuBar@@MAEHAAUtagMSG@@@Z 004bc150 f   MenuBar.obj
 0001:000bb3c0       ??0CPoint@@QAE@K@Z         004bc3c0 f i MenuBar.obj
 0001:000bb400       ?CancelMenuAndTrackNewOne@CMenuBar@@IAEXH@Z 004bc400 f   MenuBar.obj
 0001:000bb450       ?TrackPopup@CMenuBar@@IAEXH@Z 004bc450 f   MenuBar.obj
 0001:000bb6c0       ?ComputeMenuTrackPoint@CMenuBar@@IAE?AVCPoint@@ABVCRect@@AAUtagTPMPARAMS@@@Z 004bc6c0 f   MenuBar.obj
 0001:000bb750       ?TranslateFrameMessage@CMenuBar@@UAEHPAUtagMSG@@@Z 004bc750 f   MenuBar.obj
 0001:000bb9d0       ?GetHotItem@CToolBarCtrl@@QBEHXZ 004bc9d0 f i MenuBar.obj
 0001:000bba00       ?MapAccelerator@CMenuBar@@QAEHDAAI@Z 004bca00 f   MenuBar.obj
 0001:000bba30       ?OnNcHitTest@CMenuBar@@IAEIVCPoint@@@Z 004bca30 f   MenuBar.obj
 0001:000bbad0       ??0CMenuData@@QAE@XZ       004bcad0 f   MenuData.obj
 0001:000bbb30       ??_GCMenuData@@UAEPAXI@Z   004bcb30 f i MenuData.obj
 0001:000bbb30       ??_ECMenuData@@UAEPAXI@Z   004bcb30 f i MenuData.obj
 0001:000bbb70       ??1CMenuData@@UAE@XZ       004bcb70 f   MenuData.obj
 0001:000bbbd0       ?SetMenuText@@YAHPBDPAVCMenuData@@@Z 004bcbd0 f   MenuData.obj
 0001:000bbcd0       ?SetURL@@YAHPBDPAVCMenuData@@@Z 004bccd0 f   MenuData.obj
 0001:000bbdc0       ?GetDWORD@@YAKAAPAEPAE@Z   004bcdc0 f   Menuorder.obj
 0001:000bbe10       ?GetWORD@@YAGAAPAEPAE@Z    004bce10 f   Menuorder.obj
 0001:000bbe60       ?GetString@@YAPADAAPAEPAE@Z 004bce60 f   Menuorder.obj
 0001:000bbf60       ?GetStringW@@YAPADAAPAEPAE@Z 004bcf60 f   Menuorder.obj
 0001:000bc080       ?PutWORD@@YAXGAAPAE@Z      004bd080 f   Menuorder.obj
 0001:000bc0d0       ?PutDWORD@@YAXKAAPAE@Z     004bd0d0 f   Menuorder.obj
 0001:000bc110       ?PutString@@YAXPADAAPAE@Z  004bd110 f   Menuorder.obj
 0001:000bc160       ?LoadMenuOrder@CMenuOrder@@QAEHPBD@Z 004bd160 f   Menuorder.obj
 0001:000bc750       ??0CMenuOrderItem@@QAE@XZ  004bd750 f i Menuorder.obj
 0001:000bc780       ?WriteMenuOrder@CMenuOrder@@QAEHPBD@Z 004bd780 f   Menuorder.obj
 0001:000bcee0       ?ObjectMain@CComObjectRootBase@ATL@@SGX_N@Z 004bdee0 f i WebMind.obj
 0001:000bcf80       ?UpdateRegistry@CWebMindNSHandle@@SGJH@Z 004bdf80 f i WebMind.obj
 0001:000bcfb0       ?UpdateRegistryFromResourceD@CComModule@ATL@@QAGJIHPAU_ATL_REGMAP_ENTRY@2@@Z 004bdfb0 f i WebMind.obj
 0001:000bcfe0       ?AtlModuleUpdateRegistryFromResourceD@ATL@@YGJPAU_ATL_MODULE@1@PBGHPAU_ATL_REGMAP_ENTRY@1@PAUIRegistrar@@@Z 004bdfe0 f i WebMind.obj
 0001:000bd450       ?ocslen@@YAIPBG@Z          004be450 f i WebMind.obj
 0001:000bd470       ?ReplaceSingleQuote@CComModule@ATL@@SAXPAGPBG@Z 004be470 f i WebMind.obj
 0001:000bd4e0       ?GetMessageMap@CWebMindApp@@MBEPBUAFX_MSGMAP@@XZ 004be4e0 f   WebMind.obj
 0001:000bd500       ??0CWebMindApp@@QAE@XZ        004be500 f   WebMind.obj
 0001:000bd5f0       ??_ECWebMindApp@@UAEPAXI@Z    004be5f0 f i WebMind.obj
 0001:000bd5f0       ??_GCWebMindApp@@UAEPAXI@Z    004be5f0 f i WebMind.obj
 0001:000bd630       ??1CWebMindApp@@UAE@XZ        004be630 f i WebMind.obj
 0001:000bd810       ?InitInstance@CWebMindApp@@UAEHXZ 004be810 f   WebMind.obj
 0001:000beee0       ?AfxGetAppName@@YGPBDXZ    004bfee0 f i WebMind.obj
 0001:000bef00       ??0CCustomOccManager@@QAE@XZ 004bff00 f i WebMind.obj
 0001:000bef30       ?CreateSite@CCustomOccManager@@UAEPAVCOleControlSite@@PAVCOleControlContainer@@@Z 004bff30 f i WebMind.obj
 0001:000befb0       ??0CCustomControlSite@@QAE@PAVCOleControlContainer@@@Z 004bffb0 f i WebMind.obj
 0001:000bf030       ??_GCCustomControlSite@@UAEPAXI@Z 004c0030 f i WebMind.obj
 0001:000bf030       ??_ECCustomControlSite@@UAEPAXI@Z 004c0030 f i WebMind.obj
 0001:000bf070       ??0XDocHostUIHandler@CCustomControlSite@@QAE@XZ 004c0070 f i WebMind.obj
 0001:000bf0a0       ??0XOleCommandTarget@CCustomControlSite@@QAE@XZ 004c00a0 f i WebMind.obj
 0001:000bf0d0       ??1CCustomControlSite@@UAE@XZ 004c00d0 f i WebMind.obj
 0001:000bf0f0       ??0IDocHostUIHandler@@QAE@XZ 004c00f0 f i WebMind.obj
 0001:000bf110       ??0IOleCommandTarget@@QAE@XZ 004c0110 f i WebMind.obj
 0001:000bf130       ??_ECCustomOccManager@@UAEPAXI@Z 004c0130 f i WebMind.obj
 0001:000bf130       ??_GCCustomOccManager@@UAEPAXI@Z 004c0130 f i WebMind.obj
 0001:000bf170       ??0COccManager@@QAE@XZ     004c0170 f i WebMind.obj
 0001:000bf1a0       ??1CCustomOccManager@@UAE@XZ 004c01a0 f i WebMind.obj
 0001:000bf1c0       ??1COccManager@@UAE@XZ     004c01c0 f i WebMind.obj
 0001:000bf1e0       ??1CNoTrackObject@@UAE@XZ  004c01e0 f i WebMind.obj
 0001:000bf200       ??_ECOccManager@@UAEPAXI@Z 004c0200 f i WebMind.obj
 0001:000bf200       ??_GCOccManager@@UAEPAXI@Z 004c0200 f i WebMind.obj
 0001:000bf240       ??0CNoTrackObject@@QAE@XZ  004c0240 f i WebMind.obj
 0001:000bf260       ?OnAppAbout@CWebMindApp@@QAEXXZ 004c0260 f   WebMind.obj
 0001:000bf2c0       ??1CAboutDlg@@UAE@XZ       004c02c0 f i WebMind.obj
 0001:000bf2e0       ?ExitInstance@CWebMindApp@@UAEHXZ 004c02e0 f   WebMind.obj
 0001:000bf3e0       ?Term@CComModule@ATL@@QAEXXZ 004c03e0 f i WebMind.obj
 0001:000bf400       ?RevokeClassObjects@CComModule@ATL@@QAEJXZ 004c0400 f i WebMind.obj
 0001:000bf420       ?AtlModuleRevokeClassObjects@ATL@@YGJPAU_ATL_MODULE@1@@Z 004c0420 f i WebMind.obj
 0001:000bf490       ?RevokeClassObject@_ATL_OBJMAP_ENTRY@ATL@@QAGJXZ 004c0490 f i WebMind.obj
 0001:000bf4b0       ?_NextObjectMapEntry@ATL@@YAPAU_ATL_OBJMAP_ENTRY@1@PAU_ATL_MODULE@1@PAU21@@Z 004c04b0 f i WebMind.obj
 0001:000bf4e0       ?AtlModuleTerm@ATL@@YGJPAU_ATL_MODULE@1@@Z 004c04e0 f i WebMind.obj
 0001:000bf630       ??_GCImpIDispatch@@QAEPAXI@Z 004c0630 f i WebMind.obj
 0001:000bf670       ??_GCImpIDropTarget@@QAEPAXI@Z 004c0670 f i WebMind.obj
 0001:000bf6b0       ?LoadConfg@CWebMindApp@@QAEXXZ 004c06b0 f   WebMind.obj
 0001:000bfef0       ?SaveConfg@CWebMindApp@@QAEXXZ 004c0ef0 f   WebMind.obj
 0001:000c04d0       ?OnIdle@CWebMindApp@@UAEHJ@Z  004c14d0 f   WebMind.obj
 0001:000c06d0       ?ThreadOnIdle@CWebMindApp@@AAEHJ@Z 004c16d0 f   WebMind.obj
 0001:000c0770       ?Unlock@CWebMindModule@@QAEJXZ 004c1770 f   WebMind.obj
 0001:000c0790       ?Lock@CWebMindModule@@QAEJXZ  004c1790 f   WebMind.obj
 0001:000c07b0       ?FindOneOf@CWebMindModule@@QAEPBDPBD0@Z 004c17b0 f   WebMind.obj
 0001:000c0820       ?InitATL@CWebMindApp@@AAEHXZ  004c1820 f   WebMind.obj
 0001:000c0990       ?Init@CComModule@ATL@@QAEJPAU_ATL_OBJMAP_ENTRY@2@PAUHINSTANCE__@@PBU_GUID@@@Z 004c1990 f i WebMind.obj
 0001:000c0a00       ?RegisterServer@CComModule@ATL@@QAEJHPBU_GUID@@@Z 004c1a00 f i WebMind.obj
 0001:000c0a30       ?UnregisterServer@CComModule@ATL@@QAEJHPBU_GUID@@@Z 004c1a30 f i WebMind.obj
 0001:000c0a60       ?RegisterClassObjects@CComModule@ATL@@QAEJKK@Z 004c1a60 f i WebMind.obj
 0001:000c0a90       ?AtlModuleInit@ATL@@YGJPAU_ATL_MODULE@1@PAU_ATL_OBJMAP_ENTRY@1@PAUHINSTANCE__@@@Z 004c1a90 f i WebMind.obj
 0001:000c0b90       ?AtlModuleRegisterClassObjects@ATL@@YGJPAU_ATL_MODULE@1@KK@Z 004c1b90 f i WebMind.obj
 0001:000c0c00       ?RegisterClassObject@_ATL_OBJMAP_ENTRY@ATL@@QAGJKK@Z 004c1c00 f i WebMind.obj
 0001:000c0c80       ?AtlModuleRegisterServer@ATL@@YGJPAU_ATL_MODULE@1@HPBU_GUID@@@Z 004c1c80 f i WebMind.obj
 0001:000c0d70       ?AtlRegisterClassCategoriesHelper@ATL@@YGJABU_GUID@@PBU_ATL_CATMAP_ENTRY@1@H@Z 004c1d70 f i WebMind.obj
 0001:000c0f40       ?AtlModuleUnregisterServerEx@ATL@@YGJPAU_ATL_MODULE@1@HPBU_GUID@@@Z 004c1f40 f i WebMind.obj
 0001:000c1010       ?AtlModuleUnRegisterTypeLib@ATL@@YGJPAU_ATL_MODULE@1@PBG@Z 004c2010 f i WebMind.obj
 0001:000c1150       ??0CComBSTR@ATL@@QAE@XZ    004c2150 f i WebMind.obj
 0001:000c1170       ??ICComBSTR@ATL@@QAEPAPAGXZ 004c2170 f i WebMind.obj
 0001:000c1190       ?AtlModuleLoadTypeLib@ATL@@YGJPAU_ATL_MODULE@1@PBGPAPAGPAPAUITypeLib@@@Z 004c2190 f i WebMind.obj
 0001:000c1400       ?OLE2BSTR@@YAPAGPBG@Z      004c2400 f i WebMind.obj
 0001:000c1420       ?AtlModuleRegisterTypeLib@ATL@@YGJPAU_ATL_MODULE@1@PBG@Z 004c2420 f i WebMind.obj
 0001:000c1520       ?ocscpy@@YAPAGPAGPBG@Z     004c2520 f i WebMind.obj
 0001:000c15d0       ?CharNextO@@YAPAGPBG@Z     004c25d0 f i WebMind.obj
 0001:000c1600       ?IsDonated@CWebMindApp@@QAEHXZ 004c2600 f   WebMind.obj
 0001:000c16a0       ??0CAboutDlg@@QAE@XZ       004c26a0 f   WebMind.obj
 0001:000c16d0       ??_GCAboutDlg@@UAEPAXI@Z   004c26d0 f i WebMind.obj
 0001:000c16d0       ??_ECAboutDlg@@UAEPAXI@Z   004c26d0 f i WebMind.obj
 0001:000c1710       ?DoDataExchange@CAboutDlg@@MAEXPAVCDataExchange@@@Z 004c2710 f   WebMind.obj
 0001:000c1740       ?GetMessageMap@CAboutDlg@@MBEPBUAFX_MSGMAP@@XZ 004c2740 f   WebMind.obj
 0001:000c1760       ?OnInitDialog@CAboutDlg@@MAEHXZ 004c2760 f   WebMind.obj
 0001:000c1a00       ?OnDonate@CAboutDlg@@IAEXXZ 004c2a00 f   WebMind.obj
 0001:000c1be0       ?CreateOrActivateBrowserView@CWebMindApp@@QAEPAVCView@@H@Z 004c2be0 f   WebMind.obj
 0001:000c1cb0       ?checkingUpload@CWebMindApp@@QAEXXZ 004c2cb0 f   WebMind.obj
 0001:000c1d90       ??B?$CThreadLocal@VAFX_MODULE_THREAD_STATE@@@@QAEPAVAFX_MODULE_THREAD_STATE@@XZ 004c2d90 f i WebMind.obj
 0001:000c1db0       ??0?$CComPtr@UICatRegister@@@ATL@@QAE@XZ 004c2db0 f i WebMind.obj
 0001:000c1dd0       ??1?$CComPtr@UICatRegister@@@ATL@@QAE@XZ 004c2dd0 f i WebMind.obj
 0001:000c1e00       ??I?$CComPtr@UICatRegister@@@ATL@@QAEPAPAUICatRegister@@XZ 004c2e00 f i WebMind.obj
 0001:000c1e20       ??C?$CComPtr@UICatRegister@@@ATL@@QBEPAV?$_NoAddRefReleaseOnCComPtr@UICatRegister@@@1@XZ 004c2e20 f i WebMind.obj
 0001:000c1e40       ??0?$CComPtr@UIRegistrar@@@ATL@@QAE@XZ 004c2e40 f i WebMind.obj
 0001:000c1e60       ??1?$CComPtr@UIRegistrar@@@ATL@@QAE@XZ 004c2e60 f i WebMind.obj
 0001:000c1e90       ??I?$CComPtr@UIRegistrar@@@ATL@@QAEPAPAUIRegistrar@@XZ 004c2e90 f i WebMind.obj
 0001:000c1eb0       ??C?$CComPtr@UIRegistrar@@@ATL@@QBEPAV?$_NoAddRefReleaseOnCComPtr@UIRegistrar@@@1@XZ 004c2eb0 f i WebMind.obj
 0001:000c1ed0       ??4?$CComPtr@UIRegistrar@@@ATL@@QAEPAUIRegistrar@@PAU2@@Z 004c2ed0 f i WebMind.obj
 0001:000c1f00       ?AtlComPtrAssign@ATL@@YGPAUIUnknown@@PAPAU2@PAU2@@Z 004c2f00 f i WebMind.obj
 0001:000c1f50       ??0?$CComPtr@UITypeLib@@@ATL@@QAE@XZ 004c2f50 f i WebMind.obj
 0001:000c1f70       ??1?$CComPtr@UITypeLib@@@ATL@@QAE@XZ 004c2f70 f i WebMind.obj
 0001:000c1fa0       ??B?$CComPtr@UITypeLib@@@ATL@@QBEPAUITypeLib@@XZ 004c2fa0 f i WebMind.obj
 0001:000c1fc0       ??I?$CComPtr@UITypeLib@@@ATL@@QAEPAPAUITypeLib@@XZ 004c2fc0 f i WebMind.obj
 0001:000c1fe0       ??C?$CComPtr@UITypeLib@@@ATL@@QBEPAV?$_NoAddRefReleaseOnCComPtr@UITypeLib@@@1@XZ 004c2fe0 f i WebMind.obj
 0001:000c2000       ?GetObjectDescription@?$CComCoClass@VCWebMindNSHandle@@$1?CLSID_WebMindNSHandle@@3U_GUID@@B@ATL@@SGPBDXZ 004c3000 f i WebMind.obj
 0001:000c2020       ?GetCategoryMap@?$CComCoClass@VCWebMindNSHandle@@$1?CLSID_WebMindNSHandle@@3U_GUID@@B@ATL@@SAPBU_ATL_CATMAP_ENTRY@2@XZ 004c3020 f i WebMind.obj
 0001:000c2040       ?CreateInstance@?$CComCreator@V?$CComObjectNoLock@VCComClassFactory@ATL@@@ATL@@@ATL@@SGJPAXABU_GUID@@PAPAX@Z 004c3040 f i WebMind.obj
 0001:000c2170       ?FinalConstruct@CComObjectRootBase@ATL@@QAEJXZ 004c3170 f i WebMind.obj
 0001:000c2190       ?InternalFinalConstructAddRef@CComObjectRootBase@ATL@@QAEXXZ 004c3190 f i WebMind.obj
 0001:000c21b0       ?InternalFinalConstructRelease@CComObjectRootBase@ATL@@QAEXXZ 004c31b0 f i WebMind.obj
 0001:000c21d0       ?SetVoid@CComClassFactory@ATL@@QAEXPAX@Z 004c31d0 f i WebMind.obj
 0001:000c21f0       ?CreateInstance@?$CComCreator2@V?$CComCreator@V?$CComObject@VCWebMindNSHandle@@@ATL@@@ATL@@V?$CComCreator@V?$CComAggObject@VCWebMindNSHandle@@@ATL@@@2@@ATL@@SGJPAXABU_GUID@@PAPAX@Z 004c31f0 f i WebMind.obj
 0001:000c2240       ??_G?$CComObjectNoLock@VCComClassFactory@ATL@@@ATL@@QAEPAXI@Z 004c3240 f i WebMind.obj
 0001:000c2280       ?GetData@?$CThreadLocal@VAFX_MODULE_THREAD_STATE@@@@QAEPAVAFX_MODULE_THREAD_STATE@@XZ 004c3280 f i WebMind.obj
 0001:000c22b0       ??0?$CComObjectNoLock@VCComClassFactory@ATL@@@ATL@@QAE@PAX@Z 004c32b0 f i WebMind.obj
 0001:000c22e0       ?CreateInstance@CComClassFactory@ATL@@UAGJPAUIUnknown@@ABU_GUID@@PAPAX@Z 004c32e0 f i WebMind.obj
 0001:000c2370       ?AtlTrace2@ATL@@YAXKIPBDZZ 004c3370 f i WebMind.obj
 0001:000c2380       ?InlineIsEqualUnknown@ATL@@YAHABU_GUID@@@Z 004c3380 f i WebMind.obj
 0001:000c23d0       ?LockServer@CComClassFactory@ATL@@UAGJH@Z 004c33d0 f i WebMind.obj
 0001:000c2400       ??1?$CComObjectNoLock@VCComClassFactory@ATL@@@ATL@@QAE@XZ 004c3400 f i WebMind.obj
 0001:000c2470       ?FinalRelease@CComObjectRootBase@ATL@@QAEXXZ 004c3470 f i WebMind.obj
 0001:000c2490       ?AddRef@?$CComObjectNoLock@VCComClassFactory@ATL@@@ATL@@UAGKXZ 004c3490 f i WebMind.obj
 0001:000c24b0       ?Release@?$CComObjectNoLock@VCComClassFactory@ATL@@@ATL@@UAGKXZ 004c34b0 f i WebMind.obj
 0001:000c2510       ?QueryInterface@?$CComObjectNoLock@VCComClassFactory@ATL@@@ATL@@UAGJABU_GUID@@PAPAX@Z 004c3510 f i WebMind.obj
 0001:000c2540       ?_InternalQueryInterface@CComClassFactory@ATL@@QAEJABU_GUID@@PAPAX@Z 004c3540 f i WebMind.obj
 0001:000c2570       ?InternalQueryInterface@CComObjectRootBase@ATL@@SGJPAXPBU_ATL_INTMAP_ENTRY@2@ABU_GUID@@PAPAX@Z 004c3570 f i WebMind.obj
 0001:000c25a0       ?AtlInternalQueryInterface@ATL@@YGJPAXPBU_ATL_INTMAP_ENTRY@1@ABU_GUID@@PAPAX@Z 004c35a0 f i WebMind.obj
 0001:000c26b0       ?InlineIsEqualGUID@ATL@@YAHABU_GUID@@0@Z 004c36b0 f i WebMind.obj
 0001:000c2710       ?_GetEntries@CComClassFactory@ATL@@SGPBU_ATL_INTMAP_ENTRY@2@XZ 004c3710 f i WebMind.obj
 0001:000c2730       ?CreateInstance@?$CComCreator@V?$CComObject@VCWebMindNSHandle@@@ATL@@@ATL@@SGJPAXABU_GUID@@PAPAX@Z 004c3730 f i WebMind.obj
 0001:000c2860       ?SetVoid@CComObjectRootBase@ATL@@QAEXPAX@Z 004c3860 f i WebMind.obj
 0001:000c2880       ?CreateInstance@?$CComCreator@V?$CComAggObject@VCWebMindNSHandle@@@ATL@@@ATL@@SGJPAXABU_GUID@@PAPAX@Z 004c3880 f i WebMind.obj
 0001:000c29b0       ??0CComClassFactory@ATL@@QAE@XZ 004c39b0 f i WebMind.obj
 0001:000c29f0       ??1CComClassFactory@ATL@@QAE@XZ 004c39f0 f i WebMind.obj
 0001:000c2a30       ??_G?$CComObject@VCWebMindNSHandle@@@ATL@@QAEPAXI@Z 004c3a30 f i WebMind.obj
 0001:000c2a70       ??_G?$CComAggObject@VCWebMindNSHandle@@@ATL@@QAEPAXI@Z 004c3a70 f i WebMind.obj
 0001:000c2ab0       ??0IClassFactory@@QAE@XZ   004c3ab0 f i WebMind.obj
 0001:000c2ad0       ??0?$CComObjectRootEx@VCComMultiThreadModel@ATL@@@ATL@@QAE@XZ 004c3ad0 f i WebMind.obj
 0001:000c2b00       ??0CComAutoCriticalSection@ATL@@QAE@XZ 004c3b00 f i WebMind.obj
 0001:000c2b20       ??0CComObjectRootBase@ATL@@QAE@XZ 004c3b20 f i WebMind.obj
 0001:000c2b40       ??1?$CComObjectRootEx@VCComMultiThreadModel@ATL@@@ATL@@QAE@XZ 004c3b40 f i WebMind.obj
 0001:000c2b60       ??1CComAutoCriticalSection@ATL@@QAE@XZ 004c3b60 f i WebMind.obj
 0001:000c2b80       ?CreateObject@?$CThreadLocal@VAFX_MODULE_THREAD_STATE@@@@SGPAVCNoTrackObject@@XZ 004c3b80 f i WebMind.obj
 0001:000c2bf0       ?InternalAddRef@?$CComObjectRootEx@VCComMultiThreadModel@ATL@@@ATL@@QAEKXZ 004c3bf0 f i WebMind.obj
 0001:000c2c10       ?Increment@CComMultiThreadModel@ATL@@SGKPAJ@Z 004c3c10 f i WebMind.obj
 0001:000c2c30       ?InternalRelease@?$CComObjectRootEx@VCComMultiThreadModel@ATL@@@ATL@@QAEKXZ 004c3c30 f i WebMind.obj
 0001:000c2c50       ?Decrement@CComMultiThreadModel@ATL@@SGKPAJ@Z 004c3c50 f i WebMind.obj
 0001:000c2c70       ??0?$CComObject@VCWebMindNSHandle@@@ATL@@QAE@PAX@Z 004c3c70 f i WebMind.obj
 0001:000c2cc0       ??1?$CComObject@VCWebMindNSHandle@@@ATL@@QAE@XZ 004c3cc0 f i WebMind.obj
 0001:000c2d10       ?AddRef@?$CComObject@VCWebMindNSHandle@@@ATL@@UAGKXZ 004c3d10 f i WebMind.obj
 0001:000c2d30       ?InternalAddRef@?$CComObjectRootEx@VCComSingleThreadModel@ATL@@@ATL@@QAEKXZ 004c3d30 f i WebMind.obj
 0001:000c2d50       ?Increment@CComSingleThreadModel@ATL@@SGKPAJ@Z 004c3d50 f i WebMind.obj
 0001:000c2d80       ?Release@?$CComObject@VCWebMindNSHandle@@@ATL@@UAGKXZ 004c3d80 f i WebMind.obj
 0001:000c2de0       ?InternalRelease@?$CComObjectRootEx@VCComSingleThreadModel@ATL@@@ATL@@QAEKXZ 004c3de0 f i WebMind.obj
 0001:000c2e00       ?Decrement@CComSingleThreadModel@ATL@@SGKPAJ@Z 004c3e00 f i WebMind.obj
 0001:000c2e30       ?QueryInterface@?$CComObject@VCWebMindNSHandle@@@ATL@@UAGJABU_GUID@@PAPAX@Z 004c3e30 f i WebMind.obj
 0001:000c2e60       ?_InternalQueryInterface@CWebMindNSHandle@@QAEJABU_GUID@@PAPAX@Z 004c3e60 f i WebMind.obj
 0001:000c2e90       ?_GetEntries@CWebMindNSHandle@@SGPBU_ATL_INTMAP_ENTRY@ATL@@XZ 004c3e90 f i WebMind.obj
 0001:000c2eb0       ??0?$CComAggObject@VCWebMindNSHandle@@@ATL@@QAE@PAX@Z 004c3eb0 f i WebMind.obj
 0001:000c2f00       ?FinalConstruct@?$CComAggObject@VCWebMindNSHandle@@@ATL@@QAEJXZ 004c3f00 f i WebMind.obj
 0001:000c2f30       ??1?$CComAggObject@VCWebMindNSHandle@@@ATL@@QAE@XZ 004c3f30 f i WebMind.obj
 0001:000c2f70       ?AddRef@?$CComAggObject@VCWebMindNSHandle@@@ATL@@UAGKXZ 004c3f70 f i WebMind.obj
 0001:000c2f90       ?Release@?$CComAggObject@VCWebMindNSHandle@@@ATL@@UAGKXZ 004c3f90 f i WebMind.obj
 0001:000c2ff0       ?QueryInterface@?$CComAggObject@VCWebMindNSHandle@@@ATL@@UAGJABU_GUID@@PAPAX@Z 004c3ff0 f i WebMind.obj
 0001:000c3060       ??0?$CComObjectRootEx@VCComSingleThreadModel@ATL@@@ATL@@QAE@XZ 004c4060 f i WebMind.obj
 0001:000c3080       ?FinalRelease@?$CComAggObject@VCWebMindNSHandle@@@ATL@@QAEXXZ 004c4080 f i WebMind.obj
 0001:000c30b0       ??0?$CComContainedObject@VCWebMindNSHandle@@@ATL@@QAE@PAX@Z 004c40b0 f i WebMind.obj
 0001:000c3100       ?AddRef@?$CComContainedObject@VCWebMindNSHandle@@@ATL@@UAGKXZ 004c4100 f i WebMind.obj
 0001:000c3120       ?OuterAddRef@CComObjectRootBase@ATL@@QAEKXZ 004c4120 f i WebMind.obj
 0001:000c3150       ?Release@?$CComContainedObject@VCWebMindNSHandle@@@ATL@@UAGKXZ 004c4150 f i WebMind.obj
 0001:000c3170       ?OuterRelease@CComObjectRootBase@ATL@@QAEKXZ 004c4170 f i WebMind.obj
 0001:000c31a0       ?QueryInterface@?$CComContainedObject@VCWebMindNSHandle@@@ATL@@UAGJABU_GUID@@PAPAX@Z 004c41a0 f i WebMind.obj
 0001:000c3200       ?OuterQueryInterface@CComObjectRootBase@ATL@@QAEJABU_GUID@@PAPAX@Z 004c4200 f i WebMind.obj
 0001:000c3230       ?_GetRawUnknown@CWebMindNSHandle@@QAEPAUIUnknown@@XZ 004c4230 f i WebMind.obj
 0001:000c3290       ?QueryInterface@?$CComContainedObject@VCWebMindNSHandle@@@ATL@@W3AGJABU_GUID@@PAPAX@Z 004c4290 f i WebMind.obj
 0001:000c32a0       ?AddRef@?$CComContainedObject@VCWebMindNSHandle@@@ATL@@W3AGKXZ 004c42a0 f i WebMind.obj
 0001:000c32b0       ?Release@?$CComContainedObject@VCWebMindNSHandle@@@ATL@@W3AGKXZ 004c42b0 f i WebMind.obj
 0001:000c32c0       ?QueryInterface@?$CComContainedObject@VCWebMindNSHandle@@@ATL@@W7AGJABU_GUID@@PAPAX@Z 004c42c0 f i WebMind.obj
 0001:000c32d0       ?AddRef@?$CComContainedObject@VCWebMindNSHandle@@@ATL@@W7AGKXZ 004c42d0 f i WebMind.obj
 0001:000c32e0       ?Release@?$CComContainedObject@VCWebMindNSHandle@@@ATL@@W7AGKXZ 004c42e0 f i WebMind.obj
 0001:000c32f0       ?QueryInterface@?$CComObject@VCWebMindNSHandle@@@ATL@@W3AGJABU_GUID@@PAPAX@Z 004c42f0 f i WebMind.obj
 0001:000c3300       ?AddRef@?$CComObject@VCWebMindNSHandle@@@ATL@@W3AGKXZ 004c4300 f i WebMind.obj
 0001:000c3310       ?Release@?$CComObject@VCWebMindNSHandle@@@ATL@@W3AGKXZ 004c4310 f i WebMind.obj
 0001:000c3320       ?QueryInterface@?$CComObject@VCWebMindNSHandle@@@ATL@@W7AGJABU_GUID@@PAPAX@Z 004c4320 f i WebMind.obj
 0001:000c3330       ?AddRef@?$CComObject@VCWebMindNSHandle@@@ATL@@W7AGKXZ 004c4330 f i WebMind.obj
 0001:000c3340       ?Release@?$CComObject@VCWebMindNSHandle@@@ATL@@W7AGKXZ 004c4340 f i WebMind.obj
 0001:000c33d0       ?CreateNewView@@YAPAVCWebMindView@@XZ 004c43d0 f   WebMindHelper.obj
 0001:000c3410       ?GetCurrentView@@YAPAVCWebMindView@@HH@Z 004c4410 f   WebMindHelper.obj
 0001:000c3540       ??0CWebMindNSHandle@@QAE@XZ   004c4540 f   WebMindNSHandle.obj
 0001:000c35a0       ??0IWebMindNSHandle@@QAE@XZ   004c45a0 f i WebMindNSHandle.obj
 0001:000c35c0       ??0IInternetProtocolInfo@@QAE@XZ 004c45c0 f i WebMindNSHandle.obj
 0001:000c35e0       ??0IInternetProtocol@@QAE@XZ 004c45e0 f i WebMindNSHandle.obj
 0001:000c3600       ??0IInternetProtocolRoot@@QAE@XZ 004c4600 f i WebMindNSHandle.obj
 0001:000c3620       ?Start@CWebMindNSHandle@@UAGJPBGPAUIInternetProtocolSink@@PAUIInternetBindInfo@@KK@Z 004c4620 f   WebMindNSHandle.obj
 0001:000c3c20       ?Continue@CWebMindNSHandle@@UAGJPAU_tagPROTOCOLDATA@@@Z 004c4c20 f   WebMindNSHandle.obj
 0001:000c3c40       ?Abort@CWebMindNSHandle@@UAGJJK@Z 004c4c40 f   WebMindNSHandle.obj
 0001:000c3c60       ?Terminate@CWebMindNSHandle@@UAGJK@Z 004c4c60 f   WebMindNSHandle.obj
 0001:000c3c80       ?Suspend@CWebMindNSHandle@@UAGJXZ 004c4c80 f   WebMindNSHandle.obj
 0001:000c3ca0       ?Resume@CWebMindNSHandle@@UAGJXZ 004c4ca0 f   WebMindNSHandle.obj
 0001:000c3cc0       ?Read@CWebMindNSHandle@@UAGJPAXKPAK@Z 004c4cc0 f   WebMindNSHandle.obj
 0001:000c3d50       ?Seek@CWebMindNSHandle@@UAGJT_LARGE_INTEGER@@KPAT_ULARGE_INTEGER@@@Z 004c4d50 f   WebMindNSHandle.obj
 0001:000c3d70       ?LockRequest@CWebMindNSHandle@@UAGJK@Z 004c4d70 f   WebMindNSHandle.obj
 0001:000c3db0       ?AtlTrace@ATL@@YAXPBDZZ    004c4db0 f i WebMindNSHandle.obj
 0001:000c3dc0       ?UnlockRequest@CWebMindNSHandle@@UAGJXZ 004c4dc0 f   WebMindNSHandle.obj
 0001:000c3e00       ?CombineUrl@CWebMindNSHandle@@UAGJPBG0KPAGKPAKK@Z 004c4e00 f   WebMindNSHandle.obj
 0001:000c3e40       ?CompareUrl@CWebMindNSHandle@@UAGJPBG0K@Z 004c4e40 f   WebMindNSHandle.obj
 0001:000c3ea0       ?ParseUrl@CWebMindNSHandle@@UAGJPBGW4_tagPARSEACTION@@KPAGKPAKK@Z 004c4ea0 f   WebMindNSHandle.obj
 0001:000c3ee0       ?QueryInfo@CWebMindNSHandle@@UAGJPBGW4_tagQUERYOPTION@@KPAXKPAKK@Z 004c4ee0 f   WebMindNSHandle.obj
 0001:000c3fe0       ?CreateObject@CWindowProp@@SGPAVCObject@@XZ 004c4fe0 f   WebMindOptions.obj
 0001:000c4050       ?GetRuntimeClass@CWindowProp@@UBEPAUCRuntimeClass@@XZ 004c5050 f   WebMindOptions.obj
 0001:000c4070       ??0CWindowProp@@QAE@XZ     004c5070 f   WebMindOptions.obj
 0001:000c41f0       ??0CSpinButtonCtrl@@QAE@XZ 004c51f0 f i WebMindOptions.obj
 0001:000c4220       ??_GCSpinButtonCtrl@@UAEPAXI@Z 004c5220 f i WebMindOptions.obj
 0001:000c4220       ??_ECSpinButtonCtrl@@UAEPAXI@Z 004c5220 f i WebMindOptions.obj
 0001:000c4260       ??_ECWindowProp@@UAEPAXI@Z 004c5260 f i WebMindOptions.obj
 0001:000c4260       ??_GCWindowProp@@UAEPAXI@Z 004c5260 f i WebMindOptions.obj
 0001:000c42a0       ??1CWindowProp@@UAE@XZ     004c52a0 f   WebMindOptions.obj
 0001:000c4320       ?DoDataExchange@CWindowProp@@MAEXPAVCDataExchange@@@Z 004c5320 f   WebMindOptions.obj
 0001:000c4520       ?GetMessageMap@CWindowProp@@MBEPBUAFX_MSGMAP@@XZ 004c5520 f   WebMindOptions.obj
 0001:000c4540       ?CreateObject@CTabProp@@SGPAVCObject@@XZ 004c5540 f   WebMindOptions.obj
 0001:000c45b0       ?GetRuntimeClass@CTabProp@@UBEPAUCRuntimeClass@@XZ 004c55b0 f   WebMindOptions.obj
 0001:000c45d0       ??0CTabProp@@QAE@XZ        004c55d0 f   WebMindOptions.obj
 0001:000c4750       ??_ECTabProp@@UAEPAXI@Z    004c5750 f i WebMindOptions.obj
 0001:000c4750       ??_GCTabProp@@UAEPAXI@Z    004c5750 f i WebMindOptions.obj
 0001:000c4790       ??1CTabProp@@UAE@XZ        004c5790 f   WebMindOptions.obj
 0001:000c4840       ?DoDataExchange@CTabProp@@MAEXPAVCDataExchange@@@Z 004c5840 f   WebMindOptions.obj
 0001:000c4a40       ?GetMessageMap@CTabProp@@MBEPBUAFX_MSGMAP@@XZ 004c5a40 f   WebMindOptions.obj
 0001:000c4a60       ?CreateObject@CGeneralProp@@SGPAVCObject@@XZ 004c5a60 f   WebMindOptions.obj
 0001:000c4ad0       ?GetRuntimeClass@CGeneralProp@@UBEPAUCRuntimeClass@@XZ 004c5ad0 f   WebMindOptions.obj
 0001:000c4af0       ??0CGeneralProp@@QAE@XZ    004c5af0 f   WebMindOptions.obj
 0001:000c4c10       ??_ECGeneralProp@@UAEPAXI@Z 004c5c10 f i WebMindOptions.obj
 0001:000c4c10       ??_GCGeneralProp@@UAEPAXI@Z 004c5c10 f i WebMindOptions.obj
 0001:000c4c50       ??1CGeneralProp@@UAE@XZ    004c5c50 f   WebMindOptions.obj
 0001:000c4cd0       ?DoDataExchange@CGeneralProp@@MAEXPAVCDataExchange@@@Z 004c5cd0 f   WebMindOptions.obj
 0001:000c4e30       ?GetMessageMap@CGeneralProp@@MBEPBUAFX_MSGMAP@@XZ 004c5e30 f   WebMindOptions.obj
 0001:000c4e50       ?CreateObject@COtherProp@@SGPAVCObject@@XZ 004c5e50 f   WebMindOptions.obj
 0001:000c4ec0       ?GetRuntimeClass@COtherProp@@UBEPAUCRuntimeClass@@XZ 004c5ec0 f   WebMindOptions.obj
 0001:000c4ee0       ??0COtherProp@@QAE@XZ      004c5ee0 f   WebMindOptions.obj
 0001:000c5070       ??0CHotKeyCtrl@@QAE@XZ     004c6070 f i WebMindOptions.obj
 0001:000c50a0       ??_ECHotKeyCtrl@@UAEPAXI@Z 004c60a0 f i WebMindOptions.obj
 0001:000c50a0       ??_GCHotKeyCtrl@@UAEPAXI@Z 004c60a0 f i WebMindOptions.obj
 0001:000c50e0       ??_ECOtherProp@@UAEPAXI@Z  004c60e0 f i WebMindOptions.obj
 0001:000c50e0       ??_GCOtherProp@@UAEPAXI@Z  004c60e0 f i WebMindOptions.obj
 0001:000c5120       ??1COtherProp@@UAE@XZ      004c6120 f   WebMindOptions.obj
 0001:000c51f0       ?DoDataExchange@COtherProp@@MAEXPAVCDataExchange@@@Z 004c61f0 f   WebMindOptions.obj
 0001:000c5330       ?GetMessageMap@COtherProp@@MBEPBUAFX_MSGMAP@@XZ 004c6330 f   WebMindOptions.obj
 0001:000c5350       ?CreateObject@CSaveProp@@SGPAVCObject@@XZ 004c6350 f   WebMindOptions.obj
 0001:000c53c0       ?GetRuntimeClass@CSaveProp@@UBEPAUCRuntimeClass@@XZ 004c63c0 f   WebMindOptions.obj
 0001:000c53e0       ??0CSaveProp@@QAE@XZ       004c63e0 f   WebMindOptions.obj
 0001:000c54b0       ??_ECSaveProp@@UAEPAXI@Z   004c64b0 f i WebMindOptions.obj
 0001:000c54b0       ??_GCSaveProp@@UAEPAXI@Z   004c64b0 f i WebMindOptions.obj
 0001:000c54f0       ??1CSaveProp@@UAE@XZ       004c64f0 f   WebMindOptions.obj
 0001:000c5560       ?DoDataExchange@CSaveProp@@MAEXPAVCDataExchange@@@Z 004c6560 f   WebMindOptions.obj
 0001:000c5620       ?GetMessageMap@CSaveProp@@MBEPBUAFX_MSGMAP@@XZ 004c6620 f   WebMindOptions.obj
 0001:000c5640       ?OnInitDialog@COtherProp@@MAEHXZ 004c6640 f   WebMindOptions.obj
 0001:000c5750       ?SetHotKey@CHotKeyCtrl@@QAEXGG@Z 004c6750 f i WebMindOptions.obj
 0001:000c57b0       ?OnGetSavepath@CSaveProp@@IAEXXZ 004c67b0 f   WebMindOptions.obj
 0001:000c5800       ?OnGetImagepath@CSaveProp@@IAEXXZ 004c6800 f   WebMindOptions.obj
 0001:000c5850       ?OnGetSkinpath@CGeneralProp@@IAEXXZ 004c6850 f   WebMindOptions.obj
 0001:000c58a0       ?CreateObject@CMouseProp@@SGPAVCObject@@XZ 004c68a0 f   WebMindOptions.obj
 0001:000c5910       ?GetRuntimeClass@CMouseProp@@UBEPAUCRuntimeClass@@XZ 004c6910 f   WebMindOptions.obj
 0001:000c5930       ??0CMouseProp@@QAE@XZ      004c6930 f   WebMindOptions.obj
 0001:000c59f0       ??_GCMouseProp@@UAEPAXI@Z  004c69f0 f i WebMindOptions.obj
 0001:000c59f0       ??_ECMouseProp@@UAEPAXI@Z  004c69f0 f i WebMindOptions.obj
 0001:000c5a30       ??1CMouseProp@@UAE@XZ      004c6a30 f   WebMindOptions.obj
 0001:000c5a60       ?DoDataExchange@CMouseProp@@MAEXPAVCDataExchange@@@Z 004c6a60 f   WebMindOptions.obj
 0001:000c5ba0       ?GetMessageMap@CMouseProp@@MBEPBUAFX_MSGMAP@@XZ 004c6ba0 f   WebMindOptions.obj
 0001:000c5bc0       ?SetFavPathState@CGeneralProp@@QAEXH@Z 004c6bc0 f   WebMindOptions.obj
 0001:000c5c20       ?SetLinkPathState@CGeneralProp@@QAEXH@Z 004c6c20 f   WebMindOptions.obj
 0001:000c5c80       ?OnInitDialog@CGeneralProp@@MAEHXZ 004c6c80 f   WebMindOptions.obj
 0001:000c5d00       ?OnGetFavPath@CGeneralProp@@IAEXXZ 004c6d00 f   WebMindOptions.obj
 0001:000c5d50       ?OnDefaultFavPath@CGeneralProp@@IAEXXZ 004c6d50 f   WebMindOptions.obj
 0001:000c5d90       ?CreateObject@CGestureProp@@SGPAVCObject@@XZ 004c6d90 f   WebMindOptions.obj
 0001:000c5e00       ?GetRuntimeClass@CGestureProp@@UBEPAUCRuntimeClass@@XZ 004c6e00 f   WebMindOptions.obj
 0001:000c5e20       ??0CGestureProp@@QAE@XZ    004c6e20 f   WebMindOptions.obj
 0001:000c5ed0       ??_ECGestureProp@@UAEPAXI@Z 004c6ed0 f i WebMindOptions.obj
 0001:000c5ed0       ??_GCGestureProp@@UAEPAXI@Z 004c6ed0 f i WebMindOptions.obj
 0001:000c5f10       ??1CGestureProp@@UAE@XZ    004c6f10 f   WebMindOptions.obj
 0001:000c5f90       ?DoDataExchange@CGestureProp@@MAEXPAVCDataExchange@@@Z 004c6f90 f   WebMindOptions.obj
 0001:000c6010       ?GetMessageMap@CGestureProp@@MBEPBUAFX_MSGMAP@@XZ 004c7010 f   WebMindOptions.obj
 0001:000c6030       ?OnNew@CGestureProp@@IAEXXZ 004c7030 f   WebMindOptions.obj
 0001:000c6070       ?OnUpdate@CGestureProp@@IAEXXZ 004c7070 f   WebMindOptions.obj
 0001:000c6270       ?OnDelete@CGestureProp@@IAEXXZ 004c7270 f   WebMindOptions.obj
 0001:000c63a0       ?OnItemchangedList@CGestureProp@@IAEXPAUtagNMHDR@@PAJ@Z 004c73a0 f   WebMindOptions.obj
 0001:000c6500       ?SelectString@CComboBox@@QAEHHPBD@Z 004c7500 f i WebMindOptions.obj
 0001:000c6530       ?OnDeltaposSpin@CGestureProp@@IAEXPAUtagNMHDR@@PAJ@Z 004c7530 f   WebMindOptions.obj
 0001:000c6700       ?GetMenuItemString@CGestureProp@@QAEXAAVCString@@H@Z 004c7700 f   WebMindOptions.obj
 0001:000c6770       ?OnInitDialog@CGestureProp@@MAEHXZ 004c7770 f   WebMindOptions.obj
 0001:000c6f10       ?OnOK@CGestureProp@@UAEXXZ 004c7f10 f   WebMindOptions.obj
 0001:000c7250       ??0CGesture@@QAE@XZ        004c8250 f i WebMindOptions.obj
 0001:000c7270       ?InputOneGesture@CGestureProp@@QAEXH@Z 004c8270 f   WebMindOptions.obj
 0001:000c7400       ?OnUp@CGestureProp@@IAEXXZ 004c8400 f   WebMindOptions.obj
 0001:000c7420       ?OnDown@CGestureProp@@IAEXXZ 004c8420 f   WebMindOptions.obj
 0001:000c7440       ?OnLeft@CGestureProp@@IAEXXZ 004c8440 f   WebMindOptions.obj
 0001:000c7460       ?OnRight@CGestureProp@@IAEXXZ 004c8460 f   WebMindOptions.obj
 0001:000c7480       ?OnBack@CGestureProp@@IAEXXZ 004c8480 f   WebMindOptions.obj
 0001:000c75a0       ?OnShowTray@COtherProp@@IAEXXZ 004c85a0 f   WebMindOptions.obj
 0001:000c7610       ?OnInitDialog@CMouseProp@@MAEHXZ 004c8610 f   WebMindOptions.obj
 0001:000c7660       ?Mod2HotKey@COtherProp@@QAEGG@Z 004c8660 f   WebMindOptions.obj
 0001:000c76d0       ?HotKey2Mod@COtherProp@@QAEGG@Z 004c86d0 f   WebMindOptions.obj
 0001:000c7740       ?OnUpdateHotkey@COtherProp@@IAEXXZ 004c8740 f   WebMindOptions.obj
 0001:000c7900       ?CreateObject@CToolbarProp@@SGPAVCObject@@XZ 004c8900 f   WebMindOptions.obj
 0001:000c7970       ?GetRuntimeClass@CToolbarProp@@UBEPAUCRuntimeClass@@XZ 004c8970 f   WebMindOptions.obj
 0001:000c7990       ??0CToolbarProp@@QAE@XZ    004c8990 f   WebMindOptions.obj
 0001:000c79f0       ??_GCToolbarProp@@UAEPAXI@Z 004c89f0 f i WebMindOptions.obj
 0001:000c79f0       ??_ECToolbarProp@@UAEPAXI@Z 004c89f0 f i WebMindOptions.obj
 0001:000c7a30       ??1CToolbarProp@@UAE@XZ    004c8a30 f   WebMindOptions.obj
 0001:000c7a60       ?DoDataExchange@CToolbarProp@@MAEXPAVCDataExchange@@@Z 004c8a60 f   WebMindOptions.obj
 0001:000c7af0       ?GetMessageMap@CToolbarProp@@MBEPBUAFX_MSGMAP@@XZ 004c8af0 f   WebMindOptions.obj
 0001:000c7b10       ?OnInitDialog@CToolbarProp@@MAEHXZ 004c8b10 f   WebMindOptions.obj
 0001:000c7c00       ?OnOK@CToolbarProp@@UAEXXZ 004c8c00 f   WebMindOptions.obj
 0001:000c7ce0       ?CreateObject@CMenuProp@@SGPAVCObject@@XZ 004c8ce0 f   WebMindOptions.obj
 0001:000c7d50       ?GetRuntimeClass@CMenuProp@@UBEPAUCRuntimeClass@@XZ 004c8d50 f   WebMindOptions.obj
 0001:000c7d70       ??0CMenuProp@@QAE@XZ       004c8d70 f   WebMindOptions.obj
 0001:000c7e40       ??_GCMenuProp@@UAEPAXI@Z   004c8e40 f i WebMindOptions.obj
 0001:000c7e40       ??_ECMenuProp@@UAEPAXI@Z   004c8e40 f i WebMindOptions.obj
 0001:000c7e80       ??1CMenuProp@@UAE@XZ       004c8e80 f   WebMindOptions.obj
 0001:000c7ee0       ?DoDataExchange@CMenuProp@@MAEXPAVCDataExchange@@@Z 004c8ee0 f   WebMindOptions.obj
 0001:000c7fc0       ?GetMessageMap@CMenuProp@@MBEPBUAFX_MSGMAP@@XZ 004c8fc0 f   WebMindOptions.obj
 0001:000c7fe0       ?CreateObject@CStartProp@@SGPAVCObject@@XZ 004c8fe0 f   WebMindOptions.obj
 0001:000c8050       ?GetRuntimeClass@CStartProp@@UBEPAUCRuntimeClass@@XZ 004c9050 f   WebMindOptions.obj
 0001:000c8070       ??0CStartProp@@QAE@XZ      004c9070 f   WebMindOptions.obj
 0001:000c8100       ??_ECStartProp@@UAEPAXI@Z  004c9100 f i WebMindOptions.obj
 0001:000c8100       ??_GCStartProp@@UAEPAXI@Z  004c9100 f i WebMindOptions.obj
 0001:000c8140       ??1CStartProp@@UAE@XZ      004c9140 f   WebMindOptions.obj
 0001:000c8170       ?DoDataExchange@CStartProp@@MAEXPAVCDataExchange@@@Z 004c9170 f   WebMindOptions.obj
 0001:000c8260       ?GetMessageMap@CStartProp@@MBEPBUAFX_MSGMAP@@XZ 004c9260 f   WebMindOptions.obj
 0001:000c8280       ?CreateObject@CDeleteProp@@SGPAVCObject@@XZ 004c9280 f   WebMindOptions.obj
 0001:000c82f0       ?GetRuntimeClass@CDeleteProp@@UBEPAUCRuntimeClass@@XZ 004c92f0 f   WebMindOptions.obj
 0001:000c8310       ??0CDeleteProp@@QAE@XZ     004c9310 f   WebMindOptions.obj
 0001:000c8390       ??_ECDeleteProp@@UAEPAXI@Z 004c9390 f i WebMindOptions.obj
 0001:000c8390       ??_GCDeleteProp@@UAEPAXI@Z 004c9390 f i WebMindOptions.obj
 0001:000c83d0       ??1CDeleteProp@@UAE@XZ     004c93d0 f   WebMindOptions.obj
 0001:000c8440       ?DoDataExchange@CDeleteProp@@MAEXPAVCDataExchange@@@Z 004c9440 f   WebMindOptions.obj
 0001:000c8490       ?GetMessageMap@CDeleteProp@@MBEPBUAFX_MSGMAP@@XZ 004c9490 f   WebMindOptions.obj
 0001:000c84b0       ?OnDelete@CDeleteProp@@IAEXXZ 004c94b0 f   WebMindOptions.obj
 0001:000c8520       ?OnDeleteall@CDeleteProp@@IAEXXZ 004c9520 f   WebMindOptions.obj
 0001:000c8550       ?OnDeleteSearch@CDeleteProp@@IAEXXZ 004c9550 f   WebMindOptions.obj
 0001:000c85c0       ?OnDeleteallSearch@CDeleteProp@@IAEXXZ 004c95c0 f   WebMindOptions.obj
 0001:000c85e0       ?OnInitDialog@CDeleteProp@@MAEHXZ 004c95e0 f   WebMindOptions.obj
 0001:000c88f0       ?OnOK@CDeleteProp@@UAEXXZ  004c98f0 f   WebMindOptions.obj
 0001:000c8ab0       ?CreateObject@CStatusBarProp@@SGPAVCObject@@XZ 004c9ab0 f   WebMindOptions.obj
 0001:000c8b20       ?GetRuntimeClass@CStatusBarProp@@UBEPAUCRuntimeClass@@XZ 004c9b20 f   WebMindOptions.obj
 0001:000c8b40       ??0CStatusBarProp@@QAE@XZ  004c9b40 f   WebMindOptions.obj
 0001:000c8bc0       ??_GCStatusBarProp@@UAEPAXI@Z 004c9bc0 f i WebMindOptions.obj
 0001:000c8bc0       ??_ECStatusBarProp@@UAEPAXI@Z 004c9bc0 f i WebMindOptions.obj
 0001:000c8c00       ??1CStatusBarProp@@UAE@XZ  004c9c00 f   WebMindOptions.obj
 0001:000c8c60       ?DoDataExchange@CStatusBarProp@@MAEXPAVCDataExchange@@@Z 004c9c60 f   WebMindOptions.obj
 0001:000c8ca0       ?GetMessageMap@CStatusBarProp@@MBEPBUAFX_MSGMAP@@XZ 004c9ca0 f   WebMindOptions.obj
 0001:000c8cc0       ?CreateObject@CConfirmProp@@SGPAVCObject@@XZ 004c9cc0 f   WebMindOptions.obj
 0001:000c8d30       ?GetRuntimeClass@CConfirmProp@@UBEPAUCRuntimeClass@@XZ 004c9d30 f   WebMindOptions.obj
 0001:000c8d50       ??0CConfirmProp@@QAE@XZ    004c9d50 f   WebMindOptions.obj
 0001:000c8dc0       ??_GCConfirmProp@@UAEPAXI@Z 004c9dc0 f i WebMindOptions.obj
 0001:000c8dc0       ??_ECConfirmProp@@UAEPAXI@Z 004c9dc0 f i WebMindOptions.obj
 0001:000c8e00       ??1CConfirmProp@@UAE@XZ    004c9e00 f   WebMindOptions.obj
 0001:000c8e30       ?DoDataExchange@CConfirmProp@@MAEXPAVCDataExchange@@@Z 004c9e30 f   WebMindOptions.obj
 0001:000c8ed0       ?GetMessageMap@CConfirmProp@@MBEPBUAFX_MSGMAP@@XZ 004c9ed0 f   WebMindOptions.obj
 0001:000c8ef0       ?OnEdit@CDeleteProp@@IAEXXZ 004c9ef0 f   WebMindOptions.obj
 0001:000c9050       ?OnEditSearch@CDeleteProp@@IAEXXZ 004ca050 f   WebMindOptions.obj
 0001:000c91a0       ?OnDblclkList@CDeleteProp@@IAEXPAUtagNMHDR@@PAJ@Z 004ca1a0 f   WebMindOptions.obj
 0001:000c91d0       ?OnDblclkList2@CDeleteProp@@IAEXPAUtagNMHDR@@PAJ@Z 004ca1d0 f   WebMindOptions.obj
 0001:000c9200       ?CreateObject@CCollectorProp@@SGPAVCObject@@XZ 004ca200 f   WebMindOptions.obj
 0001:000c9270       ?GetRuntimeClass@CCollectorProp@@UBEPAUCRuntimeClass@@XZ 004ca270 f   WebMindOptions.obj
 0001:000c9290       ??0CCollectorProp@@QAE@XZ  004ca290 f   WebMindOptions.obj
 0001:000c9310       ??_GCCollectorProp@@UAEPAXI@Z 004ca310 f i WebMindOptions.obj
 0001:000c9310       ??_ECCollectorProp@@UAEPAXI@Z 004ca310 f i WebMindOptions.obj
 0001:000c9350       ??1CCollectorProp@@UAE@XZ  004ca350 f   WebMindOptions.obj
 0001:000c9380       ?DoDataExchange@CCollectorProp@@MAEXPAVCDataExchange@@@Z 004ca380 f   WebMindOptions.obj
 0001:000c9450       ?GetMessageMap@CCollectorProp@@MBEPBUAFX_MSGMAP@@XZ 004ca450 f   WebMindOptions.obj
 0001:000c9470       ?OnGetLinkPath@CGeneralProp@@IAEXXZ 004ca470 f   WebMindOptions.obj
 0001:000c94c0       ?OnDefaultLinkPath@CGeneralProp@@IAEXXZ 004ca4c0 f   WebMindOptions.obj
 0001:000c9500       ?CreateObject@CDownProp@@SGPAVCObject@@XZ 004ca500 f   WebMindOptions.obj
 0001:000c9570       ?GetRuntimeClass@CDownProp@@UBEPAUCRuntimeClass@@XZ 004ca570 f   WebMindOptions.obj
 0001:000c9590       ??0CDownProp@@QAE@XZ       004ca590 f   WebMindOptions.obj
 0001:000c96b0       ??_ECDownProp@@UAEPAXI@Z   004ca6b0 f i WebMindOptions.obj
 0001:000c96b0       ??_GCDownProp@@UAEPAXI@Z   004ca6b0 f i WebMindOptions.obj
 0001:000c96f0       ??1CDownProp@@UAE@XZ       004ca6f0 f   WebMindOptions.obj
 0001:000c9760       ?DoDataExchange@CDownProp@@MAEXPAVCDataExchange@@@Z 004ca760 f   WebMindOptions.obj
 0001:000c98a0       ?GetMessageMap@CDownProp@@MBEPBUAFX_MSGMAP@@XZ 004ca8a0 f   WebMindOptions.obj
 0001:000c98c0       ?OnInitDialog@CDownProp@@MAEHXZ 004ca8c0 f   WebMindOptions.obj
 0001:000c9ac0       ?OnOK@CDownProp@@UAEXXZ    004caac0 f   WebMindOptions.obj
 0001:000c9d00       ?OnDownEdit@CDownProp@@IAEXXZ 004cad00 f   WebMindOptions.obj
 0001:000c9d80       ?OnSetDefault@COtherProp@@IAEXXZ 004cad80 f   WebMindOptions.obj
 0001:000c9da0       ?CreateObject@CTabStyleProp@@SGPAVCObject@@XZ 004cada0 f   WebMindOptions.obj
 0001:000c9e10       ?GetRuntimeClass@CTabStyleProp@@UBEPAUCRuntimeClass@@XZ 004cae10 f   WebMindOptions.obj
 0001:000c9e30       ??0CTabStyleProp@@QAE@XZ   004cae30 f   WebMindOptions.obj
 0001:000c9ec0       ??_ECTabStyleProp@@UAEPAXI@Z 004caec0 f i WebMindOptions.obj
 0001:000c9ec0       ??_GCTabStyleProp@@UAEPAXI@Z 004caec0 f i WebMindOptions.obj
 0001:000c9f00       ??1CTabStyleProp@@UAE@XZ   004caf00 f   WebMindOptions.obj
 0001:000c9f60       ?DoDataExchange@CTabStyleProp@@MAEXPAVCDataExchange@@@Z 004caf60 f   WebMindOptions.obj
 0001:000c9fe0       ?GetMessageMap@CTabStyleProp@@MBEPBUAFX_MSGMAP@@XZ 004cafe0 f   WebMindOptions.obj
 0001:000ca000       ?OnInitDialog@CTabStyleProp@@MAEHXZ 004cb000 f   WebMindOptions.obj
 0001:000ca1c0       ?InsertItem@CTabCtrl@@QAEHHPBDH@Z 004cb1c0 f i WebMindOptions.obj
 0001:000ca1f0       ?OnUnselColor@CTabStyleProp@@IAEXXZ 004cb1f0 f   WebMindOptions.obj
 0001:000ca2d0       ?GetColor@CColorDialog@@QBEKXZ 004cb2d0 f i WebMindOptions.obj
 0001:000ca2f0       ??1CColorDialog@@UAE@XZ    004cb2f0 f i WebMindOptions.obj
 0001:000ca310       ?OnUnselFontColor@CTabStyleProp@@IAEXXZ 004cb310 f   WebMindOptions.obj
 0001:000ca3f0       ?OnSelFontColor@CTabStyleProp@@IAEXXZ 004cb3f0 f   WebMindOptions.obj
 0001:000ca4d0       ?OnDefaultColor@CTabStyleProp@@IAEXXZ 004cb4d0 f   WebMindOptions.obj
 0001:000ca560       ?OnStyleNt@CTabStyleProp@@IAEXXZ 004cb560 f   WebMindOptions.obj
 0001:000ca5a0       ?OnTabTop@CTabStyleProp@@IAEXXZ 004cb5a0 f   WebMindOptions.obj
 0001:000ca5e0       ?OnSepColor@CTabStyleProp@@IAEXXZ 004cb5e0 f   WebMindOptions.obj
 0001:000ca6c0       ?OnDeleteCurrent@CDeleteProp@@IAEXXZ 004cb6c0 f   WebMindOptions.obj
 0001:000ca750       ?OnDeleteCurrentSearch@CDeleteProp@@IAEXXZ 004cb750 f   WebMindOptions.obj
 0001:000ca7d0       ?CreateObject@CFtpProp@@SGPAVCObject@@XZ 004cb7d0 f   WebMindOptions.obj
 0001:000ca840       ?GetRuntimeClass@CFtpProp@@UBEPAUCRuntimeClass@@XZ 004cb840 f   WebMindOptions.obj
 0001:000ca860       ??0CFtpProp@@QAE@XZ        004cb860 f   WebMindOptions.obj
 0001:000ca8f0       ??_GCFtpProp@@UAEPAXI@Z    004cb8f0 f i WebMindOptions.obj
 0001:000ca8f0       ??_ECFtpProp@@UAEPAXI@Z    004cb8f0 f i WebMindOptions.obj
 0001:000ca930       ??1CFtpProp@@UAE@XZ        004cb930 f   WebMindOptions.obj
 0001:000ca990       ?DoDataExchange@CFtpProp@@MAEXPAVCDataExchange@@@Z 004cb990 f   WebMindOptions.obj
 0001:000ca9e0       ?GetMessageMap@CFtpProp@@MBEPBUAFX_MSGMAP@@XZ 004cb9e0 f   WebMindOptions.obj
 0001:000caa00       ?OnBrowse@CFtpProp@@IAEXXZ 004cba00 f   WebMindOptions.obj
 0001:000cab10       ?OnInitDialog@CFtpProp@@MAEHXZ 004cbb10 f   WebMindOptions.obj
 0001:000cab60       ?OnFtpOpen@CFtpProp@@IAEXXZ 004cbb60 f   WebMindOptions.obj
 0001:000cab90       ?SetOpenTypeState@CFtpProp@@QAEXXZ 004cbb90 f   WebMindOptions.obj
 0001:000cabf0       ?OnInitDialog@CCollectorProp@@MAEHXZ 004cbbf0 f   WebMindOptions.obj
 0001:000cac40       ?OnInitDialog@CConfirmProp@@MAEHXZ 004cbc40 f   WebMindOptions.obj
 0001:000cac90       ?OnInitDialog@CMenuProp@@MAEHXZ 004cbc90 f   WebMindOptions.obj
 0001:000cacf0       ?SetRange@CSpinButtonCtrl@@QAEXHH@Z 004cbcf0 f i WebMindOptions.obj
 0001:000cad40       ?OnInitDialog@CSaveProp@@MAEHXZ 004cbd40 f   WebMindOptions.obj
 0001:000cad90       ?OnInitDialog@CStartProp@@MAEHXZ 004cbd90 f   WebMindOptions.obj
 0001:000cade0       ?OnInitDialog@CStatusBarProp@@MAEHXZ 004cbde0 f   WebMindOptions.obj
 0001:000cae30       ?OnInitDialog@CTabProp@@MAEHXZ 004cbe30 f   WebMindOptions.obj
 0001:000cafb0       ?OnOK@CTabProp@@UAEXXZ     004cbfb0 f   WebMindOptions.obj
 0001:000cb020       ?OnInitDialog@CWindowProp@@MAEHXZ 004cc020 f   WebMindOptions.obj
 0001:000cb080       ?GetUpperBound@?$CArray@PAVCGesture@@PAV1@@@QBEHXZ 004cc080 f i WebMindOptions.obj
 0001:000cb0a0       ?GetAt@?$CArray@PAVCGesture@@PAV1@@@QBEPAVCGesture@@H@Z 004cc0a0 f i WebMindOptions.obj
 0001:000cb0d0       ?Add@?$CArray@PAVCGesture@@PAV1@@@QAEHPAVCGesture@@@Z 004cc0d0 f i WebMindOptions.obj
 0001:000cb110       ?SetAtGrow@?$CArray@PAVCGesture@@PAV1@@@QAEXHPAVCGesture@@@Z 004cc110 f i WebMindOptions.obj
 0001:000cb210       ?CreateObject@CWebMindView@@SGPAVCObject@@XZ 004cc210 f   WebMindView.obj
 0001:000cb280       ?GetRuntimeClass@CWebMindView@@UBEPAUCRuntimeClass@@XZ 004cc280 f   WebMindView.obj
 0001:000cb2a0       ?GetMessageMap@CWebMindView@@MBEPBUAFX_MSGMAP@@XZ 004cc2a0 f   WebMindView.obj
 0001:000cb2c0       ?SetSpecialProperty@CWebMindView@@QAEXK@Z 004cc2c0 f   WebMindView.obj
 0001:000cb300       ?SetDefaultProperty@CWebMindView@@QAEXXZ 004cc300 f   WebMindView.obj
 0001:000cb330       ?SetFullProperty@CWebMindView@@QAEXXZ 004cc330 f   WebMindView.obj
 0001:000cb380       ??0CWebMindView@@QAE@XZ       004cc380 f   WebMindView.obj
 0001:000cb6c0       ??_GCWebMindView@@UAEPAXI@Z   004cc6c0 f i WebMindView.obj
 0001:000cb6c0       ??_ECWebMindView@@UAEPAXI@Z   004cc6c0 f i WebMindView.obj
 0001:000cb700       ??1CWebMindView@@UAE@XZ       004cc700 f   WebMindView.obj
 0001:000cb900       ?PreCreateWindow@CWebMindView@@UAEHAAUtagCREATESTRUCTA@@@Z 004cc900 f   WebMindView.obj
 0001:000cb980       ?OnInitialUpdate@CWebMindView@@UAEXHPBD@Z 004cc980 f   WebMindView.obj
 0001:000cbad0       ?OnTitleChange@CWebMindView@@UAEXPBD@Z 004ccad0 f   WebMindView.obj
 0001:000cbdb0       ?WBShowScrollBar@@YAXPAVCWebMindView@@@Z 004ccdb0 f   WebMindView.obj
 0001:000cbf10       ?OnDocumentComplete@CWebMindView@@UAEXPBD@Z 004ccf10 f   WebMindView.obj
 0001:000ccf30       ?getRepository@CMainFrame@@QAEPAVCPageRepository@@XZ 004cdf30 f i WebMindView.obj
 0001:000ccf50       ?SetbeInUse@CWebMindView@@QAEXH@Z 004cdf50 f   WebMindView.obj
 0001:000ccf80       ?OnBeforeNavigate2@CWebMindView@@UAEXPBDK0H0PAH@Z 004cdf80 f   WebMindView.obj
 0001:000ce8c0       ?OnGoBack@CWebMindView@@IAEXXZ 004cf8c0 f   WebMindView.obj
 0001:000ce8f0       ?OnGoForward@CWebMindView@@IAEXXZ 004cf8f0 f   WebMindView.obj
 0001:000ce920       ?OnNewWindow2@CWebMindView@@UAEXPAPAUIDispatch@@PAH@Z 004cf920 f   WebMindView.obj
 0001:000cf8b0       ?OnProgressChange@CWebMindView@@UAEXJJ@Z 004d08b0 f   WebMindView.obj
 0001:000cfcf0       ?OnEditCopy@CWebMindView@@QAEXXZ 004d0cf0 f   WebMindView.obj
 0001:000cfd20       ?OnEditCut@CWebMindView@@IAEXXZ 004d0d20 f   WebMindView.obj
 0001:000cfd50       ?OnEditFind@CWebMindView@@IAEXXZ 004d0d50 f   WebMindView.obj
 0001:000cfd80       ?OnEditPaste@CWebMindView@@IAEXXZ 004d0d80 f   WebMindView.obj
 0001:000cfdb0       ?OnEditSelectAll@CWebMindView@@IAEXXZ 004d0db0 f   WebMindView.obj
 0001:000cfde0       ?OnStatusTextChange@CWebMindView@@UAEXPBD@Z 004d0de0 f   WebMindView.obj
 0001:000d0100       ?OnAmbientProperty@CWebMindView@@UAEHPAVCOleControlSite@@JPAUtagVARIANT@@@Z 004d1100 f   WebMindView.obj
 0001:000d0170       ?OnOptionsLoadimage@CWebMindView@@IAEXXZ 004d1170 f   WebMindView.obj
 0001:000d01c0       ?OnUpdateOptions@CWebMindView@@IAEXPAVCCmdUI@@@Z 004d11c0 f   WebMindView.obj
 0001:000d0390       ?OnOptionsAllowscripts@CWebMindView@@IAEXXZ 004d1390 f   WebMindView.obj
 0001:000d03e0       ?OnOptionsLoadsounds@CWebMindView@@IAEXXZ 004d13e0 f   WebMindView.obj
 0001:000d0430       ?OnOptionsLoadvideos@CWebMindView@@IAEXXZ 004d1430 f   WebMindView.obj
 0001:000d0480       ?OnOptionsUseWebp@CWebMindView@@IAEXXZ 004d1480 f   WebMindView.obj
 0001:000d0580       ?OnUpdateOptionsUseWebp@CWebMindView@@IAEXPAVCCmdUI@@@Z 004d1580 f   WebMindView.obj
 0001:000d05f0       ?OnOptionsAllowactivex@CWebMindView@@IAEXXZ 004d15f0 f   WebMindView.obj
 0001:000d0640       ?OnOptionsAllowjavaapplet@CWebMindView@@IAEXXZ 004d1640 f   WebMindView.obj
 0001:000d0690       ?OnCommandStateChange@CWebMindView@@UAEXJH@Z 004d1690 f   WebMindView.obj
 0001:000d06d0       ?OnUpdateGoBack@CWebMindView@@IAEXPAVCCmdUI@@@Z 004d16d0 f   WebMindView.obj
 0001:000d0740       ?OnUpdateGoForward@CWebMindView@@IAEXPAVCCmdUI@@@Z 004d1740 f   WebMindView.obj
 0001:000d07b0       ?ResizeSibling@@YAXPAVCWebMindView@@@Z 004d17b0 f   WebMindView.obj
 0001:000d0a10       ?OnSize@CWebMindView@@IAEXIHH@Z 004d1a10 f   WebMindView.obj
 0001:000d0c70       ?OnUpdateViewFonts@CWebMindView@@IAEXPAVCCmdUI@@@Z 004d1c70 f   WebMindView.obj
 0001:000d0cc0       ?ToNavigate@CWebMindView@@QAEXPBDK00PAXKH@Z 004d1cc0 f   WebMindView.obj
 0001:000d1100       ?OnParentNotify@CWebMindView@@IAEXIJ@Z 004d2100 f   WebMindView.obj
 0001:000d1460       ?WBScrollHPage@CWebMindView@@QAEXH@Z 004d2460 f   WebMindView.obj
 0001:000d1600       ?WBScrollBy@CWebMindView@@QAEXJJ@Z 004d2600 f   WebMindView.obj
 0001:000d1730       ?OnClose@CWebMindView@@IAEXXZ 004d2730 f   WebMindView.obj
 0001:000d1790       ?ChangeProperty@CWebMindView@@QAEXXZ 004d2790 f   WebMindView.obj
 0001:000d1850       ?OnNavigateComplete2@CWebMindView@@UAEXPBD@Z 004d2850 f   WebMindView.obj
 0001:000d1c70       ?OnFileSaveAs@CWebMindView@@IAEXXZ 004d2c70 f   WebMindView.obj
 0001:000d1ca0       ?OnFileSavehtml@CWebMindView@@IAEXXZ 004d2ca0 f   WebMindView.obj
 0001:000d1cd0       ?OnFilePrintSetup@CWebMindView@@IAEXXZ 004d2cd0 f   WebMindView.obj
 0001:000d1cf0       ?OnFileProperty@CWebMindView@@IAEXXZ 004d2cf0 f   WebMindView.obj
 0001:000d1d10       ?ExecCommand@CWebMindView@@QAEXK@Z 004d2d10 f   WebMindView.obj
 0001:000d1d90       ?OnRButtonUp@CWebMindView@@IAEXIVCPoint@@@Z 004d2d90 f   WebMindView.obj
 0001:000d1f60       ?OnMouseMove@CWebMindView@@IAEXIVCPoint@@@Z 004d2f60 f   WebMindView.obj
 0001:000d20b0       ?PushMouseGesture@CWebMindView@@AAEXD@Z 004d30b0 f   WebMindView.obj
 0001:000d2420       ?MoveDirection@CWebMindView@@QAEHAAVCPoint@@PAD@Z 004d3420 f   WebMindView.obj
 0001:000d2520       ?GetSortSaveFileName@CWebMindView@@QAE?AVCString@@AAV2@@Z 004d3520 f   WebMindView.obj
 0001:000d2fb0       ?OnFileAutoSave@CWebMindView@@IAEXXZ 004d3fb0 f   WebMindView.obj
 0001:000d3d20       ?OnLButtonUp@CWebMindView@@IAEXIVCPoint@@@Z 004d4d20 f   WebMindView.obj
 0001:000d3d70       ?MouseAction@CWebMindView@@QAEHH@Z 004d4d70 f   WebMindView.obj
 0001:000d3df0       ?GetPointUrl@CWebMindView@@QAE?AVCString@@UtagPOINT@@@Z 004d4df0 f   WebMindView.obj
 0001:000d4000       ?OpenLinkUnderMouse@CWebMindView@@QAEHH@Z 004d5000 f   WebMindView.obj
 0001:000d45d0       ?VScrollPageUp@CWebMindView@@QAEXXZ 004d55d0 f   WebMindView.obj
 0001:000d4600       ?VScrollPageDown@CWebMindView@@QAEXXZ 004d5600 f   WebMindView.obj
 0001:000d4630       ?PowerRefresh@CWebMindView@@QAEXXZ 004d5630 f   WebMindView.obj
 0001:000d48b0       ?OnViewPagesize50@CWebMindView@@IAEXXZ 004d58b0 f   WebMindView.obj
 0001:000d4900       ?OnViewPagesize100@CWebMindView@@IAEXXZ 004d5900 f   WebMindView.obj
 0001:000d4950       ?OnViewPagesize200@CWebMindView@@IAEXXZ 004d5950 f   WebMindView.obj
 0001:000d49a0       ?OnViewPagesizeAdd10@CWebMindView@@IAEXXZ 004d59a0 f   WebMindView.obj
 0001:000d49f0       ?OnViewPagesizeDec10@CWebMindView@@IAEXXZ 004d59f0 f   WebMindView.obj
 0001:000d4a40       ?OnFileImportExport@CWebMindView@@IAEXXZ 004d5a40 f   WebMindView.obj
 0001:000d4ac0       ??0CFindWnd@@QAE@PAUHWND__@@PBD@Z 004d5ac0 f i WebMindView.obj
 0001:000d4b00       ?FindChildClassHwnd@CFindWnd@@CGHPAUHWND__@@J@Z 004d5b00 f i WebMindView.obj
 0001:000d4b60       ?OnToolAnnotate@CWebMindView@@IAEXXZ 004d5b60 f   WebMindView.obj
 0001:000d4d20       ?releaseMemory@CMainFrame@@QAEXXZ 004d5d20 f i WebMindView.obj
 0001:000d4d50       ?OnToolSuggest@CWebMindView@@IAEXXZ 004d5d50 f   WebMindView.obj
 0001:000d4e50       ?GetbeInUse@CWebMindView@@QAEHXZ 004d5e50 f   WebMindView.obj
 0001:000d4e70       ?GetHTMLText@CWebMindView@@QAEXAAVCString@@@Z 004d5e70 f   WebMindView.obj
 0001:000d4fb0       ?GetLocationURL@CWebMindView@@QAEXAAVCString@@@Z 004d5fb0 f   WebMindView.obj
 0001:000d5050       ?GetLocationURL@CWebMindView@@QAE?AVCString@@XZ 004d6050 f   WebMindView.obj
 0001:000d50e0       ?OnDialogSuggest@CWebMindView@@IAEXXZ 004d60e0 f   WebMindView.obj
 0001:000d5100       ?OnFileClose@CWebMindView@@IAEXXZ 004d6100 f   WebMindView.obj
 0001:000d51f0       ?GetDocument@CView@@QBEPAVCDocument@@XZ 004d61f0 f i WebMindView.obj
 0001:000d5210       ??A?$map@VCString@@V1@U?$less@VCString@@@std@@V?$allocator@VCString@@@3@@std@@QAEAAVCString@@ABV2@@Z 004d6210 f i WebMindView.obj
 0001:000d52c0       ??1?$pair@$$CBVCString@@V1@@std@@QAE@XZ 004d62c0 f i WebMindView.obj
 0001:000d5320       ?insert@?$map@VCString@@V1@U?$less@VCString@@@std@@V?$allocator@VCString@@@3@@std@@QAE?AU?$pair@Viterator@?$_Tree@VCString@@U?$pair@$$CBVCString@@V1@@std@@U_Kfn@?$map@VCString@@V1@U?$less@VCString@@@std@@V?$allocator@VCString@@@3@@3@U?$less@VCString@@@3@V?$allocator@VCString@@@3@@std@@_N@2@ABU?$pair@$$CBVCString@@V1@@2@@Z 004d6320 f i WebMindView.obj
 0001:000d5370       ??0?$pair@$$CBVCString@@V1@@std@@QAE@ABVCString@@0@Z 004d6370 f i WebMindView.obj
 0001:000d53d0       ??Diterator@?$_Tree@VCString@@U?$pair@$$CBVCString@@V1@@std@@U_Kfn@?$map@VCString@@V1@U?$less@VCString@@@std@@V?$allocator@VCString@@@3@@3@U?$less@VCString@@@3@V?$allocator@VCString@@@3@@std@@QBEAAU?$pair@$$CBVCString@@V1@@2@XZ 004d63d0 f i WebMindView.obj
 0001:000d5400       ?_Value@?$_Tree@VCString@@U?$pair@$$CBVCString@@V1@@std@@U_Kfn@?$map@VCString@@V1@U?$less@VCString@@@std@@V?$allocator@VCString@@@3@@3@U?$less@VCString@@@3@V?$allocator@VCString@@@3@@std@@KAAAU?$pair@$$CBVCString@@V1@@2@PAU_Node@12@@Z 004d6400 f i WebMindView.obj
 0001:000d5420       ?insert@?$_Tree@VCString@@U?$pair@$$CBVCString@@V1@@std@@U_Kfn@?$map@VCString@@V1@U?$less@VCString@@@std@@V?$allocator@VCString@@@3@@3@U?$less@VCString@@@3@V?$allocator@VCString@@@3@@std@@QAE?AU?$pair@Viterator@?$_Tree@VCString@@U?$pair@$$CBVCString@@V1@@std@@U_Kfn@?$map@VCString@@V1@U?$less@VCString@@@std@@V?$allocator@VCString@@@3@@3@U?$less@VCString@@@3@V?$allocator@VCString@@@3@@std@@_N@2@ABU?$pair@$$CBVCString@@V1@@2@@Z 004d6420 f i WebMindView.obj
 0001:000d5630       ??0?$pair@Viterator@?$_Tree@VCString@@U?$pair@$$CBVCString@@V1@@std@@U_Kfn@?$map@VCString@@V1@U?$less@VCString@@@std@@V?$allocator@VCString@@@3@@3@U?$less@VCString@@@3@V?$allocator@VCString@@@3@@std@@_N@std@@QAE@ABViterator@?$_Tree@VCString@@U?$pair@$$CBVCString@@V1@@std@@U_Kfn@?$map@VCString@@V1@U?$less@VCString@@@std@@V?$allocator@VCString@@@3@@3@U?$less@VCString@@@3@V?$allocator@VCString@@@3@@1@AB_N@Z 004d6630 f i WebMindView.obj
 0001:000d5660       ??R_Kfn@?$map@VCString@@V1@U?$less@VCString@@@std@@V?$allocator@VCString@@@3@@std@@QBEABVCString@@ABU?$pair@$$CBVCString@@V1@@2@@Z 004d6660 f i WebMindView.obj
 0001:000d5680       ?_Key@?$_Tree@VCString@@U?$pair@$$CBVCString@@V1@@std@@U_Kfn@?$map@VCString@@V1@U?$less@VCString@@@std@@V?$allocator@VCString@@@3@@3@U?$less@VCString@@@3@V?$allocator@VCString@@@3@@std@@KAABVCString@@PAU_Node@12@@Z 004d6680 f i WebMindView.obj
 0001:000d56b0       ?_Left@?$_Tree@VCString@@U?$pair@$$CBVCString@@V1@@std@@U_Kfn@?$map@VCString@@V1@U?$less@VCString@@@std@@V?$allocator@VCString@@@3@@3@U?$less@VCString@@@3@V?$allocator@VCString@@@3@@std@@KAAAPAU_Node@12@PAU312@@Z 004d66b0 f i WebMindView.obj
 0001:000d56d0       ?_Right@?$_Tree@VCString@@U?$pair@$$CBVCString@@V1@@std@@U_Kfn@?$map@VCString@@V1@U?$less@VCString@@@std@@V?$allocator@VCString@@@3@@3@U?$less@VCString@@@3@V?$allocator@VCString@@@3@@std@@KAAAPAU_Node@12@PAU312@@Z 004d66d0 f i WebMindView.obj
 0001:000d56f0       ?begin@?$_Tree@VCString@@U?$pair@$$CBVCString@@V1@@std@@U_Kfn@?$map@VCString@@V1@U?$less@VCString@@@std@@V?$allocator@VCString@@@3@@3@U?$less@VCString@@@3@V?$allocator@VCString@@@3@@std@@QAE?AViterator@12@XZ 004d66f0 f i WebMindView.obj
 0001:000d5730       ?_Insert@?$_Tree@VCString@@U?$pair@$$CBVCString@@V1@@std@@U_Kfn@?$map@VCString@@V1@U?$less@VCString@@@std@@V?$allocator@VCString@@@3@@3@U?$less@VCString@@@3@V?$allocator@VCString@@@3@@std@@IAE?AViterator@12@PAU_Node@12@0ABU?$pair@$$CBVCString@@V1@@2@@Z 004d6730 f i WebMindView.obj
 0001:000d5bc0       ?_Root@?$_Tree@VCString@@U?$pair@$$CBVCString@@V1@@std@@U_Kfn@?$map@VCString@@V1@U?$less@VCString@@@std@@V?$allocator@VCString@@@3@@3@U?$less@VCString@@@3@V?$allocator@VCString@@@3@@std@@IAEAAPAU_Node@12@XZ 004d6bc0 f i WebMindView.obj
 0001:000d5bf0       ?_Mynode@const_iterator@?$_Tree@VCString@@U?$pair@$$CBVCString@@V1@@std@@U_Kfn@?$map@VCString@@V1@U?$less@VCString@@@std@@V?$allocator@VCString@@@3@@3@U?$less@VCString@@@3@V?$allocator@VCString@@@3@@std@@QBEPAU_Node@23@XZ 004d6bf0 f i WebMindView.obj
 0001:000d5c10       ??0iterator@?$_Tree@VCString@@U?$pair@$$CBVCString@@V1@@std@@U_Kfn@?$map@VCString@@V1@U?$less@VCString@@@std@@V?$allocator@VCString@@@3@@3@U?$less@VCString@@@3@V?$allocator@VCString@@@3@@std@@QAE@PAU_Node@12@@Z 004d6c10 f i WebMindView.obj
 0001:000d5c40       ??Fiterator@?$_Tree@VCString@@U?$pair@$$CBVCString@@V1@@std@@U_Kfn@?$map@VCString@@V1@U?$less@VCString@@@std@@V?$allocator@VCString@@@3@@3@U?$less@VCString@@@3@V?$allocator@VCString@@@3@@std@@QAEAAV012@XZ 004d6c40 f i WebMindView.obj
 0001:000d5c60       ??8iterator@?$_Tree@VCString@@U?$pair@$$CBVCString@@V1@@std@@U_Kfn@?$map@VCString@@V1@U?$less@VCString@@@std@@V?$allocator@VCString@@@3@@3@U?$less@VCString@@@3@V?$allocator@VCString@@@3@@std@@QBE_NABV012@@Z 004d6c60 f i WebMindView.obj
 0001:000d5c90       ?_Color@?$_Tree@VCString@@U?$pair@$$CBVCString@@V1@@std@@U_Kfn@?$map@VCString@@V1@U?$less@VCString@@@std@@V?$allocator@VCString@@@3@@3@U?$less@VCString@@@3@V?$allocator@VCString@@@3@@std@@KAAAW4_Redbl@12@PAU_Node@12@@Z 004d6c90 f i WebMindView.obj
 0001:000d5cb0       ?_Parent@?$_Tree@VCString@@U?$pair@$$CBVCString@@V1@@std@@U_Kfn@?$map@VCString@@V1@U?$less@VCString@@@std@@V?$allocator@VCString@@@3@@3@U?$less@VCString@@@3@V?$allocator@VCString@@@3@@std@@KAAAPAU_Node@12@PAU312@@Z 004d6cb0 f i WebMindView.obj
 0001:000d5cd0       ?_Lmost@?$_Tree@VCString@@U?$pair@$$CBVCString@@V1@@std@@U_Kfn@?$map@VCString@@V1@U?$less@VCString@@@std@@V?$allocator@VCString@@@3@@3@U?$less@VCString@@@3@V?$allocator@VCString@@@3@@std@@IAEAAPAU_Node@12@XZ 004d6cd0 f i WebMindView.obj
 0001:000d5d00       ?_Lrotate@?$_Tree@VCString@@U?$pair@$$CBVCString@@V1@@std@@U_Kfn@?$map@VCString@@V1@U?$less@VCString@@@std@@V?$allocator@VCString@@@3@@3@U?$less@VCString@@@3@V?$allocator@VCString@@@3@@std@@IAEXPAU_Node@12@@Z 004d6d00 f i WebMindView.obj
 0001:000d5e30       ?_Rmost@?$_Tree@VCString@@U?$pair@$$CBVCString@@V1@@std@@U_Kfn@?$map@VCString@@V1@U?$less@VCString@@@std@@V?$allocator@VCString@@@3@@3@U?$less@VCString@@@3@V?$allocator@VCString@@@3@@std@@IAEAAPAU_Node@12@XZ 004d6e30 f i WebMindView.obj
 0001:000d5e60       ?_Rrotate@?$_Tree@VCString@@U?$pair@$$CBVCString@@V1@@std@@U_Kfn@?$map@VCString@@V1@U?$less@VCString@@@std@@V?$allocator@VCString@@@3@@3@U?$less@VCString@@@3@V?$allocator@VCString@@@3@@std@@IAEXPAU_Node@12@@Z 004d6e60 f i WebMindView.obj
 0001:000d5f90       ?_Buynode@?$_Tree@VCString@@U?$pair@$$CBVCString@@V1@@std@@U_Kfn@?$map@VCString@@V1@U?$less@VCString@@@std@@V?$allocator@VCString@@@3@@3@U?$less@VCString@@@3@V?$allocator@VCString@@@3@@std@@IAEPAU_Node@12@PAU312@W4_Redbl@12@@Z 004d6f90 f i WebMindView.obj
 0001:000d5fe0       ?_Consval@?$_Tree@VCString@@U?$pair@$$CBVCString@@V1@@std@@U_Kfn@?$map@VCString@@V1@U?$less@VCString@@@std@@V?$allocator@VCString@@@3@@3@U?$less@VCString@@@3@V?$allocator@VCString@@@3@@std@@IAEXPAU?$pair@$$CBVCString@@V1@@2@ABU32@@Z 004d6fe0 f i WebMindView.obj
 0001:000d6010       ??0const_iterator@?$_Tree@VCString@@U?$pair@$$CBVCString@@V1@@std@@U_Kfn@?$map@VCString@@V1@U?$less@VCString@@@std@@V?$allocator@VCString@@@3@@3@U?$less@VCString@@@3@V?$allocator@VCString@@@3@@std@@QAE@PAU_Node@12@@Z 004d7010 f i WebMindView.obj
 0001:000d6030       ?_Dec@const_iterator@?$_Tree@VCString@@U?$pair@$$CBVCString@@V1@@std@@U_Kfn@?$map@VCString@@V1@U?$less@VCString@@@std@@V?$allocator@VCString@@@3@@3@U?$less@VCString@@@3@V?$allocator@VCString@@@3@@std@@QAEXXZ 004d7030 f i WebMindView.obj
 0001:000d6110       ?_Charalloc@?$allocator@VCString@@@std@@QAEPADI@Z 004d7110 f i WebMindView.obj
 0001:000d6140       ?_Max@?$_Tree@VCString@@U?$pair@$$CBVCString@@V1@@std@@U_Kfn@?$map@VCString@@V1@U?$less@VCString@@@std@@V?$allocator@VCString@@@3@@3@U?$less@VCString@@@3@V?$allocator@VCString@@@3@@std@@KAPAU_Node@12@PAU312@@Z 004d7140 f i WebMindView.obj
 0001:000d6180       ?_Construct@std@@YAXPAU?$pair@$$CBVCString@@V1@@1@ABU21@@Z 004d7180 f i WebMindView.obj
 0001:000d6200       ??0?$pair@$$CBVCString@@V1@@std@@QAE@ABU01@@Z 004d7200 f i WebMindView.obj
 0001:000d62b0       ??0CNewDlgBar@@QAE@PAVCWnd@@@Z 004d72b0 f   NewDlgBar.obj
 0001:000d6320       ??_GCNewDlgBar@@UAEPAXI@Z  004d7320 f i NewDlgBar.obj
 0001:000d6320       ??_ECNewDlgBar@@UAEPAXI@Z  004d7320 f i NewDlgBar.obj
 0001:000d6360       ?Create@CNewDlgBar@@UAEHPAVCWnd@@III@Z 004d7360 f   NewDlgBar.obj
 0001:000d63a0       ?Create@CDialogBar@@QAEHPAVCWnd@@III@Z 004d73a0 f i NewDlgBar.obj
 0001:000d63e0       ?OnInitDialog@CNewDlgBar@@IAEHXZ 004d73e0 f   NewDlgBar.obj
 0001:000d65d0       ?GetGrid@CChartAxis@@QBEPAVCChartGrid@@XZ 004d75d0 f i NewDlgBar.obj
 0001:000d65f0       ?GetTitle@CChartCtrl@@QBEPAVCChartTitle@@XZ 004d75f0 f i NewDlgBar.obj
 0001:000d6610       ?SetEdgeType@CChartCtrl@@QAEXI@Z 004d7610 f i NewDlgBar.obj
 0001:000d6640       ?SetBorderColor@CChartCtrl@@QAEXK@Z 004d7640 f i NewDlgBar.obj
 0001:000d6670       ?DoDataExchange@CNewDlgBar@@MAEXPAVCDataExchange@@@Z 004d7670 f   NewDlgBar.obj
 0001:000d66b0       ?GetMessageMap@CNewDlgBar@@MBEPBUAFX_MSGMAP@@XZ 004d76b0 f   NewDlgBar.obj
 0001:000d6810       ?JewellScore@CPageCacheWord@@QAENXZ 004d7810 f   PageCache.obj
 0001:000d68a0       ?calculateTFIDF@CPageCacheWord@@QAEXXZ 004d78a0 f   PageCache.obj
 0001:000d6920       ?computeTFIDFJewell@CPageCacheWord@@QAEXXZ 004d7920 f   PageCache.obj
 0001:000d6970       ?getTFIDFWeight@CPageCacheWord@@QAENXZ 004d7970 f   PageCache.obj
 0001:000d69a0       ?getJewellWeight@CPageCacheWord@@QAENXZ 004d79a0 f   PageCache.obj
 0001:000d69d0       ?dump@CPageCacheWord@@UAEXXZ 004d79d0 f   PageCache.obj
 0001:000d6aa0       ??0CPageCache@@QAE@XZ      004d7aa0 f   PageCache.obj
 0001:000d6cd0       ?key@CPageCache@@UAEHXZ    004d7cd0 f i PageCache.obj
 0001:000d6cf0       ?compare@CPageCache@@UAEHPAVCLilacObject@@@Z 004d7cf0 f i PageCache.obj
 0001:000d6d20       ??_ECPageCache@@UAEPAXI@Z  004d7d20 f i PageCache.obj
 0001:000d6d20       ??_GCPageCache@@UAEPAXI@Z  004d7d20 f i PageCache.obj
 0001:000d6d60       ??1CPageCache@@UAE@XZ      004d7d60 f   PageCache.obj
 0001:000d6f10       ?LoadCache@CPageCache@@QAE_NPBD@Z 004d7f10 f   PageCache.obj
 0001:000d7050       ?SaveCache@CPageCache@@QAEXPBD@Z 004d8050 f   PageCache.obj
 0001:000d7150       ?Release@CPageCache@@QAEXXZ 004d8150 f   PageCache.obj
 0001:000d73b0       ?Load@CPageCache@@QAE_NXZ  004d83b0 f   PageCache.obj
 0001:000d74b0       ?LoadByContent@CPageCache@@QAEXABVCString@@@Z 004d84b0 f   PageCache.obj
 0001:000d7570       ?Load@CPageCache@@QAEXPAUIDispatch@@_N@Z 004d8570 f   PageCache.obj
 0001:000d7640       ?Load@CPageCache@@QAEXPAVCPageDocument@@@Z 004d8640 f   PageCache.obj
 0001:000d7880       ?getName@CFrame@@QAEXAAVCString@@@Z 004d8880 f i PageCache.obj
 0001:000d78b0       ?getTarget@CFrame@@QAEXAAVCString@@@Z 004d88b0 f i PageCache.obj
 0001:000d78e0       ?getSrc@CFrame@@QAEXAAVCString@@@Z 004d88e0 f i PageCache.obj
 0001:000d7910       ?getLastModified@CPageDocument@@QAEXAAVCString@@@Z 004d8910 f i PageCache.obj
 0001:000d7940       ?getBaseURL@CPageDocument@@QAEXAAVCString@@@Z 004d8940 f i PageCache.obj
 0001:000d7970       ?getBaseTarget@CPageDocument@@QAEXAAVCString@@@Z 004d8970 f i PageCache.obj
 0001:000d79a0       ?getDocument@CPageDocument@@QAEPAVCPageTagNode@@XZ 004d89a0 f i PageCache.obj
 0001:000d79c0       ?getFrames@CPageDocument@@QAEPAVList@@XZ 004d89c0 f i PageCache.obj
 0001:000d79e0       ?parseTree@CPageCache@@AAEXPAVCPageTagNode@@@Z 004d89e0 f   PageCache.obj
 0001:000d7bb0       ?getText@CPageTagNode@@QAE_NAAVCString@@@Z 004d8bb0 f i PageCache.obj
 0001:000d7be0       ?buildURL@CPageCache@@AAEXVCString@@AAV2@@Z 004d8be0 f   PageCache.obj
 0001:000d7c70       ?InsertWord@CPageCache@@AAEXPBDHH@Z 004d8c70 f   PageCache.obj
 0001:000d7dc0       ??0CPageCacheWord@@QAE@ABVCString@@H@Z 004d8dc0 f i PageCache.obj
 0001:000d7e50       ?Reset@CPageCacheWord@@QAEXXZ 004d8e50 f i PageCache.obj
 0001:000d7f80       ?increaseTagCnt@CPageCacheWord@@QAEXH@Z 004d8f80 f i PageCache.obj
 0001:000d7fc0       ?setFreq@CPageCacheWord@@QAEXH@Z 004d8fc0 f i PageCache.obj
 0001:000d7fe0       ?key@CPageCacheWord@@UAEHXZ 004d8fe0 f i PageCache.obj
 0001:000d8050       ?compare@CPageCacheWord@@UAEHPAVCLilacObject@@@Z 004d9050 f i PageCache.obj
 0001:000d8090       ?clone@CPageCacheWord@@UAEPAVCLilacObject@@XZ 004d9090 f i PageCache.obj
 0001:000d8160       ??0CPageCacheWord@@QAE@XZ  004d9160 f i PageCache.obj
 0001:000d81d0       ?setTagCnt@CPageCacheWord@@QAEXHH@Z 004d91d0 f i PageCache.obj
 0001:000d8200       ?setWord@CPageCacheWord@@QAEXABVCString@@@Z 004d9200 f i PageCache.obj
 0001:000d8230       ?setWeight@CPageCacheWord@@QAEXN@Z 004d9230 f i PageCache.obj
 0001:000d8260       ??_ECPageCacheWord@@UAEPAXI@Z 004d9260 f i PageCache.obj
 0001:000d8260       ??_GCPageCacheWord@@UAEPAXI@Z 004d9260 f i PageCache.obj
 0001:000d82a0       ??1CPageCacheWord@@UAE@XZ  004d92a0 f i PageCache.obj
 0001:000d8300       ?searchWord@CPageCache@@QAE_NABVCString@@@Z 004d9300 f   PageCache.obj
 0001:000d83f0       ?textProcessBody@CPageCache@@AAEXVCString@@AAH@Z 004d93f0 f   PageCache.obj
 0001:000d84f0       ?textProcessTag@CPageCache@@AAEXVCString@@H@Z 004d94f0 f   PageCache.obj
 0001:000d85f0       ?textProcessURL@CPageCache@@AAEXABVCString@@00@Z 004d95f0 f   PageCache.obj
 0001:000d8760       ?addAnchorWord@CPageCacheURL@@QAEXABVCString@@@Z 004d9760 f i PageCache.obj
 0001:000d8790       ?setURL@CPageCacheURL@@QAEXABVCString@@@Z 004d9790 f i PageCache.obj
 0001:000d87c0       ?setTarget@CPageCacheURL@@QAEXABVCString@@@Z 004d97c0 f i PageCache.obj
 0001:000d87f0       ??0CPageCacheURL@@QAE@XZ   004d97f0 f i PageCache.obj
 0001:000d8870       ?key@CPageCacheURL@@UAEHXZ 004d9870 f i PageCache.obj
 0001:000d88e0       ?compare@CPageCacheURL@@UAEHPAVCLilacObject@@@Z 004d98e0 f i PageCache.obj
 0001:000d8920       ?getURL@CPageCacheURL@@QAEAAVCString@@XZ 004d9920 f i PageCache.obj
 0001:000d8940       ?clone@CPageCacheURL@@UAEPAVCLilacObject@@XZ 004d9940 f i PageCache.obj
 0001:000d8a10       ?dump@CPageCacheURL@@UAEXXZ 004d9a10 f i PageCache.obj
 0001:000d8aa0       ??_GCPageCacheURL@@UAEPAXI@Z 004d9aa0 f i PageCache.obj
 0001:000d8aa0       ??_ECPageCacheURL@@UAEPAXI@Z 004d9aa0 f i PageCache.obj
 0001:000d8ae0       ??1CPageCacheURL@@UAE@XZ   004d9ae0 f i PageCache.obj
 0001:000d8b60       ?extractAnchorText@CPageCache@@AAEXPAVCPageTagNode@@AAVCString@@@Z 004d9b60 f   PageCache.obj
 0001:000d8c70       ?getContent@CPageTagNode@@QAEPAV1@XZ 004d9c70 f i PageCache.obj
 0001:000d8c90       ?getName@CPageTagNode@@QAE_NAAVCString@@@Z 004d9c90 f i PageCache.obj
 0001:000d8cc0       ?tagFactorCalculation@CPageCache@@AAEXPAVCPageTagNode@@@Z 004d9cc0 f   PageCache.obj
 0001:000d8f90       ?getNext@CPageTagNode@@QAEPAV1@XZ 004d9f90 f i PageCache.obj
 0001:000d8fb0       ?InAnchorText@CPageCache@@AAEXVCString@@@Z 004d9fb0 f   PageCache.obj
 0001:000d9140       ?increaseInHyperlink@CPageCacheWord@@QAEXXZ 004da140 f i PageCache.obj
 0001:000d9170       ?inTitleMeta@CPageCache@@AAEXVCString@@H@Z 004da170 f   PageCache.obj
 0001:000d9320       ?setInTitleFlag@CPageCacheWord@@QAEX_N@Z 004da320 f i PageCache.obj
 0001:000d9340       ?setInMetaFlag@CPageCacheWord@@QAEX_N@Z 004da340 f i PageCache.obj
 0001:000d9360       ?computeJewellTFIDF@CPageCache@@QAEXXZ 004da360 f   PageCache.obj
 0001:000d9500       ?setTFIDFWeight@CPageCacheWord@@QAEXN@Z 004da500 f i PageCache.obj
 0001:000d9530       ?setJewellWeight@CPageCacheWord@@QAEXN@Z 004da530 f i PageCache.obj
 0001:000d9560       ?calculateTFIDF@CPageCache@@AAEXXZ 004da560 f   PageCache.obj
 0001:000d9660       ?getWeightIDF@CPageCacheWord@@QAENXZ 004da660 f i PageCache.obj
 0001:000d9680       ?setWeightIDF@CPageCacheWord@@QAEXN@Z 004da680 f i PageCache.obj
 0001:000d96b0       ?serialize@CPageCache@@QAEHAAVCArchive@@@Z 004da6b0 f   PageCache.obj
 0001:000d9de0       ?dump@CPageCache@@UAEXXZ   004dade0 f   PageCache.obj
 0001:000d9e70       ?saveWordURL@CPageCache@@AAEXAAVCArchive@@@Z 004dae70 f   PageCache.obj
 0001:000d9f70       ?serialize@CQueryResult@@QAEHAAVCArchive@@@Z 004daf70 f i PageCache.obj
 0001:000da210       ?serialize@CPageCacheWord@@QAEHAAVCArchive@@@Z 004db210 f i PageCache.obj
 0001:000da410       ?serialize@CPageCacheURL@@QAEHAAVCArchive@@@Z 004db410 f i PageCache.obj
 0001:000da5f0       ?loadWordURL@CPageCache@@AAEHAAVCArchive@@HHHH@Z 004db5f0 f   PageCache.obj
 0001:000daa00       ??0CQueryResult@@QAE@XZ    004dba00 f i PageCache.obj
 0001:000daaf0       ?key@CQueryResult@@UAEHXZ  004dbaf0 f i PageCache.obj
 0001:000dab60       ?compare@CQueryResult@@UAEHPAVCLilacObject@@@Z 004dbb60 f i PageCache.obj
 0001:000daba0       ?clone@CQueryResult@@UAEPAVCLilacObject@@XZ 004dbba0 f i PageCache.obj
 0001:000dac60       ??0CQueryResult@@QAE@ABVCString@@ABVCStringArray@@1_NH@Z 004dbc60 f i PageCache.obj
 0001:000dad60       ?setTitle@CQueryResult@@QAEXABVCString@@@Z 004dbd60 f i PageCache.obj
 0001:000dad90       ?setSnippet@CQueryResult@@QAEXABVCString@@@Z 004dbd90 f i PageCache.obj
 0001:000dadc0       ??_ECQueryResult@@UAEPAXI@Z 004dbdc0 f i PageCache.obj
 0001:000dadc0       ??_GCQueryResult@@UAEPAXI@Z 004dbdc0 f i PageCache.obj
 0001:000dae00       ??1CQueryResult@@UAE@XZ    004dbe00 f i PageCache.obj
 0001:000daee0       ?searchURL@CPageCache@@AAEPAVCPageCacheURL@@ABVCString@@@Z 004dbee0 f   PageCache.obj
 0001:000dafc0       ?SearchURLTarget@CPageCache@@QAE_NABVCString@@AAV2@@Z 004dbfc0 f   PageCache.obj
 0001:000db010       ?getTarget@CPageCacheURL@@QAEAAVCString@@XZ 004dc010 f i PageCache.obj
 0001:000db030       ?locateURL@CPageCache@@QAEPAVCPageCacheURL@@ABVCString@@@Z 004dc030 f   PageCache.obj
 0001:000db060       ??0?$CArray@JAAJ@@QAE@XZ   004dc060 f i PageCache.obj
 0001:000db0b0       ??1?$CArray@JAAJ@@UAE@XZ   004dc0b0 f i PageCache.obj
 0001:000db140       ?Serialize@?$CArray@JAAJ@@UAEXAAVCArchive@@@Z 004dc140 f i PageCache.obj
 0001:000db1b0       ??_G?$CArray@JAAJ@@UAEPAXI@Z 004dc1b0 f i PageCache.obj
 0001:000db1b0       ??_E?$CArray@JAAJ@@UAEPAXI@Z 004dc1b0 f i PageCache.obj
 0001:000db1f0       ?SerializeElements@@YGXAAVCArchive@@PAJH@Z 004dc1f0 f i PageCache.obj
 0001:000db380       ??0CHTMLNode@@QAE@XZ       004dc380 f   PageDocument.obj
 0001:000db3f0       ??1CHTMLNode@@QAE@XZ       004dc3f0 f   PageDocument.obj
 0001:000db410       ?ReleaseChild@CHTMLNode@@QAEXXZ 004dc410 f   PageDocument.obj
 0001:000db490       ??_GCHTMLNode@@QAEPAXI@Z   004dc490 f i PageDocument.obj
 0001:000db4d0       ?ReleaseElement@CHTMLNode@@QAEXXZ 004dc4d0 f   PageDocument.obj
 0001:000db580       ?getContent@CHTMLNode@@QAEPAV1@XZ 004dc580 f i PageDocument.obj
 0001:000db5a0       ?getNext@CHTMLNode@@QAEPAV1@XZ 004dc5a0 f i PageDocument.obj
 0001:000db5c0       ?getName@CHTMLNode@@QAE_NAAVCString@@@Z 004dc5c0 f   PageDocument.obj
 0001:000db620       ?getID@CHTMLNode@@QAE_NAAVCString@@@Z 004dc620 f   PageDocument.obj
 0001:000db680       ?getSourceIndex@CHTMLNode@@QAEJXZ 004dc680 f   PageDocument.obj
 0001:000db6c0       ?getText@CHTMLNode@@QAE_NAAVCString@@@Z 004dc6c0 f   PageDocument.obj
 0001:000db720       ?getAttrVal@CHTMLNode@@QAE_NPBDAAVCString@@@Z 004dc720 f   PageDocument.obj
 0001:000db860       ??0_bstr_t@@QAE@PBD@Z      004dc860 f i PageDocument.obj
 0001:000db8f0       ??1_bstr_t@@QAE@XZ         004dc8f0 f i PageDocument.obj
 0001:000db910       ?copy@_bstr_t@@QBEPAGXZ    004dc910 f i PageDocument.obj
 0001:000db950       ?_Free@_bstr_t@@AAEXXZ     004dc950 f i PageDocument.obj
 0001:000db980       ??0Data_t@_bstr_t@@QAE@PBD@Z 004dc980 f i PageDocument.obj
 0001:000db9e0       ?Release@Data_t@_bstr_t@@QAEKXZ 004dc9e0 f i PageDocument.obj
 0001:000dba40       ??_GData_t@_bstr_t@@AAEPAXI@Z 004dca40 f i PageDocument.obj
 0001:000dba80       ?Copy@Data_t@_bstr_t@@QBEPAGXZ 004dca80 f i PageDocument.obj
 0001:000dbad0       ??1Data_t@_bstr_t@@AAE@XZ  004dcad0 f i PageDocument.obj
 0001:000dbaf0       ?_Free@Data_t@_bstr_t@@AAEXXZ 004dcaf0 f i PageDocument.obj
 0001:000dbb40       ?getColor@CHTMLNode@@QAE_NAAVCString@@@Z 004dcb40 f   PageDocument.obj
 0001:000dbbe0       ?getBGColor@CHTMLNode@@QAE_NAAVCString@@@Z 004dcbe0 f   PageDocument.obj
 0001:000dbc80       ?getFontFamily@CHTMLNode@@QAE_NAAVCString@@@Z 004dcc80 f   PageDocument.obj
 0001:000dbd50       ?getFontSize@CHTMLNode@@QAE_NAAVCString@@@Z 004dcd50 f   PageDocument.obj
 0001:000dbdb0       ?getFontStyle@CHTMLNode@@QAE_NAAVCString@@@Z 004dcdb0 f   PageDocument.obj
 0001:000dbe10       ?getFontWeight@CHTMLNode@@QAE_NAAVCString@@@Z 004dce10 f   PageDocument.obj
 0001:000dbea0       ?getOffsetHeight@CHTMLNode@@QAE_NPAJ@Z 004dcea0 f   PageDocument.obj
 0001:000dbf00       ?getOffsetWidth@CHTMLNode@@QAE_NPAJ@Z 004dcf00 f   PageDocument.obj
 0001:000dbf60       ?getClientHeight@CHTMLNode@@QAE_NPAJ@Z 004dcf60 f   PageDocument.obj
 0001:000dbfc0       ?getClientWidth@CHTMLNode@@QAE_NPAJ@Z 004dcfc0 f   PageDocument.obj
 0001:000dc020       ?InsertNodeAtStart@CHTMLNode@@QAEXPAV1@@Z 004dd020 f   PageDocument.obj
 0001:000dc080       ?InsertNodeAtEnd@CHTMLNode@@QAEXPAV1@@Z 004dd080 f   PageDocument.obj
 0001:000dc0e0       ?InsertNodeAsParent@CHTMLNode@@QAEXPAV1@@Z 004dd0e0 f   PageDocument.obj
 0001:000dc1b0       ?InsertNodeBeforeElement@CHTMLNode@@QAEXPAV1@@Z 004dd1b0 f   PageDocument.obj
 0001:000dc220       ?InsertNodeAfterElement@CHTMLNode@@QAEXPAV1@@Z 004dd220 f   PageDocument.obj
 0001:000dc2a0       ?getFirst@CHTMLNode@@QAEPAV1@PBDH@Z 004dd2a0 f   PageDocument.obj
 0001:000dc380       ?getLast@CHTMLNode@@QAEPAV1@PBD@Z 004dd380 f   PageDocument.obj
 0001:000dc450       ?getPrev@CHTMLNode@@QAEPAV1@XZ 004dd450 f i PageDocument.obj
 0001:000dc470       ?getLast@CHTMLNode@@QAEPAV1@XZ 004dd470 f i PageDocument.obj
 0001:000dc490       ?FindElement@CHTMLNode@@QAEPAV1@J@Z 004dd490 f   PageDocument.obj
 0001:000dc570       ?FindBody@CHTMLNode@@QAEPAV1@XZ 004dd570 f   PageDocument.obj
 0001:000dc660       ?FindTitle@CHTMLNode@@QAEPAV1@XZ 004dd660 f   PageDocument.obj
 0001:000dc750       ?FindMeta@CHTMLNode@@QAEPAV1@XZ 004dd750 f   PageDocument.obj
 0001:000dc840       ??0CPageTagNode@@QAE@XZ    004dd840 f   PageDocument.obj
 0001:000dca00       ??_ECPageTagNode@@UAEPAXI@Z 004dda00 f i PageDocument.obj
 0001:000dca00       ??_GCPageTagNode@@UAEPAXI@Z 004dda00 f i PageDocument.obj
 0001:000dca40       ??1CPageTagNode@@UAE@XZ    004dda40 f   PageDocument.obj
 0001:000dcb80       ?removeChild@CPageTagNode@@QAEXXZ 004ddb80 f   PageDocument.obj
 0001:000dcc00       ?clear@CPageTagNode@@QAEXXZ 004ddc00 f   PageDocument.obj
 0001:000dcc70       ?isInlineTag@CPageTagNode@@IAE_NPBD@Z 004ddc70 f   PageDocument.obj
 0001:000dcd10       ?checkInlineValidText@CPageTagNode@@IAEXXZ 004ddd10 f   PageDocument.obj
 0001:000dcdc0       ?checkNode@CPageTagNode@@QAEXXZ 004dddc0 f i PageDocument.obj
 0001:000dcdf0       ?checkNodeVirtualText@CPageTagNode@@IAEXXZ 004dddf0 f   PageDocument.obj
 0001:000dce90       ?isTextNode@CPageTagNode@@QAE_NXZ 004dde90 f i PageDocument.obj
 0001:000dceb0       ?isVirtualTextNode@CPageTagNode@@QAE_NXZ 004ddeb0 f i PageDocument.obj
 0001:000dced0       ?countSubNode@CPageTagNode@@QAEXXZ 004dded0 f   PageDocument.obj
 0001:000dcf80       ?setCount@CPageTagNode@@QAEXH@Z 004ddf80 f i PageDocument.obj
 0001:000dcfa0       ?getCount@CPageTagNode@@QAEHXZ 004ddfa0 f i PageDocument.obj
 0001:000dcfd0       ?getAttrVal@CPageTagNode@@QAE_NPBDAAVCString@@@Z 004ddfd0 f   PageDocument.obj
 0001:000dd070       ?InsertNodeAtStart@CPageTagNode@@QAEXPAV1@@Z 004de070 f   PageDocument.obj
 0001:000dd0d0       ?InsertNodeAtEnd@CPageTagNode@@QAEXPAV1@@Z 004de0d0 f   PageDocument.obj
 0001:000dd130       ?InsertNodeAsParent@CPageTagNode@@QAEXPAV1@@Z 004de130 f   PageDocument.obj
 0001:000dd200       ?InsertNodeBeforeElement@CPageTagNode@@QAEXPAV1@@Z 004de200 f   PageDocument.obj
 0001:000dd270       ?InsertNodeAfterElement@CPageTagNode@@QAEXPAV1@@Z 004de270 f   PageDocument.obj
 0001:000dd2f0       ?getFirst@CPageTagNode@@QAEPAV1@PBDH@Z 004de2f0 f   PageDocument.obj
 0001:000dd3e0       ?getLast@CPageTagNode@@QAEPAV1@PBD@Z 004de3e0 f   PageDocument.obj
 0001:000dd4b0       ?getPrev@CPageTagNode@@QAEPAV1@XZ 004de4b0 f i PageDocument.obj
 0001:000dd4d0       ?getLast@CPageTagNode@@QAEPAV1@XZ 004de4d0 f i PageDocument.obj
 0001:000dd4f0       ?Find@CPageTagNode@@QAEPAV1@H@Z 004de4f0 f   PageDocument.obj
 0001:000dd560       ?FindBody@CPageTagNode@@QAEPAV1@XZ 004de560 f   PageDocument.obj
 0001:000dd650       ?FindTitle@CPageTagNode@@QAEPAV1@XZ 004de650 f   PageDocument.obj
 0001:000dd740       ?FindMeta@CPageTagNode@@QAEPAV1@XZ 004de740 f   PageDocument.obj
 0001:000dd830       ?serialize@CPageTagNode@@QAEXAAVCArchive@@@Z 004de830 f   PageDocument.obj
 0001:000ddb70       ??0CTagAttrVal@@QAE@ABVCString@@0@Z 004deb70 f i PageDocument.obj
 0001:000ddc10       ??1CTagAttrVal@@UAE@XZ     004dec10 f i PageDocument.obj
 0001:000ddca0       ??_ECTagAttrVal@@UAEPAXI@Z 004deca0 f i PageDocument.obj
 0001:000ddca0       ??_GCTagAttrVal@@UAEPAXI@Z 004deca0 f i PageDocument.obj
 0001:000ddce0       ?getID@CPageTagNode@@QAEHXZ 004dece0 f i PageDocument.obj
 0001:000ddd00       ?checkForResultsDiv@CPageTagNode@@QAE_NPAV1@@Z 004ded00 f   PageDocument.obj
 0001:000ddd50       ?checkForResultsItem@CPageTagNode@@QAE_NPAV1@@Z 004ded50 f   PageDocument.obj
 0001:000dddf0       ?findSearch@CPageTagNode@@QAEPAV1@PAV1@@Z 004dedf0 f   PageDocument.obj
 0001:000ddf10       ?findSearchItem@CPageTagNode@@QAEPAV1@PAV1@@Z 004def10 f   PageDocument.obj
 0001:000de020       ??0CPageDocument@@QAE@XZ   004df020 f   PageDocument.obj
 0001:000de110       ?key@CPageDocument@@UAEHXZ 004df110 f i PageDocument.obj
 0001:000de130       ?compare@CPageDocument@@UAEHPAVCLilacObject@@@Z 004df130 f i PageDocument.obj
 0001:000de160       ?getPageID@CPageDocument@@QAEHXZ 004df160 f i PageDocument.obj
 0001:000de180       ??_GCPageDocument@@UAEPAXI@Z 004df180 f i PageDocument.obj
 0001:000de180       ??_ECPageDocument@@UAEPAXI@Z 004df180 f i PageDocument.obj
 0001:000de1c0       ??1CPageDocument@@UAE@XZ   004df1c0 f   PageDocument.obj
 0001:000de2e0       ?serialize@CPageDocument@@QAEXAAVCArchive@@@Z 004df2e0 f   PageDocument.obj
 0001:000de750       ??0CFrame@@QAE@XZ          004df750 f i PageDocument.obj
 0001:000de800       ?serialize@CFrame@@QAEXAAVCArchive@@@Z 004df800 f i PageDocument.obj
 0001:000de950       ?clone@CFrame@@UAEPAVCLilacObject@@XZ 004df950 f i PageDocument.obj
 0001:000dea00       ?setName@CFrame@@QAEXABVCString@@@Z 004dfa00 f i PageDocument.obj
 0001:000dea30       ?setTarget@CFrame@@QAEXABVCString@@@Z 004dfa30 f i PageDocument.obj
 0001:000dea60       ?setSrc@CFrame@@QAEXABVCString@@@Z 004dfa60 f i PageDocument.obj
 0001:000dea90       ??_ECFrame@@UAEPAXI@Z      004dfa90 f i PageDocument.obj
 0001:000dea90       ??_GCFrame@@UAEPAXI@Z      004dfa90 f i PageDocument.obj
 0001:000dead0       ??1CFrame@@UAE@XZ          004dfad0 f i PageDocument.obj
 0001:000deb50       ?saveTagNode@CPageDocument@@IAEXPAVCPageTagNode@@AAVCArchive@@@Z 004dfb50 f   PageDocument.obj
 0001:000debb0       ?insertTagNode@CPageDocument@@IAEXPAVCPageTagNode@@@Z 004dfbb0 f   PageDocument.obj
 0001:000dec30       ?getPID@CPageTagNode@@QAEHXZ 004dfc30 f i PageDocument.obj
 0001:000dec50       ?loadOffLine@CPageDocument@@QAE_NJABVCString@@0@Z 004dfc50 f   PageDocument.obj
 0001:000ded50       ?loadCache@CPageDocument@@QAEXPBD@Z 004dfd50 f   PageDocument.obj
 0001:000dedf0       ?loadHTML@CPageDocument@@QAEXABVCString@@@Z 004dfdf0 f   PageDocument.obj
 0001:000deff0       ??B_bstr_t@@QBEPAGXZ       004dfff0 f i PageDocument.obj
 0001:000df030       ?GetWString@Data_t@_bstr_t@@QBEPBGXZ 004e0030 f i PageDocument.obj
 0001:000df050       ?loadByContent@CPageDocument@@QAEXABVCString@@@Z 004e0050 f   PageDocument.obj
 0001:000df160       ?loadOnLine@CPageDocument@@QAEXPAUIDispatch@@_N@Z 004e0160 f   PageDocument.obj
 0001:000df2d0       ?loadOnLineDocument@CPageDocument@@QAEXPAUIHTMLDocument2@@@Z 004e02d0 f   PageDocument.obj
 0001:000df480       ?getSourceIndex@CPageDocument@@IAEJPAUIHTMLElement@@@Z 004e0480 f   PageDocument.obj
 0001:000df4c0       ?getContentTree@CPageDocument@@IAEXPAUIHTMLDocument2@@@Z 004e04c0 f   PageDocument.obj
 0001:000dfca0       ?setElement@CHTMLNode@@QAEXPAUIHTMLElement@@PAUIHTMLElement2@@@Z 004e0ca0 f i PageDocument.obj
 0001:000dfcf0       ?setID@CPageTagNode@@QAEXH@Z 004e0cf0 f i PageDocument.obj
 0001:000dfd10       ?SaveAsTagNode@CPageDocument@@IAEXPAVCHTMLNode@@PAVCPageTagNode@@@Z 004e0d10 f   PageDocument.obj
 0001:000e0180       ?addAttrVal@CPageTagNode@@QAEXPBDABVCString@@@Z 004e1180 f i PageDocument.obj
 0001:000e0210       ?setText@CPageTagNode@@QAEXABVCString@@@Z 004e1210 f i PageDocument.obj
 0001:000e0240       ?setName@CPageTagNode@@QAEXABVCString@@@Z 004e1240 f i PageDocument.obj
 0001:000e0270       ?setColor@CPageTagNode@@QAEXABVCString@@@Z 004e1270 f i PageDocument.obj
 0001:000e02a0       ?setBGColor@CPageTagNode@@QAEXABVCString@@@Z 004e12a0 f i PageDocument.obj
 0001:000e02d0       ?setFontFamily@CPageTagNode@@QAEXABVCString@@@Z 004e12d0 f i PageDocument.obj
 0001:000e0300       ?setFontSize@CPageTagNode@@QAEXABVCString@@@Z 004e1300 f i PageDocument.obj
 0001:000e0330       ?setFontStyle@CPageTagNode@@QAEXABVCString@@@Z 004e1330 f i PageDocument.obj
 0001:000e0360       ?setFontWeight@CPageTagNode@@QAEXABVCString@@@Z 004e1360 f i PageDocument.obj
 0001:000e0390       ?setPID@CPageTagNode@@QAEXH@Z 004e1390 f i PageDocument.obj
 0001:000e03b0       ?setClientHeight@CPageTagNode@@QAEXJ@Z 004e13b0 f i PageDocument.obj
 0001:000e03d0       ?setOffsetHeight@CPageTagNode@@QAEXJ@Z 004e13d0 f i PageDocument.obj
 0001:000e03f0       ?setClientWidth@CPageTagNode@@QAEXJ@Z 004e13f0 f i PageDocument.obj
 0001:000e0410       ?setOffsetWidth@CPageTagNode@@QAEXJ@Z 004e1410 f i PageDocument.obj
 0001:000e0430       ??0?$CComPtr@UIDispatch@@@ATL@@QAE@PAUIDispatch@@@Z 004e1430 f i PageDocument.obj
 0001:000e0470       ??0?$CArray@VCTagAttrVal@@AAV1@@@QAE@XZ 004e1470 f i PageDocument.obj
 0001:000e04c0       ?GetSize@?$CArray@VCTagAttrVal@@AAV1@@@QBEHXZ 004e14c0 f i PageDocument.obj
 0001:000e04e0       ?RemoveAll@?$CArray@VCTagAttrVal@@AAV1@@@QAEXXZ 004e14e0 f i PageDocument.obj
 0001:000e0500       ?Add@?$CArray@VCTagAttrVal@@AAV1@@@QAEHAAVCTagAttrVal@@@Z 004e1500 f i PageDocument.obj
 0001:000e0540       ??A?$CArray@VCTagAttrVal@@AAV1@@@QAEAAVCTagAttrVal@@H@Z 004e1540 f i PageDocument.obj
 0001:000e0570       ??1?$CArray@VCTagAttrVal@@AAV1@@@UAE@XZ 004e1570 f i PageDocument.obj
 0001:000e0600       ?Serialize@?$CArray@VCTagAttrVal@@AAV1@@@UAEXAAVCArchive@@@Z 004e1600 f i PageDocument.obj
 0001:000e0670       ??_G?$CArray@VCTagAttrVal@@AAV1@@@UAEPAXI@Z 004e1670 f i PageDocument.obj
 0001:000e0670       ??_E?$CArray@VCTagAttrVal@@AAV1@@@UAEPAXI@Z 004e1670 f i PageDocument.obj
 0001:000e06b0       ?SetSize@?$CArray@VCTagAttrVal@@AAV1@@@QAEXHH@Z 004e16b0 f i PageDocument.obj
 0001:000e08f0       ?ElementAt@?$CArray@VCTagAttrVal@@AAV1@@@QAEAAVCTagAttrVal@@H@Z 004e18f0 f i PageDocument.obj
 0001:000e0920       ?SetAtGrow@?$CArray@VCTagAttrVal@@AAV1@@@QAEXHAAVCTagAttrVal@@@Z 004e1920 f i PageDocument.obj
 0001:000e0970       ??4CTagAttrVal@@QAEXABV0@@Z 004e1970 f i PageDocument.obj
 0001:000e09b0       ?DestructElements@@YGXPAVCTagAttrVal@@H@Z 004e19b0 f i PageDocument.obj
 0001:000e09f0       ?SerializeElements@@YGXAAVCArchive@@PAVCTagAttrVal@@H@Z 004e19f0 f i PageDocument.obj
 0001:000e0a80       ?ConstructElements@@YGXPAVCTagAttrVal@@H@Z 004e1a80 f i PageDocument.obj
 0001:000e0b30       ??0CTagAttrVal@@QAE@XZ     004e1b30 f i PageDocument.obj
 0001:000e0bc0       ??0CPageDocument2@@QAE@XZ  004e1bc0 f   PageDocument2.obj
 0001:000e0cc0       ??_ECPageDocument2@@UAEPAXI@Z 004e1cc0 f i PageDocument2.obj
 0001:000e0cc0       ??_GCPageDocument2@@UAEPAXI@Z 004e1cc0 f i PageDocument2.obj
 0001:000e0d00       ??1CPageDocument2@@UAE@XZ  004e1d00 f   PageDocument2.obj
 0001:000e0db0       ?Reset@CPageDocument2@@QAEXXZ 004e1db0 f   PageDocument2.obj
 0001:000e0e50       ?lookup@CPageDocument2@@QAEPAVCPageWord@@ABVCString@@@Z 004e1e50 f   PageDocument2.obj
 0001:000e0f20       ??0CPageWord@@QAE@ABVCString@@@Z 004e1f20 f i PageDocument2.obj
 0001:000e10c0       ?key@CPageWord@@UAEHXZ     004e20c0 f i PageDocument2.obj
 0001:000e1130       ?compare@CPageWord@@UAEHPAVCLilacObject@@@Z 004e2130 f i PageDocument2.obj
 0001:000e1170       ?getWord@CPageWord@@QAEAAVCString@@XZ 004e2170 f i PageDocument2.obj
 0001:000e1190       ?clone@CPageWord@@UAEPAVCLilacObject@@XZ 004e2190 f i PageDocument2.obj
 0001:000e1330       ?Append@CPageWord@@QAEXABV?$CArray@NAAN@@AAV2@@Z 004e2330 f i PageDocument2.obj
 0001:000e1390       ??_ECPageWord@@UAEPAXI@Z   004e2390 f i PageDocument2.obj
 0001:000e1390       ??_GCPageWord@@UAEPAXI@Z   004e2390 f i PageDocument2.obj
 0001:000e13d0       ??1CPageWord@@UAE@XZ       004e23d0 f i PageDocument2.obj
 0001:000e1490       ?calLayoutRole@CPageDocument2@@QAE_NPAVCPageDocument@@@Z 004e2490 f   PageDocument2.obj
 0001:000e1670       ?getBGColor@CPageTagNode@@QAEAAVCString@@XZ 004e2670 f i PageDocument2.obj
 0001:000e1690       ?computeScore@CPageWord@@QAEXXZ 004e2690 f i PageDocument2.obj
 0001:000e1910       ?ScatterBackGroundColor@CPageDocument2@@QAEXPAVCPageTagNode@@@Z 004e2910 f   PageDocument2.obj
 0001:000e19d0       ?getNodeWords@CPageDocument2@@QAEXPAVCPageTagNode@@@Z 004e29d0 f   PageDocument2.obj
 0001:000e1b20       ?calRoleDistribution@CPageDocument2@@QAEXPAVCPageTagNode@@@Z 004e2b20 f   PageDocument2.obj
 0001:000e1bc0       ?InsertWord@CPageDocument2@@QAEXPAVHash@@ABVCString@@@Z 004e2bc0 f   PageDocument2.obj
 0001:000e1cb0       ??0CElementWord@@QAE@ABVCString@@H@Z 004e2cb0 f i PageDocument2.obj
 0001:000e1d30       ?getFreq@CElementWord@@QAEHXZ 004e2d30 f i PageDocument2.obj
 0001:000e1d50       ?setFreq@CElementWord@@QAEXH@Z 004e2d50 f i PageDocument2.obj
 0001:000e1d70       ?key@CElementWord@@UAEHXZ  004e2d70 f i PageDocument2.obj
 0001:000e1de0       ?compare@CElementWord@@UAEHPAVCLilacObject@@@Z 004e2de0 f i PageDocument2.obj
 0001:000e1e20       ?getWord@CElementWord@@QAEAAVCString@@XZ 004e2e20 f i PageDocument2.obj
 0001:000e1e40       ?clone@CElementWord@@UAEPAVCLilacObject@@XZ 004e2e40 f i PageDocument2.obj
 0001:000e1ed0       ??_ECElementWord@@UAEPAXI@Z 004e2ed0 f i PageDocument2.obj
 0001:000e1ed0       ??_GCElementWord@@UAEPAXI@Z 004e2ed0 f i PageDocument2.obj
 0001:000e1f10       ??1CElementWord@@UAE@XZ    004e2f10 f i PageDocument2.obj
 0001:000e1f70       ?minusElementWords@CPageDocument2@@QAEXPAVHash@@0@Z 004e2f70 f   PageDocument2.obj
 0001:000e1fc0       ?minusWordFreq@CPageDocument2@@QAEXPAVHash@@PAVCElementWord@@@Z 004e2fc0 f   PageDocument2.obj
 0001:000e2020       ?calRoleValues@CPageDocument2@@QAEXPAVCPageTagNode@@@Z 004e3020 f   PageDocument2.obj
 0001:000e2130       ?getColor@CPageTagNode@@QAEAAVCString@@XZ 004e3130 f i PageDocument2.obj
 0001:000e2150       ?getFontFamily@CPageTagNode@@QAEAAVCString@@XZ 004e3150 f i PageDocument2.obj
 0001:000e2170       ?getFontSize@CPageTagNode@@QAEAAVCString@@XZ 004e3170 f i PageDocument2.obj
 0001:000e2190       ?getFontStyle@CPageTagNode@@QAEAAVCString@@XZ 004e3190 f i PageDocument2.obj
 0001:000e21b0       ?getFontWeight@CPageTagNode@@QAEAAVCString@@XZ 004e31b0 f i PageDocument2.obj
 0001:000e21d0       ?countElementWords@CPageDocument2@@QAEHPAVCPageTagNode@@@Z 004e31d0 f   PageDocument2.obj
 0001:000e2260       ?addRoleInstance@CPageDocument2@@QAEXAAV?$CArray@VCRoleValue@@AAV1@@@ABVCString@@H@Z 004e3260 f   PageDocument2.obj
 0001:000e2340       ??0CRoleValue@@QAE@ABVCString@@H@Z 004e3340 f i PageDocument2.obj
 0001:000e23f0       ??1CRoleValue@@UAE@XZ      004e33f0 f i PageDocument2.obj
 0001:000e2480       ??_ECRoleValue@@UAEPAXI@Z  004e3480 f i PageDocument2.obj
 0001:000e2480       ??_GCRoleValue@@UAEPAXI@Z  004e3480 f i PageDocument2.obj
 0001:000e24c0       ?calEntropy@CPageDocument2@@QAEXAAV?$CArray@VCRoleValue@@AAV1@@@H@Z 004e34c0 f   PageDocument2.obj
 0001:000e25d0       ?IsSkipTag@CPageDocument2@@QAE_NPAVCPageTagNode@@@Z 004e35d0 f   PageDocument2.obj
 0001:000e26a0       ?calWordRole@CPageDocument2@@QAEXPAVCPageTagNode@@@Z 004e36a0 f   PageDocument2.obj
 0001:000e2810       ?GetWeight@CPageDocument2@@QAENABV?$CArray@VCRoleValue@@AAV1@@@ABVCString@@@Z 004e3810 f   PageDocument2.obj
 0001:000e2920       ?statWeight@CPageDocument2@@QAEXABV?$CArray@NAAN@@AAN1@Z 004e3920 f   PageDocument2.obj
 0001:000e2a30       ?InsertPageWord@CPageDocument2@@QAEXABVCString@@NNNNNN@Z 004e3a30 f   PageDocument2.obj
 0001:000e2bd0       ?dumpBody@CPageDocument2@@QAEXPAVCPageTagNode@@@Z 004e3bd0 f   PageDocument2.obj
 0001:000e2ce0       ?dump@CPageDocument2@@QAEXXZ 004e3ce0 f   PageDocument2.obj
 0001:000e31d0       ??0?$CArray@HAAH@@QAE@XZ   004e41d0 f i PageDocument2.obj
 0001:000e3220       ?GetSize@?$CArray@HAAH@@QBEHXZ 004e4220 f i PageDocument2.obj
 0001:000e3240       ?RemoveAll@?$CArray@HAAH@@QAEXXZ 004e4240 f i PageDocument2.obj
 0001:000e3260       ?Add@?$CArray@HAAH@@QAEHAAH@Z 004e4260 f i PageDocument2.obj
 0001:000e32a0       ??A?$CArray@HAAH@@QAEAAHH@Z 004e42a0 f i PageDocument2.obj
 0001:000e32d0       ??1?$CArray@HAAH@@UAE@XZ   004e42d0 f i PageDocument2.obj
 0001:000e3360       ?Serialize@?$CArray@HAAH@@UAEXAAVCArchive@@@Z 004e4360 f i PageDocument2.obj
 0001:000e33d0       ??0?$CArray@VCRoleValue@@AAV1@@@QAE@XZ 004e43d0 f i PageDocument2.obj
 0001:000e3420       ?GetSize@?$CArray@VCRoleValue@@AAV1@@@QBEHXZ 004e4420 f i PageDocument2.obj
 0001:000e3440       ?RemoveAll@?$CArray@VCRoleValue@@AAV1@@@QAEXXZ 004e4440 f i PageDocument2.obj
 0001:000e3460       ?Add@?$CArray@VCRoleValue@@AAV1@@@QAEHAAVCRoleValue@@@Z 004e4460 f i PageDocument2.obj
 0001:000e34a0       ??A?$CArray@VCRoleValue@@AAV1@@@QAEAAVCRoleValue@@H@Z 004e44a0 f i PageDocument2.obj
 0001:000e34d0       ??A?$CArray@VCRoleValue@@AAV1@@@QBE?AVCRoleValue@@H@Z 004e44d0 f i PageDocument2.obj
 0001:000e3510       ??1?$CArray@VCRoleValue@@AAV1@@@UAE@XZ 004e4510 f i PageDocument2.obj
 0001:000e35a0       ?Serialize@?$CArray@VCRoleValue@@AAV1@@@UAEXAAVCArchive@@@Z 004e45a0 f i PageDocument2.obj
 0001:000e3610       ??_G?$CArray@HAAH@@UAEPAXI@Z 004e4610 f i PageDocument2.obj
 0001:000e3610       ??_E?$CArray@HAAH@@UAEPAXI@Z 004e4610 f i PageDocument2.obj
 0001:000e3650       ??_E?$CArray@VCRoleValue@@AAV1@@@UAEPAXI@Z 004e4650 f i PageDocument2.obj
 0001:000e3650       ??_G?$CArray@VCRoleValue@@AAV1@@@UAEPAXI@Z 004e4650 f i PageDocument2.obj
 0001:000e3690       ?SetSize@?$CArray@HAAH@@QAEXHH@Z 004e4690 f i PageDocument2.obj
 0001:000e38c0       ?ElementAt@?$CArray@HAAH@@QAEAAHH@Z 004e48c0 f i PageDocument2.obj
 0001:000e38f0       ?SetAtGrow@?$CArray@HAAH@@QAEXHAAH@Z 004e48f0 f i PageDocument2.obj
 0001:000e3940       ?SetSize@?$CArray@VCRoleValue@@AAV1@@@QAEXHH@Z 004e4940 f i PageDocument2.obj
 0001:000e3b80       ?GetAt@?$CArray@VCRoleValue@@AAV1@@@QBE?AVCRoleValue@@H@Z 004e4b80 f i PageDocument2.obj
 0001:000e3bc0       ??0CRoleValue@@QAE@ABV0@@Z 004e4bc0 f i PageDocument2.obj
 0001:000e3c70       ?Append@?$CArray@HAAH@@QAEHABV1@@Z 004e4c70 f i PageDocument2.obj
 0001:000e3cd0       ?CopyElements@@YGXPAHPBHH@Z 004e4cd0 f i PageDocument2.obj
 0001:000e3d10       ?ElementAt@?$CArray@VCRoleValue@@AAV1@@@QAEAAVCRoleValue@@H@Z 004e4d10 f i PageDocument2.obj
 0001:000e3d40       ?SetAtGrow@?$CArray@VCRoleValue@@AAV1@@@QAEXHAAVCRoleValue@@@Z 004e4d40 f i PageDocument2.obj
 0001:000e3d90       ??4CRoleValue@@QAEXABV0@@Z 004e4d90 f i PageDocument2.obj
 0001:000e3df0       ?DestructElements@@YGXPAVCRoleValue@@H@Z 004e4df0 f i PageDocument2.obj
 0001:000e3e30       ?SerializeElements@@YGXAAVCArchive@@PAVCRoleValue@@H@Z 004e4e30 f i PageDocument2.obj
 0001:000e3e80       ?ConstructElements@@YGXPAVCRoleValue@@H@Z 004e4e80 f i PageDocument2.obj
 0001:000e3f30       ??0CRoleValue@@QAE@XZ      004e4f30 f i PageDocument2.obj
 0001:000e3fd0       ?CreateObject@CPageEval@@SGPAVCObject@@XZ 004e4fd0 f   PageEval.obj
 0001:000e4040       ?GetRuntimeClass@CPageEval@@UBEPAUCRuntimeClass@@XZ 004e5040 f   PageEval.obj
 0001:000e4060       ??0CPageEval@@QAE@XZ       004e5060 f   PageEval.obj
 0001:000e4220       ??0CCheckListBox@@QAE@XZ   004e5220 f i PageEval.obj
 0001:000e4260       ??0CListBox@@QAE@XZ        004e5260 f i PageEval.obj
 0001:000e4290       ??_GCListBox@@UAEPAXI@Z    004e5290 f i PageEval.obj
 0001:000e4290       ??_ECListBox@@UAEPAXI@Z    004e5290 f i PageEval.obj
 0001:000e42d0       ??_ECCheckListBox@@UAEPAXI@Z 004e52d0 f i PageEval.obj
 0001:000e42d0       ??_GCCheckListBox@@UAEPAXI@Z 004e52d0 f i PageEval.obj
 0001:000e4310       ??1CCheckListBox@@UAE@XZ   004e5310 f i PageEval.obj
 0001:000e4330       ??_GCPageEval@@UAEPAXI@Z   004e5330 f i PageEval.obj
 0001:000e4330       ??_ECPageEval@@UAEPAXI@Z   004e5330 f i PageEval.obj
 0001:000e4370       ??1CPropertyPageEx@@UAE@XZ 004e5370 f i PageEval.obj
 0001:000e43e0       ??1CPageEval@@UAE@XZ       004e53e0 f   PageEval.obj
 0001:000e4530       ?DoDataExchange@CPageEval@@MAEXPAVCDataExchange@@@Z 004e5530 f   PageEval.obj
 0001:000e4670       ?GetMessageMap@CPageEval@@MBEPBUAFX_MSGMAP@@XZ 004e5670 f   PageEval.obj
 0001:000e4690       ?OnSetActive@CPageEval@@UAEHXZ 004e5690 f   PageEval.obj
 0001:000e4830       ?SetWizardButtons@CPropertySheet@@QAEXK@Z 004e5830 f i PageEval.obj
 0001:000e4860       ?OnInitDialog@CPageEval@@MAEHXZ 004e5860 f   PageEval.obj
 0001:000e4990       ?OnRadioBetter@CPageEval@@IAEXXZ 004e5990 f   PageEval.obj
 0001:000e49b0       ?OnRadioSoso@CPageEval@@IAEXXZ 004e59b0 f   PageEval.obj
 0001:000e49d0       ?OnRadioInteresting@CPageEval@@IAEXXZ 004e59d0 f   PageEval.obj
 0001:000e49f0       ?OnRadioRemote@CPageEval@@IAEXXZ 004e59f0 f   PageEval.obj
 0001:000e4a10       ?OnRadioWorse@CPageEval@@IAEXXZ 004e5a10 f   PageEval.obj
 0001:000e4a30       ?enableFinish@CPageEval@@QAEXXZ 004e5a30 f   PageEval.obj
 0001:000e4ab0       ?OnKillActive@CPageEval@@UAEHXZ 004e5ab0 f   PageEval.obj
 0001:000e4ae0       ?OnRadioForget@CPageEval@@IAEXXZ 004e5ae0 f   PageEval.obj
 0001:000e4b00       ?OnRadioSwitch@CPageEval@@IAEXXZ 004e5b00 f   PageEval.obj
 0001:000e4b20       ?OnRadioNowtab@CPageEval@@IAEXXZ 004e5b20 f   PageEval.obj
 0001:000e4b40       ?OnRadioOpen@CPageEval@@IAEXXZ 004e5b40 f   PageEval.obj
 0001:000e4b60       ?OnRadioOpenic@CPageEval@@IAEXXZ 004e5b60 f   PageEval.obj
 0001:000e4b80       ?InitListCtrl@CPageEval@@QAEXAAVCCheckListBox@@@Z 004e5b80 f   PageEval.obj
 0001:000e4c80       ?AddString@CListBox@@QAEHPBD@Z 004e5c80 f i PageEval.obj
 0001:000e4cb0       ?OnRadioIcprefer@CPageEval@@IAEXXZ 004e5cb0 f   PageEval.obj
 0001:000e4cd0       ?OnRadioNoprefer@CPageEval@@IAEXXZ 004e5cd0 f   PageEval.obj
 0001:000e4cf0       ?OnRadioNewprefer@CPageEval@@IAEXXZ 004e5cf0 f   PageEval.obj
 0001:000e4d10       ?OnOK@CPageEval@@UAEXXZ    004e5d10 f   PageEval.obj
 0001:000e4d30       ?OnWizardFinish@CPageEval@@UAEHXZ 004e5d30 f   PageEval.obj
 0001:000e4d60       ?getQueryWords@CPageEval@@QAEXXZ 004e5d60 f   PageEval.obj
 0001:000e4df0       ?GetCount@CListBox@@QBEHXZ 004e5df0 f i PageEval.obj
 0001:000e4e20       ?OnButtonSelectAll@CPageEval@@IAEXXZ 004e5e20 f   PageEval.obj
 0001:000e4ec0       ?OnButtonDeselectAll@CPageEval@@IAEXXZ 004e5ec0 f   PageEval.obj
 0001:000e4f50       ?OnSelchangeListQuery@CPageEval@@IAEXXZ 004e5f50 f   PageEval.obj
 0001:000e5010       ?OnCheckNone@CPageEval@@IAEXXZ 004e6010 f   PageEval.obj
 0001:000e5090       ?CreateObject@CPageRecomm@@SGPAVCObject@@XZ 004e6090 f   PageRecomm.obj
 0001:000e5100       ?GetRuntimeClass@CPageRecomm@@UBEPAUCRuntimeClass@@XZ 004e6100 f   PageRecomm.obj
 0001:000e5120       ??0CPageRecomm@@QAE@XZ     004e6120 f   PageRecomm.obj
 0001:000e5280       ??_ECPageRecomm@@UAEPAXI@Z 004e6280 f i PageRecomm.obj
 0001:000e5280       ??_GCPageRecomm@@UAEPAXI@Z 004e6280 f i PageRecomm.obj
 0001:000e52c0       ??1CPageRecomm@@UAE@XZ     004e62c0 f   PageRecomm.obj
 0001:000e53f0       ?DoDataExchange@CPageRecomm@@MAEXPAVCDataExchange@@@Z 004e63f0 f   PageRecomm.obj
 0001:000e5430       ?GetMessageMap@CPageRecomm@@MBEPBUAFX_MSGMAP@@XZ 004e6430 f   PageRecomm.obj
 0001:000e5450       ?OnSetActive@CPageRecomm@@UAEHXZ 004e6450 f   PageRecomm.obj
 0001:000e5580       ?OnInitDialog@CPageRecomm@@MAEHXZ 004e6580 f   PageRecomm.obj
 0001:000e5950       ??_ECDlgBrowser@@UAEPAXI@Z 004e6950 f i PageRecomm.obj
 0001:000e59d0       ??_FCDlgBrowser@@QAEXXZ    004e69d0 f i PageRecomm.obj
 0001:000e59f0       ?OnKillActive@CPageRecomm@@UAEHXZ 004e69f0 f   PageRecomm.obj
 0001:000e5a40       ?OnTimer@CPageRecomm@@IAEXI@Z 004e6a40 f   PageRecomm.obj
 0001:000e5d70       ??0CPageRepository@@QAE@PBD00@Z 004e6d70 f   PageRepository.obj
 0001:000e5f20       ??_GCPageRepository@@UAEPAXI@Z 004e6f20 f i PageRepository.obj
 0001:000e5f20       ??_ECPageRepository@@UAEPAXI@Z 004e6f20 f i PageRepository.obj
 0001:000e5f60       ??1CPageRepository@@UAE@XZ 004e6f60 f   PageRepository.obj
 0001:000e60a0       ?genID@CPageRepository@@IAEJXZ 004e70a0 f   PageRepository.obj
 0001:000e60f0       ?getPageID@CPageRepository@@QAEJABVCString@@@Z 004e70f0 f   PageRepository.obj
 0001:000e6110       ?loadURLCode@CPageRepository@@QAE_NPBD@Z 004e7110 f   PageRepository.obj
 0001:000e6770       ?setPageno@CPageCache@@QAEXJ@Z 004e7770 f i PageRepository.obj
 0001:000e6790       ?setLastModified@CPageCache@@QAEXABVCString@@@Z 004e7790 f i PageRepository.obj
 0001:000e67c0       ??0CIndexURL@@QAE@PBD@Z    004e77c0 f i PageRepository.obj
 0001:000e6880       ?addID@CIndexURL@@QAEXJ@Z  004e7880 f i PageRepository.obj
 0001:000e68b0       ?key@CIndexURL@@UAEHXZ     004e78b0 f i PageRepository.obj
 0001:000e68e0       ?compare@CIndexURL@@UAEHPAVCLilacObject@@@Z 004e78e0 f i PageRepository.obj
 0001:000e6920       ?getURL@CIndexURL@@QAEPAVCLilacString@@XZ 004e7920 f i PageRepository.obj
 0001:000e6940       ??_GCIndexURL@@UAEPAXI@Z   004e7940 f i PageRepository.obj
 0001:000e6940       ??_ECIndexURL@@UAEPAXI@Z   004e7940 f i PageRepository.obj
 0001:000e6980       ??1CIndexURL@@UAE@XZ       004e7980 f i PageRepository.obj
 0001:000e6a20       ?loadOffLineURLCode@CPageRepository@@QAE_NPBD@Z 004e7a20 f   PageRepository.obj
 0001:000e6c40       ?getPageCache@CPageRepository@@QAEPAVCPageCache@@J@Z 004e7c40 f   PageRepository.obj
 0001:000e6d50       ?getURL@CPageRepository@@QAE_NJAAVCString@@@Z 004e7d50 f   PageRepository.obj
 0001:000e6e50       ?insertPage@CPageRepository@@QAEPAVCPageCache@@ABVCString@@_N@Z 004e7e50 f   PageRepository.obj
 0001:000e70b0       ?insertPage@CPageRepository@@QAEXJABVCString@@PAUIDispatch@@@Z 004e80b0 f   PageRepository.obj
 0001:000e7240       ?insertPage@CPageRepository@@QAEPAVCPageCache@@PAUIDispatch@@PAVCViewOnLine@@@Z 004e8240 f   PageRepository.obj
 0001:000e73a0       ?NumFrameIDs@CPageCache@@QAEHXZ 004e83a0 f i PageRepository.obj
 0001:000e73c0       ?GetFrameID@CPageCache@@QAEJH@Z 004e83c0 f i PageRepository.obj
 0001:000e73f0       ?GetDispatchDocument@CPageRepository@@QAEPAUIHTMLDocument2@@PAUIDispatch@@@Z 004e83f0 f   PageRepository.obj
 0001:000e7510       ?processFrames@CPageRepository@@IAEXPAVCPageCache@@PAUIDispatch@@@Z 004e8510 f   PageRepository.obj
 0001:000e76a0       ?AddFrameID@CPageCache@@QAEXJ@Z 004e86a0 f i PageRepository.obj
 0001:000e76d0       ?saveOnLineHTML@CPageRepository@@IAEXPAUIDispatch@@PAVCPageCache@@@Z 004e86d0 f   PageRepository.obj
 0001:000e78b0       ?retrieveCache@CPageRepository@@IAEPAVCPageCache@@PAUIDispatch@@AA_N@Z 004e88b0 f   PageRepository.obj
 0001:000e7b00       ?dump@CPageRepository@@QAEXXZ 004e8b00 f   PageRepository.obj
 0001:000e7b20       ?saveCodeBookXML@CPageRepository@@QAEXPBD@Z 004e8b20 f   PageRepository.obj
 0001:000e7d30       ?getLastModified@CPageCache@@QAEXAAVCString@@@Z 004e8d30 f i PageRepository.obj
 0001:000e7d60       ?AddChildAttrib@CMarkup@@QAE_NUMCD_CSTR@@0@Z 004e8d60 f i PageRepository.obj
 0001:000e7da0       ?acquirePageCache@CPageRepository@@QAEPAVCPageCache@@ABVCString@@0AA_N@Z 004e8da0 f   PageRepository.obj
 0001:000e80b0       ?getNumID@CIndexURL@@QAEHXZ 004e90b0 f i PageRepository.obj
 0001:000e80d0       ?getID@CIndexURL@@QAEJH@Z  004e90d0 f i PageRepository.obj
 0001:000e8100       ?SetPathInfoCache@CPageRepository@@QAEXPAVCPageCache@@@Z 004e9100 f   PageRepository.obj
 0001:000e81e0       ?loadWordMapping@CPageRepository@@QAEXABVCString@@@Z 004e91e0 f   PageRepository.obj
 0001:000e8250       ?hasWordMappingRecorded@CTextProcessor@@QAE_NXZ 004e9250 f i PageRepository.obj
 0001:000e8270       ?getWordMapping@CTextProcessor@@QAEPAVCWordMapping@@XZ 004e9270 f i PageRepository.obj
 0001:000e8290       ?saveWordMapping@CPageRepository@@QAEXABVCString@@@Z 004e9290 f   PageRepository.obj
 0001:000e82f0       ?releaseAllPageCaches@CPageRepository@@QAEXXZ 004e92f0 f   PageRepository.obj
 0001:000e8330       ?releasePages@CPageRepository@@QAEXABV?$CArray@JAAJ@@@Z 004e9330 f   PageRepository.obj
 0001:000e83d0       ??A?$CArray@JAAJ@@QBEJH@Z  004e93d0 f i PageRepository.obj
 0001:000e8400       ?GetAt@?$CArray@JAAJ@@QBEJH@Z 004e9400 f i PageRepository.obj
 0001:000e8470       ??0CPageFrame@@QAE@XZ      004e9470 f   PageView.obj
 0001:000e8540       ??_GCPageFrame@@UAEPAXI@Z  004e9540 f i PageView.obj
 0001:000e8540       ??_ECPageFrame@@UAEPAXI@Z  004e9540 f i PageView.obj
 0001:000e8580       ??1CPageFrame@@UAE@XZ      004e9580 f   PageView.obj
 0001:000e8610       ?clone@CPageFrame@@UAEPAVCLilacObject@@XZ 004e9610 f   PageView.obj
 0001:000e86e0       ?compare@CPageFrame@@UAEHPAVCLilacObject@@@Z 004e96e0 f   PageView.obj
 0001:000e8760       ?dump@CPageFrame@@UAEXXZ   004e9760 f   PageView.obj
 0001:000e87f0       ?serialize@CPageFrame@@QAEHAAVCArchive@@@Z 004e97f0 f   PageView.obj
 0001:000e89a0       ??0CPageView@@QAE@XZ       004e99a0 f   PageView.obj
 0001:000e8a70       ??_GCPageView@@UAEPAXI@Z   004e9a70 f i PageView.obj
 0001:000e8a70       ??_ECPageView@@UAEPAXI@Z   004e9a70 f i PageView.obj
 0001:000e8ab0       ??1CPageView@@UAE@XZ       004e9ab0 f   PageView.obj
 0001:000e8b70       ?clone@CPageView@@UAEPAVCLilacObject@@XZ 004e9b70 f   PageView.obj
 0001:000e8c60       ?compare@CPageView@@UAEHPAVCLilacObject@@@Z 004e9c60 f   PageView.obj
 0001:000e8ce0       ?addFrame@CPageView@@QAEXVCString@@00@Z 004e9ce0 f   PageView.obj
 0001:000e8e00       ?setURL@CPageView@@QAEXABVCString@@@Z 004e9e00 f   PageView.obj
 0001:000e8e30       ?getURL@CPageView@@QAE?AVCString@@XZ 004e9e30 f   PageView.obj
 0001:000e8e70       ?setBaseURL@CPageView@@QAEXABVCString@@@Z 004e9e70 f   PageView.obj
 0001:000e8ea0       ?getBaseURL@CPageView@@QAE?AVCString@@XZ 004e9ea0 f   PageView.obj
 0001:000e8ee0       ?setTarget@CPageView@@QAEXABVCString@@@Z 004e9ee0 f   PageView.obj
 0001:000e8f10       ?getTarget@CPageView@@QAE?AVCString@@XZ 004e9f10 f   PageView.obj
 0001:000e8f50       ?setDest@CPageView@@QAEX_N@Z 004e9f50 f   PageView.obj
 0001:000e8f70       ?getDest@CPageView@@QAE_NXZ 004e9f70 f   PageView.obj
 0001:000e8f90       ?setPageno@CPageView@@QAEXH@Z 004e9f90 f   PageView.obj
 0001:000e8fb0       ?getPageno@CPageView@@QAEHXZ 004e9fb0 f   PageView.obj
 0001:000e8fd0       ?buildURL@CPageView@@QAEXABVCString@@00AAV2@@Z 004e9fd0 f   PageView.obj
 0001:000e9050       ?modifyFrame@CPageView@@QAEXVCString@@00H@Z 004ea050 f   PageView.obj
 0001:000e91d0       ?buildFrameURL@CPageView@@QAEXXZ 004ea1d0 f   PageView.obj
 0001:000e92a0       ?copyFrames@CPageView@@QAEXPAV1@@Z 004ea2a0 f   PageView.obj
 0001:000e9300       ?locateTarget@CPageView@@QAEHVCString@@@Z 004ea300 f   PageView.obj
 0001:000e93b0       ?dump@CPageView@@UAEXXZ    004ea3b0 f   PageView.obj
 0001:000e9490       ?load@CPageView@@QAEXPBD@Z 004ea490 f   PageView.obj
 0001:000e9570       ?save@CPageView@@QAEXPBD@Z 004ea570 f   PageView.obj
 0001:000e9650       ?serialize@CPageView@@QAEHAAVCArchive@@@Z 004ea650 f   PageView.obj
 0001:000e9990       ??0CParseIt@@QAE@H@Z       004ea990 f   Parseit.obj
 0001:000e99f0       ??0CParseIt@@QAE@PBD0H@Z   004ea9f0 f   Parseit.obj
 0001:000e9ab0       ??1CParseIt@@QAE@XZ        004eaab0 f   Parseit.obj
 0001:000e9b80       ?GetSize@CPtrArray@@QBEHXZ 004eab80 f i Parseit.obj
 0001:000e9ba0       ??ACPtrArray@@QAEAAPAXH@Z  004eaba0 f i Parseit.obj
 0001:000e9bd0       ?ElementAt@CPtrArray@@QAEAAPAXH@Z 004eabd0 f i Parseit.obj
 0001:000e9c00       ??_GCParseField@@QAEPAXI@Z 004eac00 f i Parseit.obj
 0001:000e9c40       ?ReSet@CParseIt@@QAEXXZ    004eac40 f   Parseit.obj
 0001:000e9cf0       ?RemoveAll@CPtrArray@@QAEXXZ 004eacf0 f i Parseit.obj
 0001:000e9d10       ?Parse@CParseIt@@QAEHPBD0H@Z 004ead10 f   Parseit.obj
 0001:000e9d90       ?Parse@CParseIt@@QAEHXZ    004ead90 f   Parseit.obj
 0001:000e9fe0       ?Add@CPtrArray@@QAEHPAX@Z  004eafe0 f i Parseit.obj
 0001:000ea020       ??0CParseField@@QAE@XZ     004eb020 f i Parseit.obj
 0001:000ea040       ??4CParseField@@QAEAAV0@AAVCString@@@Z 004eb040 f i Parseit.obj
 0001:000ea070       ?IsSeperator@CParseIt@@IAEHD@Z 004eb070 f   Parseit.obj
 0001:000ea0d0       ?GetField@CParseIt@@QAEHHAAVCString@@@Z 004eb0d0 f   Parseit.obj
 0001:000ea140       ??BCParseField@@QAEPBDXZ   004eb140 f i Parseit.obj
 0001:000ea160       ?GetField@CParseIt@@QAEHHPAD@Z 004eb160 f   Parseit.obj
 0001:000ea1c0       ?GetField@CParseIt@@QAE?AVCParseField@@H@Z 004eb1c0 f   Parseit.obj
 0001:000ea280       ??0CParseField@@QAE@ABV0@@Z 004eb280 f i Parseit.obj
 0001:000ea2b0       ?LoadFile@CParseIt@@IAEHPBD@Z 004eb2b0 f   Parseit.obj
 0001:000ea4f0       ?ParseFile@CParseIt@@QAEHPBD0@Z 004eb4f0 f   Parseit.obj
 0001:000ea5c0       ??0CPopupConfirm@@QAE@PAVCWnd@@@Z 004eb5c0 f   PopupConfirm.obj
 0001:000ea670       ??_GCPopupConfirm@@UAEPAXI@Z 004eb670 f i PopupConfirm.obj
 0001:000ea670       ??_ECPopupConfirm@@UAEPAXI@Z 004eb670 f i PopupConfirm.obj
 0001:000ea6b0       ?DoDataExchange@CPopupConfirm@@MAEXPAVCDataExchange@@@Z 004eb6b0 f   PopupConfirm.obj
 0001:000ea730       ?GetMessageMap@CPopupConfirm@@MBEPBUAFX_MSGMAP@@XZ 004eb730 f   PopupConfirm.obj
 0001:000ea750       ?OnInitDialog@CPopupConfirm@@MAEHXZ 004eb750 f   PopupConfirm.obj
 0001:000ea860       ?CreateObject@CPopupDlg@@SGPAVCObject@@XZ 004eb860 f   PopupDlg.obj
 0001:000ea8d0       ?GetRuntimeClass@CPopupDlg@@UBEPAUCRuntimeClass@@XZ 004eb8d0 f   PopupDlg.obj
 0001:000ea8f0       ??0CPopupDlg@@QAE@XZ       004eb8f0 f   PopupDlg.obj
 0001:000ea9e0       ??_ECPopupDlg@@UAEPAXI@Z   004eb9e0 f i PopupDlg.obj
 0001:000ea9e0       ??_GCPopupDlg@@UAEPAXI@Z   004eb9e0 f i PopupDlg.obj
 0001:000eaa20       ?DoDataExchange@CPopupDlg@@MAEXPAVCDataExchange@@@Z 004eba20 f   PopupDlg.obj
 0001:000eab50       ?GetMessageMap@CPopupDlg@@MBEPBUAFX_MSGMAP@@XZ 004ebb50 f   PopupDlg.obj
 0001:000eab70       ?OnInitDialog@CPopupDlg@@MAEHXZ 004ebb70 f   PopupDlg.obj
 0001:000eae10       ?SetLineSize@CSliderCtrl@@QAEHH@Z 004ebe10 f i PopupDlg.obj
 0001:000eae40       ?SetPageSize@CSliderCtrl@@QAEHH@Z 004ebe40 f i PopupDlg.obj
 0001:000eae70       ?SetPos@CSliderCtrl@@QAEXH@Z 004ebe70 f i PopupDlg.obj
 0001:000eaea0       ?SetTicFreq@CSliderCtrl@@QAEXH@Z 004ebea0 f i PopupDlg.obj
 0001:000eaed0       ?OnOK@CPopupDlg@@MAEXXZ    004ebed0 f   PopupDlg.obj
 0001:000eb080       ?OnDelete@CPopupDlg@@IAEXXZ 004ec080 f   PopupDlg.obj
 0001:000eb0f0       ?OnEdit@CPopupDlg@@IAEXXZ  004ec0f0 f   PopupDlg.obj
 0001:000eb150       ?EditLabel@CListCtrl@@QAEPAVCEdit@@H@Z 004ec150 f i PopupDlg.obj
 0001:000eb190       ?OnInsert@CPopupDlg@@IAEXXZ 004ec190 f   PopupDlg.obj
 0001:000eb200       ?OnEndlabeleditPopuplist@CPopupDlg@@IAEXPAUtagNMHDR@@PAJ@Z 004ec200 f   PopupDlg.obj
 0001:000eb2a0       ?OnDblclkPopuplist@CPopupDlg@@IAEXPAUtagNMHDR@@PAJ@Z 004ec2a0 f   PopupDlg.obj
 0001:000eb2d0       ?OnEnablePopWin@CPopupDlg@@IAEXXZ 004ec2d0 f   PopupDlg.obj
 0001:000eb310       ?OnUnInsert@CPopupDlg@@IAEXXZ 004ec310 f   PopupDlg.obj
 0001:000eb370       ?OnUnDelete@CPopupDlg@@IAEXXZ 004ec370 f   PopupDlg.obj
 0001:000eb3d0       ?OnUnEdit@CPopupDlg@@IAEXXZ 004ec3d0 f   PopupDlg.obj
 0001:000eb430       ?OnDblclkUnPopuplist@CPopupDlg@@IAEXPAUtagNMHDR@@PAJ@Z 004ec430 f   PopupDlg.obj
 0001:000eb460       ?OnEndlabeleditUnPopuplist@CPopupDlg@@IAEXPAUtagNMHDR@@PAJ@Z 004ec460 f   PopupDlg.obj
 0001:000eb500       ?OnKillListWin@CPopupDlg@@IAEXXZ 004ec500 f   PopupDlg.obj
 0001:000eb540       ?SetPopGroupEnable@CPopupDlg@@QAEXH@Z 004ec540 f   PopupDlg.obj
 0001:000eb5c0       ?SetListGroupEnable@CPopupDlg@@QAEXH@Z 004ec5c0 f   PopupDlg.obj
 0001:000eba80       ??0CPorterStemming@@QAE@XZ 004eca80 f   PorterStemming.obj
 0001:000ebaa0       ??_ECPorterStemming@@UAEPAXI@Z 004ecaa0 f i PorterStemming.obj
 0001:000ebaa0       ??_GCPorterStemming@@UAEPAXI@Z 004ecaa0 f i PorterStemming.obj
 0001:000ebae0       ??1CPorterStemming@@UAE@XZ 004ecae0 f   PorterStemming.obj
 0001:000ebb00       ?Stem@CPorterStemming@@QAEHPAD@Z 004ecb00 f   PorterStemming.obj
 0001:000ebd00       ??0CProgressSnakeCtrl@@QAE@XZ 004ecd00 f   ProgressSnakeCtrl.obj
 0001:000ebda0       ??0CProgressCtrl@@QAE@XZ   004ecda0 f i ProgressSnakeCtrl.obj
 0001:000ebdd0       ??_ECProgressCtrl@@UAEPAXI@Z 004ecdd0 f i ProgressSnakeCtrl.obj
 0001:000ebdd0       ??_GCProgressCtrl@@UAEPAXI@Z 004ecdd0 f i ProgressSnakeCtrl.obj
 0001:000ebe10       ??_ECProgressSnakeCtrl@@UAEPAXI@Z 004ece10 f i ProgressSnakeCtrl.obj
 0001:000ebe10       ??_GCProgressSnakeCtrl@@UAEPAXI@Z 004ece10 f i ProgressSnakeCtrl.obj
 0001:000ebe50       ??1CProgressSnakeCtrl@@UAE@XZ 004ece50 f   ProgressSnakeCtrl.obj
 0001:000ebe80       ?GetMessageMap@CProgressSnakeCtrl@@MBEPBUAFX_MSGMAP@@XZ 004ece80 f   ProgressSnakeCtrl.obj
 0001:000ebea0       ?OnEraseBkgnd@CProgressSnakeCtrl@@IAEHPAVCDC@@@Z 004ecea0 f   ProgressSnakeCtrl.obj
 0001:000ebec0       ?OnSize@CProgressSnakeCtrl@@IAEXIHH@Z 004ecec0 f   ProgressSnakeCtrl.obj
 0001:000ebf00       ?OnSetRange@CProgressSnakeCtrl@@IAEXIJ@Z 004ecf00 f   ProgressSnakeCtrl.obj
 0001:000ebf40       ?OnSetRange32@CProgressSnakeCtrl@@IAEXIJ@Z 004ecf40 f   ProgressSnakeCtrl.obj
 0001:000ebf70       ?OnGetRange@CProgressSnakeCtrl@@IAEJIJ@Z 004ecf70 f   ProgressSnakeCtrl.obj
 0001:000ebfd0       ?OnGetPos@CProgressSnakeCtrl@@IAEJIJ@Z 004ecfd0 f   ProgressSnakeCtrl.obj
 0001:000ebff0       ?OnSetPos@CProgressSnakeCtrl@@IAEJIJ@Z 004ecff0 f   ProgressSnakeCtrl.obj
 0001:000ec070       ?OnStepIt@CProgressSnakeCtrl@@IAEJIJ@Z 004ed070 f   ProgressSnakeCtrl.obj
 0001:000ec1c0       ?OnSetStep@CProgressSnakeCtrl@@IAEJIJ@Z 004ed1c0 f   ProgressSnakeCtrl.obj
 0001:000ec1f0       ?OnPaint@CProgressSnakeCtrl@@IAEXXZ 004ed1f0 f   ProgressSnakeCtrl.obj
 0001:000ec4f0       ?CopyRect@CRect@@QAEXPBUtagRECT@@@Z 004ed4f0 f i ProgressSnakeCtrl.obj
 0001:000ec520       ??0CBrush@@QAE@XZ          004ed520 f i ProgressSnakeCtrl.obj
 0001:000ec550       ?CreateSolidBrush@CBrush@@QAEHK@Z 004ed550 f i ProgressSnakeCtrl.obj
 0001:000ec580       ?FillRect@CDC@@QAEXPBUtagRECT@@PAVCBrush@@@Z 004ed580 f i ProgressSnakeCtrl.obj
 0001:000ec5b0       ??0CMemDC@@QAE@PAVCDC@@@Z  004ed5b0 f i ProgressSnakeCtrl.obj
 0001:000ec6f0       ?IsPrinting@CDC@@QBEHXZ    004ed6f0 f i ProgressSnakeCtrl.obj
 0001:000ec710       ?PtVisible@CDC@@UBEHHH@Z   004ed710 f i ProgressSnakeCtrl.obj
 0001:000ec740       ?RectVisible@CDC@@UBEHPBUtagRECT@@@Z 004ed740 f i ProgressSnakeCtrl.obj
 0001:000ec770       ?TextOutA@CDC@@UAEHHHPBDH@Z 004ed770 f i ProgressSnakeCtrl.obj
 0001:000ec7b0       ?ExtTextOutA@CDC@@UAEHHHIPBUtagRECT@@PBDIPAH@Z 004ed7b0 f i ProgressSnakeCtrl.obj
 0001:000ec7f0       ?TabbedTextOutA@CDC@@UAE?AVCSize@@HHPBDHHPAHH@Z 004ed7f0 f i ProgressSnakeCtrl.obj
 0001:000ec840       ?DrawTextA@CDC@@UAEHPBDHPAUtagRECT@@I@Z 004ed840 f i ProgressSnakeCtrl.obj
 0001:000ec880       ?GrayStringA@CDC@@UAEHPAVCBrush@@P6GHPAUHDC__@@JH@ZJHHHHH@Z 004ed880 f i ProgressSnakeCtrl.obj
 0001:000ec8d0       ?Escape@CDC@@UAEHHHPBDPAX@Z 004ed8d0 f i ProgressSnakeCtrl.obj
 0001:000ec910       ??1CMemDC@@UAE@XZ          004ed910 f i ProgressSnakeCtrl.obj
 0001:000ec9f0       ??_ECMemDC@@UAEPAXI@Z      004ed9f0 f i ProgressSnakeCtrl.obj
 0001:000ec9f0       ??_GCMemDC@@UAEPAXI@Z      004ed9f0 f i ProgressSnakeCtrl.obj
 0001:000eca30       ?DrawGradient@CProgressSnakeCtrl@@IAEXPAVCMemDC@@VCRect@@11@Z 004eda30 f   ProgressSnakeCtrl.obj
 0001:000ecd30       ?SafeStepHead@CProgressSnakeCtrl@@IAEXXZ 004edd30 f   ProgressSnakeCtrl.obj
 0001:000ecdc0       ?SafeStepTail@CProgressSnakeCtrl@@IAEXXZ 004eddc0 f   ProgressSnakeCtrl.obj
 0001:000ece90       ?ResetProgress@CProgressSnakeCtrl@@QAEXXZ 004ede90 f   ProgressSnakeCtrl.obj
 0001:000eced0       ??0CProgressWnd@@QAE@XZ    004eded0 f   ProgressWnd.obj
 0001:000ecfa0       ??_ECProgressWnd@@UAEPAXI@Z 004edfa0 f i ProgressWnd.obj
 0001:000ecfa0       ??_GCProgressWnd@@UAEPAXI@Z 004edfa0 f i ProgressWnd.obj
 0001:000ecfe0       ??0CProgressWnd@@QAE@PAVCWnd@@PBDH@Z 004edfe0 f   ProgressWnd.obj
 0001:000ed0d0       ?CommonConstruct@CProgressWnd@@IAEXXZ 004ee0d0 f   ProgressWnd.obj
 0001:000ed140       ??1CProgressWnd@@UAE@XZ    004ee140 f   ProgressWnd.obj
 0001:000ed210       ?Create@CProgressWnd@@QAEHPAVCWnd@@PBDH@Z 004ee210 f   ProgressWnd.obj
 0001:000ed510       ??BCBrush@@QBEPAUHBRUSH__@@XZ 004ee510 f i ProgressWnd.obj
 0001:000ed540       ?SetSnakeStyle@CProgressSnakeCtrl@@QAEXH@Z 004ee540 f i ProgressWnd.obj
 0001:000ed560       ?GoModal@CProgressWnd@@QAEHPBDH@Z 004ee560 f   ProgressWnd.obj
 0001:000ed610       ?SetWindowSize@CProgressWnd@@QAEXHH@Z 004ee610 f   ProgressWnd.obj
 0001:000ed960       ?SetRect@CRect@@QAEXHHHH@Z 004ee960 f i ProgressWnd.obj
 0001:000ed990       ?Clear@CProgressWnd@@QAEXXZ 004ee990 f   ProgressWnd.obj
 0001:000ed9f0       ?Hide@CProgressWnd@@QAEXXZ 004ee9f0 f   ProgressWnd.obj
 0001:000eda40       ?Show@CProgressWnd@@QAEXXZ 004eea40 f   ProgressWnd.obj
 0001:000edaa0       ?SetRange@CProgressWnd@@QAEXHHH@Z 004eeaa0 f   ProgressWnd.obj
 0001:000edb00       ?SetStep@CProgressCtrl@@QAEHH@Z 004eeb00 f i ProgressWnd.obj
 0001:000edb30       ?StepIt@CProgressWnd@@QAEHH@Z 004eeb30 f   ProgressWnd.obj
 0001:000edb80       ?StepIt@CProgressCtrl@@QAEHXZ 004eeb80 f i ProgressWnd.obj
 0001:000edbb0       ?SetStep@CProgressWnd@@QAEHH@Z 004eebb0 f   ProgressWnd.obj
 0001:000edbf0       ?SetPos@CProgressWnd@@QAEHHH@Z 004eebf0 f   ProgressWnd.obj
 0001:000edc40       ?ResetProgress@CProgressWnd@@QAEXXZ 004eec40 f   ProgressWnd.obj
 0001:000edc80       ?SetText@CProgressWnd@@QAEXPBD@Z 004eec80 f   ProgressWnd.obj
 0001:000edcc0       ?GetMessageMap@CProgressWnd@@MBEPBUAFX_MSGMAP@@XZ 004eecc0 f   ProgressWnd.obj
 0001:000edce0       ?OnEraseBkgnd@CProgressWnd@@IAEHPAVCDC@@@Z 004eece0 f   ProgressWnd.obj
 0001:000edda0       ?PatBlt@CDC@@QAEHHHHHK@Z   004eeda0 f i ProgressWnd.obj
 0001:000edde0       ?OnCancel@CProgressWnd@@IAEXXZ 004eede0 f   ProgressWnd.obj
 0001:000ede60       ?DestroyWindow@CProgressWnd@@UAEHXZ 004eee60 f   ProgressWnd.obj
 0001:000edec0       ?IsFocused@CProgressWnd@@QAEHXZ 004eeec0 f   ProgressWnd.obj
 0001:000edf00       ?PeekAndPump@CProgressWnd@@QAEXH@Z 004eef00 f   ProgressWnd.obj
 0001:000ee000       ?GetPreviousSettings@CProgressWnd@@IAEXXZ 004ef000 f   ProgressWnd.obj
 0001:000ee0a0       ?SaveCurrentSettings@CProgressWnd@@IAEXXZ 004ef0a0 f   ProgressWnd.obj
 0001:000ee1a0       ??0CProxyInfo@@QAE@PAVCWnd@@@Z 004ef1a0 f   ProxyInfo.obj
 0001:000ee250       ??_ECProxyInfo@@UAEPAXI@Z  004ef250 f i ProxyInfo.obj
 0001:000ee250       ??_GCProxyInfo@@UAEPAXI@Z  004ef250 f i ProxyInfo.obj
 0001:000ee290       ??1CProxyInfo@@UAE@XZ      004ef290 f i ProxyInfo.obj
 0001:000ee300       ?DoDataExchange@CProxyInfo@@MAEXPAVCDataExchange@@@Z 004ef300 f   ProxyInfo.obj
 0001:000ee360       ?GetMessageMap@CProxyInfo@@MBEPBUAFX_MSGMAP@@XZ 004ef360 f   ProxyInfo.obj
 0001:000ee380       ?OnOK@CProxyInfo@@MAEXXZ   004ef380 f   ProxyInfo.obj
 0001:000ee3f0       ?OnInitDialog@CProxyInfo@@MAEHXZ 004ef3f0 f   ProxyInfo.obj
 0001:000ee500       ??0CProxyItem@@QAE@XZ      004ef500 f   ProxyList.obj
 0001:000ee570       ??_ECProxyItem@@UAEPAXI@Z  004ef570 f i ProxyList.obj
 0001:000ee570       ??_GCProxyItem@@UAEPAXI@Z  004ef570 f i ProxyList.obj
 0001:000ee5b0       ??1CProxyItem@@UAE@XZ      004ef5b0 f   ProxyList.obj
 0001:000ee610       ??0CProxyList@@QAE@XZ      004ef610 f   ProxyList.obj
 0001:000ee690       ??_ECProxyList@@UAEPAXI@Z  004ef690 f i ProxyList.obj
 0001:000ee690       ??_GCProxyList@@UAEPAXI@Z  004ef690 f i ProxyList.obj
 0001:000ee6d0       ??1CProxyList@@UAE@XZ      004ef6d0 f   ProxyList.obj
 0001:000ee7b0       ??0CProxyCategory@@QAE@XZ  004ef7b0 f   ProxyList.obj
 0001:000ee7e0       ??_ECProxyCategory@@UAEPAXI@Z 004ef7e0 f i ProxyList.obj
 0001:000ee7e0       ??_GCProxyCategory@@UAEPAXI@Z 004ef7e0 f i ProxyList.obj
 0001:000ee820       ??0CProxyCategory@@QAE@AAV0@@Z 004ef820 f   ProxyList.obj
 0001:000ee890       ??1CProxyCategory@@UAE@XZ  004ef890 f   ProxyList.obj
 0001:000ee8f0       ?RemoveAll@CProxyCategory@@QAEXXZ 004ef8f0 f   ProxyList.obj
 0001:000ee970       ?GetWebProxyList@CProxyCategory@@QAEPAVCProxyList@@H@Z 004ef970 f   ProxyList.obj
 0001:000ee9f0       ?GetProxyServerList@CProxyCategory@@QAEPAVCProxyList@@XZ 004ef9f0 f   ProxyList.obj
 0001:000eea60       ?Find@CProxyList@@QAEHPBD@Z 004efa60 f   ProxyList.obj
 0001:000eead0       ?Add@CProxyList@@QAEXPBD0H@Z 004efad0 f   ProxyList.obj
 0001:000eeba0       ?LoadProxies@CProxyCategory@@QAEXXZ 004efba0 f   ProxyList.obj
 0001:000ef460       ?SaveProxies@CProxyCategory@@QAEXXZ 004f0460 f   ProxyList.obj
 0001:000ef770       ?FindIndex@CProxyCategory@@QAEPAVCProxyItem@@HPAPAVCProxyList@@PAH@Z 004f0770 f   ProxyList.obj
 0001:000ef800       ?FindIndex@CProxyList@@QAEHH@Z 004f0800 f   ProxyList.obj
 0001:000ef860       ?Copy@CProxyCategory@@QAEXAAV1@@Z 004f0860 f   ProxyList.obj
 0001:000efa60       ??1CSearchList@@UAE@XZ     004f0a60 f   ProxyList.obj
 0001:000efac0       ?Clean@CSearchList@@QAEXXZ 004f0ac0 f   ProxyList.obj
 0001:000efb40       ??_GCSearch@@QAEPAXI@Z     004f0b40 f i ProxyList.obj
 0001:000efb80       ??1CSearch@@QAE@XZ         004f0b80 f i ProxyList.obj
 0001:000efbf0       ?Lookup@CSearchList@@QAEHPBDAAVCString@@@Z 004f0bf0 f   ProxyList.obj
 0001:000efc80       ?GetIconIndex@CSearchList@@QAEHH@Z 004f0c80 f   ProxyList.obj
 0001:000efd00       ?LoadSearchList@CSearchList@@QAEHXZ 004f0d00 f   ProxyList.obj
 0001:000effd0       ??0CSearch@@QAE@XZ         004f0fd0 f i ProxyList.obj
 0001:000f0040       ??1CLinkList@@UAE@XZ       004f1040 f   ProxyList.obj
 0001:000f00a0       ?Clean@CLinkList@@QAEXXZ   004f10a0 f   ProxyList.obj
 0001:000f0120       ??_GCLink@@QAEPAXI@Z       004f1120 f i ProxyList.obj
 0001:000f0160       ??1CLink@@QAE@XZ           004f1160 f i ProxyList.obj
 0001:000f01c0       ??1CGestureList@@UAE@XZ    004f11c0 f   ProxyList.obj
 0001:000f0220       ?Clean@CGestureList@@QAEXXZ 004f1220 f   ProxyList.obj
 0001:000f02a0       ??_GCGesture@@QAEPAXI@Z    004f12a0 f i ProxyList.obj
 0001:000f02e0       ??1CGesture@@QAE@XZ        004f12e0 f i ProxyList.obj
 0001:000f0300       ?GetCmdFromName@CGestureList@@QAEHPBD@Z 004f1300 f   ProxyList.obj
 0001:000f0370       ?SaveGestureList@CGestureList@@QAEXXZ 004f1370 f   ProxyList.obj
 0001:000f0450       ?LoadGestureList@CGestureList@@QAEHXZ 004f1450 f   ProxyList.obj
 0001:000f05d0       ??1CFavIconList@@UAE@XZ    004f15d0 f   ProxyList.obj
 0001:000f0630       ?Clean@CFavIconList@@QAEXXZ 004f1630 f   ProxyList.obj
 0001:000f06b0       ??_GCFavIcon@@QAEPAXI@Z    004f16b0 f i ProxyList.obj
 0001:000f06f0       ??1CFavIcon@@QAE@XZ        004f16f0 f i ProxyList.obj
 0001:000f0710       ?Find@CFavIconList@@QAEHPBD@Z 004f1710 f   ProxyList.obj
 0001:000f0790       ?Insert@CFavIconList@@QAEXPBDH@Z 004f1790 f   ProxyList.obj
 0001:000f08b0       ??0CFavIcon@@QAE@XZ        004f18b0 f i ProxyList.obj
 0001:000f08e0       ??0?$CArray@PAVCProxyItem@@PAV1@@@QAE@XZ 004f18e0 f i ProxyList.obj
 0001:000f0930       ??1?$CArray@PAVCProxyItem@@PAV1@@@UAE@XZ 004f1930 f i ProxyList.obj
 0001:000f09c0       ?Serialize@?$CArray@PAVCProxyItem@@PAV1@@@UAEXAAVCArchive@@@Z 004f19c0 f i ProxyList.obj
 0001:000f0a30       ??0?$CArray@PAVCProxyList@@PAV1@@@QAE@XZ 004f1a30 f i ProxyList.obj
 0001:000f0a80       ?RemoveAll@?$CArray@PAVCProxyList@@PAV1@@@QAEXXZ 004f1a80 f i ProxyList.obj
 0001:000f0aa0       ??1?$CArray@PAVCProxyList@@PAV1@@@UAE@XZ 004f1aa0 f i ProxyList.obj
 0001:000f0b30       ?Serialize@?$CArray@PAVCProxyList@@PAV1@@@UAEXAAVCArchive@@@Z 004f1b30 f i ProxyList.obj
 0001:000f0ba0       ?RemoveAll@?$CArray@PAVCSearch@@PAV1@@@QAEXXZ 004f1ba0 f i ProxyList.obj
 0001:000f0bc0       ?ElementAt@?$CArray@PAVCSearch@@PAV1@@@QAEAAPAVCSearch@@H@Z 004f1bc0 f i ProxyList.obj
 0001:000f0bf0       ?Add@?$CArray@PAVCSearch@@PAV1@@@QAEHPAVCSearch@@@Z 004f1bf0 f i ProxyList.obj
 0001:000f0c30       ?RemoveAll@?$CArray@PAVCLink@@PAV1@@@QAEXXZ 004f1c30 f i ProxyList.obj
 0001:000f0c50       ?RemoveAll@?$CArray@PAVCGesture@@PAV1@@@QAEXXZ 004f1c50 f i ProxyList.obj
 0001:000f0c70       ?ElementAt@?$CArray@PAVCGesture@@PAV1@@@QAEAAPAVCGesture@@H@Z 004f1c70 f i ProxyList.obj
 0001:000f0ca0       ?GetSize@?$CArray@PAVCFavIcon@@PAV1@@@QBEHXZ 004f1ca0 f i ProxyList.obj
 0001:000f0cc0       ?GetUpperBound@?$CArray@PAVCFavIcon@@PAV1@@@QBEHXZ 004f1cc0 f i ProxyList.obj
 0001:000f0ce0       ?RemoveAll@?$CArray@PAVCFavIcon@@PAV1@@@QAEXXZ 004f1ce0 f i ProxyList.obj
 0001:000f0d00       ?GetAt@?$CArray@PAVCFavIcon@@PAV1@@@QBEPAVCFavIcon@@H@Z 004f1d00 f i ProxyList.obj
 0001:000f0d30       ?Add@?$CArray@PAVCFavIcon@@PAV1@@@QAEHPAVCFavIcon@@@Z 004f1d30 f i ProxyList.obj
 0001:000f0d70       ??_E?$CArray@PAVCProxyItem@@PAV1@@@UAEPAXI@Z 004f1d70 f i ProxyList.obj
 0001:000f0d70       ??_G?$CArray@PAVCProxyItem@@PAV1@@@UAEPAXI@Z 004f1d70 f i ProxyList.obj
 0001:000f0db0       ??_G?$CArray@PAVCProxyList@@PAV1@@@UAEPAXI@Z 004f1db0 f i ProxyList.obj
 0001:000f0db0       ??_E?$CArray@PAVCProxyList@@PAV1@@@UAEPAXI@Z 004f1db0 f i ProxyList.obj
 0001:000f0df0       ?SerializeElements@@YGXAAVCArchive@@PAPAVCProxyItem@@H@Z 004f1df0 f i ProxyList.obj
 0001:000f0e40       ?SerializeElements@@YGXAAVCArchive@@PAPAVCProxyList@@H@Z 004f1e40 f i ProxyList.obj
 0001:000f0e90       ?SetAtGrow@?$CArray@PAVCSearch@@PAV1@@@QAEXHPAVCSearch@@@Z 004f1e90 f i ProxyList.obj
 0001:000f0ed0       ?SetAtGrow@?$CArray@PAVCFavIcon@@PAV1@@@QAEXHPAVCFavIcon@@@Z 004f1ed0 f i ProxyList.obj
 0001:000f0f50       ??0CPsychoStateBar@@QAE@PAVCWnd@@@Z 004f1f50 f   PsychoStateBar.obj
 0001:000f0f80       ??_GCPsychoStateBar@@UAEPAXI@Z 004f1f80 f i PsychoStateBar.obj
 0001:000f0f80       ??_ECPsychoStateBar@@UAEPAXI@Z 004f1f80 f i PsychoStateBar.obj
 0001:000f0fc0       ?DoDataExchange@CPsychoStateBar@@MAEXPAVCDataExchange@@@Z 004f1fc0 f   PsychoStateBar.obj
 0001:000f0ff0       ?Create@CPsychoStateBar@@UAEHPAVCWnd@@III@Z 004f1ff0 f   PsychoStateBar.obj
 0001:000f1040       ?GetMessageMap@CPsychoStateBar@@MBEPBUAFX_MSGMAP@@XZ 004f2040 f   PsychoStateBar.obj
 0001:000f1060       ?OnInitDialog@CPsychoStateBar@@MAEHXZ 004f2060 f   PsychoStateBar.obj
 0001:000f1090       ??0CPuncMark@@QAE@XZ       004f2090 f   PuncMark.obj
 0001:000f10b0       ??_ECPuncMark@@UAEPAXI@Z   004f20b0 f i PuncMark.obj
 0001:000f10b0       ??_GCPuncMark@@UAEPAXI@Z   004f20b0 f i PuncMark.obj
 0001:000f10f0       ??1CPuncMark@@UAE@XZ       004f20f0 f   PuncMark.obj
 0001:000f1110       ?RemovePuncMark@CPuncMark@@QAEXPAD@Z 004f2110 f   PuncMark.obj
 0001:000f1190       ??0CRuleSet@@QAE@XZ        004f2190 f   QueryLearner.obj
 0001:000f1200       ??_GCRuleSet@@UAEPAXI@Z    004f2200 f i QueryLearner.obj
 0001:000f1200       ??_ECRuleSet@@UAEPAXI@Z    004f2200 f i QueryLearner.obj
 0001:000f1240       ??0CRuleSet@@QAE@ABV0@@Z   004f2240 f   QueryLearner.obj
 0001:000f1310       ??1CRuleSet@@UAE@XZ        004f2310 f   QueryLearner.obj
 0001:000f1370       ?append@CRuleSet@@QAEXABV1@@Z 004f2370 f   QueryLearner.obj
 0001:000f1410       ?serialize@CRuleSet@@QAEHAAVCArchive@@@Z 004f2410 f   QueryLearner.obj
 0001:000f1520       ?serialize@CRuleRec@@QAEHAAVCArchive@@@Z 004f2520 f i QueryLearner.obj
 0001:000f1630       ?serialize@CRuleCondition@@QAEHAAVCArchive@@@Z 004f2630 f i QueryLearner.obj
 0001:000f1750       ?save@CRuleSet@@QAEXABVCString@@@Z 004f2750 f   QueryLearner.obj
 0001:000f1800       ?load@CRuleSet@@QAEXABVCString@@@Z 004f2800 f   QueryLearner.obj
 0001:000f18c0       ??0CQueryLearner@@QAE@XZ   004f28c0 f   QueryLearner.obj
 0001:000f1950       ??_ECQueryLearner@@UAEPAXI@Z 004f2950 f i QueryLearner.obj
 0001:000f1950       ??_GCQueryLearner@@UAEPAXI@Z 004f2950 f i QueryLearner.obj
 0001:000f1990       ??1CQueryLearner@@UAE@XZ   004f2990 f   QueryLearner.obj
 0001:000f1a00       ?serialize@CQueryLearner@@QAEHAAVCArchive@@@Z 004f2a00 f   QueryLearner.obj
 0001:000f1aa0       ?Save@CQueryLearner@@QAEXPBD@Z 004f2aa0 f   QueryLearner.obj
 0001:000f1b40       ?Load@CQueryLearner@@QAEXPBD@Z 004f2b40 f   QueryLearner.obj
 0001:000f1be0       ?buildLearner@CQueryLearner@@QAEXXZ 004f2be0 f   QueryLearner.obj
 0001:000f1cc0       ?Predict@CQueryLearner@@QAEXXZ 004f2cc0 f   QueryLearner.obj
 0001:000f1df0       ?GetSize@CRuleSet@@QAEHXZ  004f2df0 f i QueryLearner.obj
 0001:000f1e10       ?inList@CQueryLearner@@IAE_NHAAV?$CArray@HAAH@@@Z 004f2e10 f   QueryLearner.obj
 0001:000f1e60       ?searchWords@CQueryLearner@@IAENAAVCRuleRec@@AA_NAAV?$CArray@HAAH@@@Z 004f2e60 f   QueryLearner.obj
 0001:000f2280       ?checkWord@CQueryLearner@@IAE_NHAAVCRuleRec@@HAAN@Z 004f3280 f   QueryLearner.obj
 0001:000f2340       ?meetCondition@CQueryLearner@@IAE_NHAAVCRuleCondition@@AAN@Z 004f3340 f   QueryLearner.obj
 0001:000f2590       ??0?$CArray@VCRuleRec@@AAV1@@@QAE@XZ 004f3590 f i QueryLearner.obj
 0001:000f25e0       ?RemoveAll@?$CArray@VCRuleRec@@AAV1@@@QAEXXZ 004f35e0 f i QueryLearner.obj
 0001:000f2600       ??A?$CArray@VCRuleRec@@AAV1@@@QBE?AVCRuleRec@@H@Z 004f3600 f i QueryLearner.obj
 0001:000f2640       ??1?$CArray@VCRuleRec@@AAV1@@@UAE@XZ 004f3640 f i QueryLearner.obj
 0001:000f26d0       ?Serialize@?$CArray@VCRuleRec@@AAV1@@@UAEXAAVCArchive@@@Z 004f36d0 f i QueryLearner.obj
 0001:000f2740       ??_E?$CArray@VCRuleRec@@AAV1@@@UAEPAXI@Z 004f3740 f i QueryLearner.obj
 0001:000f2740       ??_G?$CArray@VCRuleRec@@AAV1@@@UAEPAXI@Z 004f3740 f i QueryLearner.obj
 0001:000f2780       ?GetAt@?$CArray@VCRuleRec@@AAV1@@@QBE?AVCRuleRec@@H@Z 004f3780 f i QueryLearner.obj
 0001:000f27c0       ??0CRuleRec@@QAE@ABV0@@Z   004f37c0 f i QueryLearner.obj
 0001:000f28c0       ?SerializeElements@@YGXAAVCArchive@@PAVCRuleRec@@H@Z 004f38c0 f i QueryLearner.obj
 0001:000f2990       ??0CQuickSearchDlg@@QAE@PAVCWnd@@@Z 004f3990 f   QuickSearchDlg.obj
 0001:000f2a30       ??_GCQuickSearchDlg@@UAEPAXI@Z 004f3a30 f i QuickSearchDlg.obj
 0001:000f2a30       ??_ECQuickSearchDlg@@UAEPAXI@Z 004f3a30 f i QuickSearchDlg.obj
 0001:000f2a70       ?DoDataExchange@CQuickSearchDlg@@MAEXPAVCDataExchange@@@Z 004f3a70 f   QuickSearchDlg.obj
 0001:000f2af0       ?GetMessageMap@CQuickSearchDlg@@MBEPBUAFX_MSGMAP@@XZ 004f3af0 f   QuickSearchDlg.obj
 0001:000f2b10       ?OnInitDialog@CQuickSearchDlg@@MAEHXZ 004f3b10 f   QuickSearchDlg.obj
 0001:000f2dd0       ?OnOK@CQuickSearchDlg@@MAEXXZ 004f3dd0 f   QuickSearchDlg.obj
 0001:000f2fe0       ?OnUpdate@CQuickSearchDlg@@IAEXXZ 004f3fe0 f   QuickSearchDlg.obj
 0001:000f3220       ?OnInsert@CQuickSearchDlg@@IAEXXZ 004f4220 f   QuickSearchDlg.obj
 0001:000f35a0       ?OnDelete@CQuickSearchDlg@@IAEXXZ 004f45a0 f   QuickSearchDlg.obj
 0001:000f3630       ?OnItemchangedSeachlist@CQuickSearchDlg@@IAEXPAUtagNMHDR@@PAJ@Z 004f4630 f   QuickSearchDlg.obj
 0001:000f3800       ?OnClean@CQuickSearchDlg@@IAEXXZ 004f4800 f   QuickSearchDlg.obj
 0001:000f3850       ?OnDeltaposSpin@CQuickSearchDlg@@IAEXPAUtagNMHDR@@PAJ@Z 004f4850 f   QuickSearchDlg.obj
 0001:000f3a60       ?OnGetIcon@CQuickSearchDlg@@IAEXXZ 004f4a60 f   QuickSearchDlg.obj
 0001:000f4180       ?LoadEmotionPredictionsHistory@Recommendation@@SAXVCString@@@Z 004f5180 f   Recommendation.obj
 0001:000f4860       ?UpdateEmotionPredictionsHistory@Recommendation@@SAXXZ 004f5860 f   Recommendation.obj
 0001:000f4870       ?SaveEmotionPredictionsHistory@Recommendation@@SAXVCString@@@Z 004f5870 f   Recommendation.obj
 0001:000f4da0       ?count@?$map@VCHighTime@@NU?$less@VCHighTime@@@std@@V?$allocator@N@3@@std@@QBEIABVCHighTime@@@Z 004f5da0 f i Recommendation.obj
 0001:000f4dd0       ?count@?$_Tree@VCHighTime@@U?$pair@$$CBVCHighTime@@N@std@@U_Kfn@?$map@VCHighTime@@NU?$less@VCHighTime@@@std@@V?$allocator@N@3@@3@U?$less@VCHighTime@@@3@V?$allocator@N@3@@std@@QBEIABVCHighTime@@@Z 004f5dd0 f i Recommendation.obj
 0001:000f4e20       ?equal_range@?$_Tree@VCHighTime@@U?$pair@$$CBVCHighTime@@N@std@@U_Kfn@?$map@VCHighTime@@NU?$less@VCHighTime@@@std@@V?$allocator@N@3@@3@U?$less@VCHighTime@@@3@V?$allocator@N@3@@std@@QBE?AU?$pair@Vconst_iterator@?$_Tree@VCHighTime@@U?$pair@$$CBVCHighTime@@N@std@@U_Kfn@?$map@VCHighTime@@NU?$less@VCHighTime@@@std@@V?$allocator@N@3@@3@U?$less@VCHighTime@@@3@V?$allocator@N@3@@std@@V123@@2@ABVCHighTime@@@Z 004f5e20 f i Recommendation.obj
 0001:000f4e70       ?lower_bound@?$_Tree@VCHighTime@@U?$pair@$$CBVCHighTime@@N@std@@U_Kfn@?$map@VCHighTime@@NU?$less@VCHighTime@@@std@@V?$allocator@N@3@@3@U?$less@VCHighTime@@@3@V?$allocator@N@3@@std@@QBE?AVconst_iterator@12@ABVCHighTime@@@Z 004f5e70 f i Recommendation.obj
 0001:000f4eb0       ?upper_bound@?$_Tree@VCHighTime@@U?$pair@$$CBVCHighTime@@N@std@@U_Kfn@?$map@VCHighTime@@NU?$less@VCHighTime@@@std@@V?$allocator@N@3@@3@U?$less@VCHighTime@@@3@V?$allocator@N@3@@std@@QBE?AVconst_iterator@12@ABVCHighTime@@@Z 004f5eb0 f i Recommendation.obj
 0001:000f4ef0       ??0?$pair@Vconst_iterator@?$_Tree@VCHighTime@@U?$pair@$$CBVCHighTime@@N@std@@U_Kfn@?$map@VCHighTime@@NU?$less@VCHighTime@@@std@@V?$allocator@N@3@@3@U?$less@VCHighTime@@@3@V?$allocator@N@3@@std@@V123@@std@@QAE@ABVconst_iterator@?$_Tree@VCHighTime@@U?$pair@$$CBVCHighTime@@N@std@@U_Kfn@?$map@VCHighTime@@NU?$less@VCHighTime@@@std@@V?$allocator@N@3@@3@U?$less@VCHighTime@@@3@V?$allocator@N@3@@1@0@Z 004f5ef0 f i Recommendation.obj
 0001:000f4f20       ?_Lbound@?$_Tree@VCHighTime@@U?$pair@$$CBVCHighTime@@N@std@@U_Kfn@?$map@VCHighTime@@NU?$less@VCHighTime@@@std@@V?$allocator@N@3@@3@U?$less@VCHighTime@@@3@V?$allocator@N@3@@std@@IBEPAU_Node@12@ABVCHighTime@@@Z 004f5f20 f i Recommendation.obj
 0001:000f4fb0       ?_Ubound@?$_Tree@VCHighTime@@U?$pair@$$CBVCHighTime@@N@std@@U_Kfn@?$map@VCHighTime@@NU?$less@VCHighTime@@@std@@V?$allocator@N@3@@3@U?$less@VCHighTime@@@3@V?$allocator@N@3@@std@@IBEPAU_Node@12@ABVCHighTime@@@Z 004f5fb0 f i Recommendation.obj
 0001:000f5040       ??0const_iterator@?$_Tree@VCHighTime@@U?$pair@$$CBVCHighTime@@N@std@@U_Kfn@?$map@VCHighTime@@NU?$less@VCHighTime@@@std@@V?$allocator@N@3@@3@U?$less@VCHighTime@@@3@V?$allocator@N@3@@std@@QAE@ABViterator@12@@Z 004f6040 f i Recommendation.obj
 0001:000f5070       ?_Root@?$_Tree@VCHighTime@@U?$pair@$$CBVCHighTime@@N@std@@U_Kfn@?$map@VCHighTime@@NU?$less@VCHighTime@@@std@@V?$allocator@N@3@@3@U?$less@VCHighTime@@@3@V?$allocator@N@3@@std@@IBEAAPAU_Node@12@XZ 004f6070 f i Recommendation.obj
 0001:000f50a0       ?_Distance@std@@YAXVconst_iterator@?$_Tree@VCHighTime@@U?$pair@$$CBVCHighTime@@N@std@@U_Kfn@?$map@VCHighTime@@NU?$less@VCHighTime@@@std@@V?$allocator@N@3@@3@U?$less@VCHighTime@@@3@V?$allocator@N@3@@1@0AAI@Z 004f60a0 f i Recommendation.obj
 0001:000f50e0       ?_Iter_cat@std@@YA?AUbidirectional_iterator_tag@1@ABU?$iterator@Ubidirectional_iterator_tag@std@@U?$pair@$$CBVCHighTime@@N@2@H@1@@Z 004f60e0 f i Recommendation.obj
 0001:000f5110       ?_Distance@std@@YAXVconst_iterator@?$_Tree@VCHighTime@@U?$pair@$$CBVCHighTime@@N@std@@U_Kfn@?$map@VCHighTime@@NU?$less@VCHighTime@@@std@@V?$allocator@N@3@@3@U?$less@VCHighTime@@@3@V?$allocator@N@3@@1@0AAIUbidirectional_iterator_tag@1@@Z 004f6110 f i Recommendation.obj
 0001:000f5210       ??Econst_iterator@?$_Tree@VCHighTime@@U?$pair@$$CBVCHighTime@@N@std@@U_Kfn@?$map@VCHighTime@@NU?$less@VCHighTime@@@std@@V?$allocator@N@3@@3@U?$less@VCHighTime@@@3@V?$allocator@N@3@@std@@QAEAAV012@XZ 004f6210 f i Recommendation.obj
 0001:000f5230       ??9const_iterator@?$_Tree@VCHighTime@@U?$pair@$$CBVCHighTime@@N@std@@U_Kfn@?$map@VCHighTime@@NU?$less@VCHighTime@@@std@@V?$allocator@N@3@@3@U?$less@VCHighTime@@@3@V?$allocator@N@3@@std@@QBE_NABV012@@Z 004f6230 f i Recommendation.obj
 0001:000f5260       ??8const_iterator@?$_Tree@VCHighTime@@U?$pair@$$CBVCHighTime@@N@std@@U_Kfn@?$map@VCHighTime@@NU?$less@VCHighTime@@@std@@V?$allocator@N@3@@3@U?$less@VCHighTime@@@3@V?$allocator@N@3@@std@@QBE_NABV012@@Z 004f6260 f i Recommendation.obj
 0001:000f5310       ??0CSAPrefsDialog@@QAE@PAVCWnd@@@Z 004f6310 f   SAPrefsDialog.obj
 0001:000f5400       ??0CTreeCtrl@@QAE@XZ       004f6400 f i SAPrefsDialog.obj
 0001:000f5430       ??_GCTreeCtrl@@UAEPAXI@Z   004f6430 f i SAPrefsDialog.obj
 0001:000f5430       ??_ECTreeCtrl@@UAEPAXI@Z   004f6430 f i SAPrefsDialog.obj
 0001:000f5470       ??_ECSAPrefsDialog@@UAEPAXI@Z 004f6470 f i SAPrefsDialog.obj
 0001:000f5470       ??_GCSAPrefsDialog@@UAEPAXI@Z 004f6470 f i SAPrefsDialog.obj
 0001:000f54b0       ??1CSAPrefsDialog@@UAE@XZ  004f64b0 f   SAPrefsDialog.obj
 0001:000f55b0       ?GetAt@CPtrArray@@QBEPAXH@Z 004f65b0 f i SAPrefsDialog.obj
 0001:000f55e0       ??_GpageStruct@@QAEPAXI@Z  004f65e0 f i SAPrefsDialog.obj
 0001:000f5620       ??1pageStruct@@QAE@XZ      004f6620 f i SAPrefsDialog.obj
 0001:000f5640       ?DoDataExchange@CSAPrefsDialog@@MAEXPAVCDataExchange@@@Z 004f6640 f   SAPrefsDialog.obj
 0001:000f5690       ?GetMessageMap@CSAPrefsDialog@@MBEPBUAFX_MSGMAP@@XZ 004f6690 f   SAPrefsDialog.obj
 0001:000f56b0       ?PreTranslateMessage@CSAPrefsDialog@@UAEHPAUtagMSG@@@Z 004f66b0 f   SAPrefsDialog.obj
 0001:000f5770       ?OnCreate@CSAPrefsDialog@@IAEHPAUtagCREATESTRUCTA@@@Z 004f6770 f   SAPrefsDialog.obj
 0001:000f57a0       ?OnInitDialog@CSAPrefsDialog@@MAEHXZ 004f67a0 f   SAPrefsDialog.obj
 0001:000f59d0       ?InsertItem@CTreeCtrl@@QAEPAU_TREEITEM@@PAUtagTVINSERTSTRUCTA@@@Z 004f69d0 f i SAPrefsDialog.obj
 0001:000f5a00       ?FindHTREEItemForDlg@CSAPrefsDialog@@IAEPAU_TREEITEM@@PAVCSAPrefsSubDlg@@@Z 004f6a00 f   SAPrefsDialog.obj
 0001:000f5a50       ?AddPage@CSAPrefsDialog@@QAE_NAAVCSAPrefsSubDlg@@PBDPAV2@@Z 004f6a50 f   SAPrefsDialog.obj
 0001:000f5b20       ?GetID@CSAPrefsSubDlg@@QAEIXZ 004f6b20 f i SAPrefsDialog.obj
 0001:000f5b40       ??0pageStruct@@QAE@XZ      004f6b40 f i SAPrefsDialog.obj
 0001:000f5b70       ?PreCreateWindow@CSAPrefsDialog@@MAEHAAUtagCREATESTRUCTA@@@Z 004f6b70 f   SAPrefsDialog.obj
 0001:000f5bd0       ?ShowPage@CSAPrefsDialog@@QAE_NPAVCSAPrefsSubDlg@@@Z 004f6bd0 f   SAPrefsDialog.obj
 0001:000f5c50       ?ShowPage@CSAPrefsDialog@@QAE_NH@Z 004f6c50 f   SAPrefsDialog.obj
 0001:000f5df0       ?SelectItem@CTreeCtrl@@QAEHPAU_TREEITEM@@@Z 004f6df0 f i SAPrefsDialog.obj
 0001:000f5e20       ?OnOK@CSAPrefsDialog@@MAEXXZ 004f6e20 f   SAPrefsDialog.obj
 0001:000f5e50       ?EndOK@CSAPrefsDialog@@IAE_NXZ 004f6e50 f   SAPrefsDialog.obj
 0001:000f5f80       ?OnCancel@CSAPrefsDialog@@MAEXXZ 004f6f80 f   SAPrefsDialog.obj
 0001:000f6010       ?EndSpecial@CSAPrefsDialog@@QAEXI_N@Z 004f7010 f   SAPrefsDialog.obj
 0001:000f6050       ?OnSelchangingPageTree@CSAPrefsDialog@@IAEXPAUtagNMHDR@@PAJ@Z 004f7050 f   SAPrefsDialog.obj
 0001:000f6130       ?OnSelchangedPageTree@CSAPrefsDialog@@IAEXPAUtagNMHDR@@PAJ@Z 004f7130 f   SAPrefsDialog.obj
 0001:000f6200       ?OnGetdispinfoPageTree@CSAPrefsDialog@@IAEXPAUtagNMHDR@@PAJ@Z 004f7200 f   SAPrefsDialog.obj
 0001:000f6260       ?OnChangePage@CSAPrefsDialog@@IAEJIJ@Z 004f7260 f   SAPrefsDialog.obj
 0001:000f62a0       ?OnSetFocusWnd@CSAPrefsDialog@@IAEJIJ@Z 004f72a0 f   SAPrefsDialog.obj
 0001:000f62d0       ??0?$CMap@PAVCSAPrefsSubDlg@@PAV1@KAAK@@QAE@H@Z 004f72d0 f i SAPrefsDialog.obj
 0001:000f6340       ?Lookup@?$CMap@PAVCSAPrefsSubDlg@@PAV1@KAAK@@QBEHPAVCSAPrefsSubDlg@@AAK@Z 004f7340 f i SAPrefsDialog.obj
 0001:000f6390       ?SetAt@?$CMap@PAVCSAPrefsSubDlg@@PAV1@KAAK@@QAEXPAVCSAPrefsSubDlg@@AAK@Z 004f7390 f i SAPrefsDialog.obj
 0001:000f63c0       ??1?$CMap@PAVCSAPrefsSubDlg@@PAV1@KAAK@@UAE@XZ 004f73c0 f i SAPrefsDialog.obj
 0001:000f6420       ?Serialize@?$CMap@PAVCSAPrefsSubDlg@@PAV1@KAAK@@UAEXAAVCArchive@@@Z 004f7420 f i SAPrefsDialog.obj
 0001:000f6520       ??_G?$CMap@PAVCSAPrefsSubDlg@@PAV1@KAAK@@UAEPAXI@Z 004f7520 f i SAPrefsDialog.obj
 0001:000f6520       ??_E?$CMap@PAVCSAPrefsSubDlg@@PAV1@KAAK@@UAEPAXI@Z 004f7520 f i SAPrefsDialog.obj
 0001:000f6560       ??A?$CMap@PAVCSAPrefsSubDlg@@PAV1@KAAK@@QAEAAKPAVCSAPrefsSubDlg@@@Z 004f7560 f i SAPrefsDialog.obj
 0001:000f65f0       ?RemoveAll@?$CMap@PAVCSAPrefsSubDlg@@PAV1@KAAK@@QAEXXZ 004f75f0 f i SAPrefsDialog.obj
 0001:000f66b0       ?GetAssocAt@?$CMap@PAVCSAPrefsSubDlg@@PAV1@KAAK@@IBEPAUCAssoc@1@PAVCSAPrefsSubDlg@@AAI@Z 004f76b0 f i SAPrefsDialog.obj
 0001:000f6730       ?SerializeElements@@YGXAAVCArchive@@PAPAVCSAPrefsSubDlg@@H@Z 004f7730 f i SAPrefsDialog.obj
 0001:000f6780       ?SerializeElements@@YGXAAVCArchive@@PAKH@Z 004f7780 f i SAPrefsDialog.obj
 0001:000f6810       ?InitHashTable@?$CMap@PAVCSAPrefsSubDlg@@PAV1@KAAK@@QAEXIH@Z 004f7810 f i SAPrefsDialog.obj
 0001:000f6890       ?NewAssoc@?$CMap@PAVCSAPrefsSubDlg@@PAV1@KAAK@@IAEPAUCAssoc@1@XZ 004f7890 f i SAPrefsDialog.obj
 0001:000f6970       ?DestructElements@@YGXPAKH@Z 004f7970 f i SAPrefsDialog.obj
 0001:000f69a0       ?DestructElements@@YGXPAPAVCSAPrefsSubDlg@@H@Z 004f79a0 f i SAPrefsDialog.obj
 0001:000f69d0       ?HashKey@@YGIPAVCSAPrefsSubDlg@@@Z 004f79d0 f i SAPrefsDialog.obj
 0001:000f69f0       ?CompareElements@@YGHPBQAVCSAPrefsSubDlg@@0@Z 004f79f0 f i SAPrefsDialog.obj
 0001:000f6a20       ?ConstructElements@@YGXPAPAVCSAPrefsSubDlg@@H@Z 004f7a20 f i SAPrefsDialog.obj
 0001:000f6a80       ?ConstructElements@@YGXPAKH@Z 004f7a80 f i SAPrefsDialog.obj
 0001:000f6ae0       ?CreateObject@CSAPrefsSubDlg@@SGPAVCObject@@XZ 004f7ae0 f   SAPrefsSubDlg.obj
 0001:000f6b50       ?GetRuntimeClass@CSAPrefsSubDlg@@UBEPAUCRuntimeClass@@XZ 004f7b50 f   SAPrefsSubDlg.obj
 0001:000f6b70       ??0CSAPrefsSubDlg@@QAE@XZ  004f7b70 f   SAPrefsSubDlg.obj
 0001:000f6ba0       ??_GCSAPrefsSubDlg@@UAEPAXI@Z 004f7ba0 f i SAPrefsSubDlg.obj
 0001:000f6ba0       ??_ECSAPrefsSubDlg@@UAEPAXI@Z 004f7ba0 f i SAPrefsSubDlg.obj
 0001:000f6be0       ??0CSAPrefsSubDlg@@QAE@IPAVCWnd@@@Z 004f7be0 f   SAPrefsSubDlg.obj
 0001:000f6c20       ??1CSAPrefsSubDlg@@UAE@XZ  004f7c20 f   SAPrefsSubDlg.obj
 0001:000f6c50       ?GetMessageMap@CSAPrefsSubDlg@@MBEPBUAFX_MSGMAP@@XZ 004f7c50 f   SAPrefsSubDlg.obj
 0001:000f6c70       ?OnOK@CSAPrefsSubDlg@@UAEXXZ 004f7c70 f   SAPrefsSubDlg.obj
 0001:000f6c90       ?OnCancel@CSAPrefsSubDlg@@UAEXXZ 004f7c90 f   SAPrefsSubDlg.obj
 0001:000f6cb0       ?PreTranslateMessage@CSAPrefsSubDlg@@UAEHPAUtagMSG@@@Z 004f7cb0 f   SAPrefsSubDlg.obj
 0001:000f6dc0       ?IsChild@CWnd@@QBEHPBV1@@Z 004f7dc0 f i SAPrefsSubDlg.obj
 0001:000f6ef0       ?cmpsearch@@YAHPAPAXPBX@Z  004f7ef0 f   SearchEngine.obj
 0001:000f6f30       ??0CSearchEngine@@QAE@XZ   004f7f30 f   SearchEngine.obj
 0001:000f6fb0       ??_ECSearchEngine@@UAEPAXI@Z 004f7fb0 f i SearchEngine.obj
 0001:000f6fb0       ??_GCSearchEngine@@UAEPAXI@Z 004f7fb0 f i SearchEngine.obj
 0001:000f6ff0       ??1CSearchEngine@@UAE@XZ   004f7ff0 f   SearchEngine.obj
 0001:000f7050       ?lookup@CSearchEngine@@AAEPAUengine_entry@@PBD@Z 004f8050 f   SearchEngine.obj
 0001:000f7090       ?isSearchEngine@CSearchEngine@@QAE_NPBD@Z 004f8090 f   SearchEngine.obj
 0001:000f70c0       ?parseURL@CSearchEngine@@QAEXPBDPAVCTextProcessor@@@Z 004f80c0 f   SearchEngine.obj
 0001:000f71c0       ?getHostName@CUrl@@QBEPBDXZ 004f81c0 f i SearchEngine.obj
 0001:000f71e0       ?parseSearchQuery@CSearchEngine@@AAEXPBD0AAVCString@@@Z 004f81e0 f   SearchEngine.obj
 0001:000f75c0       ?parseQueryResult@CSearchEngine@@QAEXPBDPAVCPageTagNode@@PAVCTextProcessor@@PAVList@@@Z 004f85c0 f   SearchEngine.obj
 0001:000f7770       ?insertQueryResult@CSearchEngine@@AAEXVCString@@00_NH@Z 004f8770 f   SearchEngine.obj
 0001:000f78f0       ?ProcessGoogleCom@CSearchEngine@@AAEXPAVCPageTagNode@@@Z 004f88f0 f   SearchEngine.obj
 0001:000f79c0       ?ProcessExciteCom@CSearchEngine@@AAEXPAVCPageTagNode@@@Z 004f89c0 f   SearchEngine.obj
 0001:000f7e80       ?ProcessWeatherYahoo@CSearchEngine@@AAEXPAVCPageTagNode@@@Z 004f8e80 f   SearchEngine.obj
 0001:000f8170       ?ProcessHotbotLycos@CSearchEngine@@AAEXPAVCPageTagNode@@@Z 004f9170 f   SearchEngine.obj
 0001:000f8530       ?ProcessSearchYahoo@CSearchEngine@@AAEXPAVCPageTagNode@@@Z 004f9530 f   SearchEngine.obj
 0001:000f8bb0       ?ProcessGoogleYahoo@CSearchEngine@@AAEXPAVCPageTagNode@@@Z 004f9bb0 f   SearchEngine.obj
 0001:000f8ec0       ?ProcessSearchMsn@CSearchEngine@@AAEXPAVCPageTagNode@@@Z 004f9ec0 f   SearchEngine.obj
 0001:000f91c0       ?ProcessAtomzCom@CSearchEngine@@AAEXPAVCPageTagNode@@@Z 004fa1c0 f   SearchEngine.obj
 0001:000f9460       ?ProcessAltaVista@CSearchEngine@@AAEXPAVCPageTagNode@@@Z 004fa460 f   SearchEngine.obj
 0001:000f9480       ?ProcessAskJeeves@CSearchEngine@@AAEXPAVCPageTagNode@@@Z 004fa480 f   SearchEngine.obj
 0001:000f9800       ?GoogleSearchResult@CSearchEngine@@QAEXPAVCPageTagNode@@@Z 004fa800 f   SearchEngine.obj
 0001:000f9cd0       ??0CSearchPage@@QAE@XZ     004facd0 f   SearchPage.obj
 0001:000f9d90       ??_GCSearchPage@@UAEPAXI@Z 004fad90 f i SearchPage.obj
 0001:000f9d90       ??_ECSearchPage@@UAEPAXI@Z 004fad90 f i SearchPage.obj
 0001:000f9dd0       ??1CSearchPage@@UAE@XZ     004fadd0 f   SearchPage.obj
 0001:000f9e50       ?clone@CSearchPage@@UAEPAVCLilacObject@@XZ 004fae50 f   SearchPage.obj
 0001:000f9f20       ?compare@CSearchPage@@UAEHPAVCLilacObject@@@Z 004faf20 f   SearchPage.obj
 0001:000f9fa0       ?getPageno@CSearchPage@@QAEHXZ 004fafa0 f   SearchPage.obj
 0001:000f9fc0       ?dump@CSearchPage@@UAEXXZ  004fafc0 f   SearchPage.obj
 0001:000fa060       ??0CSegment@@QAE@ABV0@@Z   004fb060 f i Segment.obj
 0001:000fa0c0       ??4CSegment@@QAEAAV0@ABV0@@Z 004fb0c0 f i Segment.obj
 0001:000fa120       ??_GCSegment@@UAEPAXI@Z    004fb120 f i Segment.obj
 0001:000fa160       ??_ECSegment@@UAEPAXI@Z    004fb160 f i Segment.obj
 0001:000fa1e0       ??0CSegment@@QAE@XZ        004fb1e0 f   Segment.obj
 0001:000fa220       ??1CSegment@@UAE@XZ        004fb220 f   Segment.obj
 0001:000fa290       ?Init@CSegment@@QAE_NPAVCDictionary@@@Z 004fb290 f   Segment.obj
 0001:000fa2d0       ?LoadFile@CSegment@@QAE_NPBD@Z 004fb2d0 f   Segment.obj
 0001:000fa3e0       ?LoadContent@CSegment@@QAE_NPBD@Z 004fb3e0 f   Segment.obj
 0001:000fa490       ?MMSegment@CSegment@@QAEXAAH@Z 004fb490 f   Segment.obj
 0001:000faa10       ?TextSegment@CSegment@@QAEPADAAH@Z 004fba10 f   Segment.obj
 0001:000fab30       ?Free@CSegment@@QAE_NXZ    004fbb30 f   Segment.obj
 0001:000fac30       ??0CSelectLang@@QAE@PAVCWnd@@@Z 004fbc30 f   SelectLang.obj
 0001:000faca0       ??_GCSelectLang@@UAEPAXI@Z 004fbca0 f i SelectLang.obj
 0001:000faca0       ??_ECSelectLang@@UAEPAXI@Z 004fbca0 f i SelectLang.obj
 0001:000face0       ?DoDataExchange@CSelectLang@@MAEXPAVCDataExchange@@@Z 004fbce0 f   SelectLang.obj
 0001:000fad20       ?GetMessageMap@CSelectLang@@MBEPBUAFX_MSGMAP@@XZ 004fbd20 f   SelectLang.obj
 0001:000fad40       ?OnInitDialog@CSelectLang@@MAEHXZ 004fbd40 f   SelectLang.obj
 0001:000fb150       ?OnOK@CSelectLang@@MAEXXZ  004fc150 f   SelectLang.obj
 0001:000fb300       ?OnDblclkList1@CSelectLang@@IAEXPAUtagNMHDR@@PAJ@Z 004fc300 f   SelectLang.obj
 0001:000fb410       ??0CSelectURL@@QAE@PAVCWnd@@@Z 004fc410 f   SelectURL.obj
 0001:000fb4a0       ??_ECSelectURL@@UAEPAXI@Z  004fc4a0 f i SelectURL.obj
 0001:000fb4a0       ??_GCSelectURL@@UAEPAXI@Z  004fc4a0 f i SelectURL.obj
 0001:000fb4e0       ?DoDataExchange@CSelectURL@@MAEXPAVCDataExchange@@@Z 004fc4e0 f   SelectURL.obj
 0001:000fb530       ?GetMessageMap@CSelectURL@@MBEPBUAFX_MSGMAP@@XZ 004fc530 f   SelectURL.obj
 0001:000fb550       ?LoadLastVisiting@CSelectURL@@QAEXXZ 004fc550 f   SelectURL.obj
 0001:000fb740       ?LoadLastClosed@CSelectURL@@QAEXXZ 004fc740 f   SelectURL.obj
 0001:000fb8c0       ?LoadVisting@CSelectURL@@QAEXXZ 004fc8c0 f   SelectURL.obj
 0001:000fba40       ?LoadClosed@CSelectURL@@QAEXXZ 004fca40 f   SelectURL.obj
 0001:000fbaf0       ?OnInitDialog@CSelectURL@@MAEHXZ 004fcaf0 f   SelectURL.obj
 0001:000fbe80       ?InsertItem@CTabCtrl@@QAEHHPBD@Z 004fce80 f i SelectURL.obj
 0001:000fbeb0       ?OkClosed@CSelectURL@@QAEXXZ 004fceb0 f   SelectURL.obj
 0001:000fc0a0       ?OnOK@CSelectURL@@MAEXXZ   004fd0a0 f   SelectURL.obj
 0001:000fc110       ?OnSelectNone@CSelectURL@@IAEXXZ 004fd110 f   SelectURL.obj
 0001:000fc170       ?OnSelectAll@CSelectURL@@IAEXXZ 004fd170 f   SelectURL.obj
 0001:000fc1d0       ?OnOffline@CSelectURL@@IAEXXZ 004fd1d0 f   SelectURL.obj
 0001:000fc200       ?OnEditTitle@CSelectURL@@IAEXXZ 004fd200 f   SelectURL.obj
 0001:000fc360       ?OnEditUrl@CSelectURL@@IAEXXZ 004fd360 f   SelectURL.obj
 0001:000fc4c0       ?OnDblclkList@CSelectURL@@IAEXPAUtagNMHDR@@PAJ@Z 004fd4c0 f   SelectURL.obj
 0001:000fc4f0       ?OnRdblclkList@CSelectURL@@IAEXPAUtagNMHDR@@PAJ@Z 004fd4f0 f   SelectURL.obj
 0001:000fc530       ?OnDelCurrent@CSelectURL@@IAEXXZ 004fd530 f   SelectURL.obj
 0001:000fc640       ?OnDelUrl@CSelectURL@@IAEXXZ 004fd640 f   SelectURL.obj
 0001:000fc780       ?OnSelchangeTab@CSelectURL@@IAEXPAUtagNMHDR@@PAJ@Z 004fd780 f   SelectURL.obj
 0001:000fc7c0       ?LoadNewUrl@CSelectURL@@QAEXXZ 004fd7c0 f   SelectURL.obj
 0001:000fc830       ?OnOpenCurrent@CSelectURL@@IAEXXZ 004fd830 f   SelectURL.obj
 0001:000fc9b0       ?GetItem@CListCtrl@@QBEHPAUtagLVITEMA@@@Z 004fd9b0 f i SelectURL.obj
 0001:000fc9e0       ?OpenSelected@CSelectURL@@QAEXXZ 004fd9e0 f   SelectURL.obj
 0001:000fcb70       ?OnOpenSelected@CSelectURL@@IAEXXZ 004fdb70 f   SelectURL.obj
 0001:000fcc70       ??0CSelProxyCatDlg@@QAE@PAVCWnd@@@Z 004fdc70 f   SelProxyCatDlg.obj
 0001:000fcd30       ??_GCSelProxyCatDlg@@UAEPAXI@Z 004fdd30 f i SelProxyCatDlg.obj
 0001:000fcd30       ??_ECSelProxyCatDlg@@UAEPAXI@Z 004fdd30 f i SelProxyCatDlg.obj
 0001:000fcd70       ?DoDataExchange@CSelProxyCatDlg@@MAEXPAVCDataExchange@@@Z 004fdd70 f   SelProxyCatDlg.obj
 0001:000fce10       ?GetMessageMap@CSelProxyCatDlg@@MBEPBUAFX_MSGMAP@@XZ 004fde10 f   SelProxyCatDlg.obj
 0001:000fce30       ?OnInitDialog@CSelProxyCatDlg@@MAEHXZ 004fde30 f   SelProxyCatDlg.obj
 0001:000fcf50       ??0CSessionIdentification@@QAE@XZ 004fdf50 f   SessionIdentification.obj
 0001:000fcf70       ??_GCSessionIdentification@@UAEPAXI@Z 004fdf70 f i SessionIdentification.obj
 0001:000fcf70       ??_ECSessionIdentification@@UAEPAXI@Z 004fdf70 f i SessionIdentification.obj
 0001:000fcfb0       ??1CSessionIdentification@@UAE@XZ 004fdfb0 f   SessionIdentification.obj
 0001:000fcfd0       ?Exec@CSessionIdentification@@QAEXXZ 004fdfd0 f   SessionIdentification.obj
 0001:000fd490       ?MinimumBackward@CSessionIdentification@@AAE_NPAVList@@VCString@@@Z 004fe490 f   SessionIdentification.obj
 0001:000fd5c0       ?MinimumBackLink@CSessionIdentification@@AAE_NPAVList@@HVCString@@@Z 004fe5c0 f   SessionIdentification.obj
 0001:000fd6b0       ?checkLink@CSessionIdentification@@AAE_NPAVCPageView@@VCString@@@Z 004fe6b0 f   SessionIdentification.obj
 0001:000fd8d0       ?checkFrame@CSessionIdentification@@AAE_NPAVCPageFrame@@VCString@@AAV3@@Z 004fe8d0 f   SessionIdentification.obj
 0001:000fda20       ?getPage@CSessionIdentification@@AAEPAVCPageCache@@H@Z 004fea20 f   SessionIdentification.obj
 0001:000fdad0       ??0CSetAliasDlg@@QAE@PAVCWnd@@@Z 004fead0 f   SetAliasDlg.obj
 0001:000fdb40       ??_ECSetAliasDlg@@UAEPAXI@Z 004feb40 f i SetAliasDlg.obj
 0001:000fdb40       ??_GCSetAliasDlg@@UAEPAXI@Z 004feb40 f i SetAliasDlg.obj
 0001:000fdb80       ?DoDataExchange@CSetAliasDlg@@MAEXPAVCDataExchange@@@Z 004feb80 f   SetAliasDlg.obj
 0001:000fdbc0       ?GetMessageMap@CSetAliasDlg@@MBEPBUAFX_MSGMAP@@XZ 004febc0 f   SetAliasDlg.obj
 0001:000fdbe0       ?OnInitDialog@CSetAliasDlg@@MAEHXZ 004febe0 f   SetAliasDlg.obj
 0001:000fde00       ?OnOK@CSetAliasDlg@@MAEXXZ 004fee00 f   SetAliasDlg.obj
 0001:000fdf40       ?OnNew@CSetAliasDlg@@IAEXXZ 004fef40 f   SetAliasDlg.obj
 0001:000fe0b0       ?OnUpdate@CSetAliasDlg@@IAEXXZ 004ff0b0 f   SetAliasDlg.obj
 0001:000fe2d0       ?OnDel@CSetAliasDlg@@IAEXXZ 004ff2d0 f   SetAliasDlg.obj
 0001:000fe410       ??0CSetFormDataDlg@@QAE@PAVCWnd@@@Z 004ff410 f   SetFormDataDlg.obj
 0001:000fe4b0       ??_ECSetFormDataDlg@@UAEPAXI@Z 004ff4b0 f i SetFormDataDlg.obj
 0001:000fe4b0       ??_GCSetFormDataDlg@@UAEPAXI@Z 004ff4b0 f i SetFormDataDlg.obj
 0001:000fe4f0       ?DoDataExchange@CSetFormDataDlg@@MAEXPAVCDataExchange@@@Z 004ff4f0 f   SetFormDataDlg.obj
 0001:000fe570       ?GetMessageMap@CSetFormDataDlg@@MBEPBUAFX_MSGMAP@@XZ 004ff570 f   SetFormDataDlg.obj
 0001:000fe590       ?OnInitDialog@CSetFormDataDlg@@MAEHXZ 004ff590 f   SetFormDataDlg.obj
 0001:000fe840       ?FillFormItem@CSetFormDataDlg@@QAEXH@Z 004ff840 f   SetFormDataDlg.obj
 0001:000feba0       ?OnDelUrl@CSetFormDataDlg@@IAEXXZ 004ffba0 f   SetFormDataDlg.obj
 0001:000fecc0       ?GetSelectionMark@CListCtrl@@QAEHXZ 004ffcc0 f i SetFormDataDlg.obj
 0001:000fecf0       ?OnEditItem@CSetFormDataDlg@@IAEXXZ 004ffcf0 f   SetFormDataDlg.obj
 0001:000feef0       ?OnSetFillPwd@CSetFormDataDlg@@IAEXXZ 004ffef0 f   SetFormDataDlg.obj
 0001:000ff020       ?OnDblclkForm@CSetFormDataDlg@@IAEXPAUtagNMHDR@@PAJ@Z 00500020 f   SetFormDataDlg.obj
 0001:000ff050       ?OnDelUrlAll@CSetFormDataDlg@@IAEXXZ 00500050 f   SetFormDataDlg.obj
 0001:000ff0b0       ?OnSetMainPwd@CSetFormDataDlg@@IAEXXZ 005000b0 f   SetFormDataDlg.obj
 0001:000ff1b0       ?OnAutoSubmit@CSetFormDataDlg@@IAEXXZ 005001b0 f   SetFormDataDlg.obj
 0001:000ff2a0       ?OnItemchangedUrl@CSetFormDataDlg@@IAEXPAUtagNMHDR@@PAJ@Z 005002a0 f   SetFormDataDlg.obj
 0001:000ff310       ?OnDblclkUrl@CSetFormDataDlg@@IAEXPAUtagNMHDR@@PAJ@Z 00500310 f   SetFormDataDlg.obj
 0001:000ff4f0       ??0CSetProxy@@QAE@PAVCWnd@@@Z 005004f0 f   SetProxy.obj
 0001:000ff5d0       ?DoDataExchange@CSetProxy@@MAEXPAVCDataExchange@@@Z 005005d0 f   SetProxy.obj
 0001:000ff670       ?GetMessageMap@CSetProxy@@MBEPBUAFX_MSGMAP@@XZ 00500670 f   SetProxy.obj
 0001:000ff690       ?OnInitDialog@CSetProxy@@MAEHXZ 00500690 f   SetProxy.obj
 0001:000ffc20       ?OnOK@CSetProxy@@MAEXXZ    00500c20 f   SetProxy.obj
 0001:000ffcc0       ?OnProxyNew@CSetProxy@@IAEXXZ 00500cc0 f   SetProxy.obj
 0001:000fff90       ?OnProxyDel@CSetProxy@@IAEXXZ 00500f90 f   SetProxy.obj
 0001:00100140       ?OnEndlabeleditProxyList@CSetProxy@@IAEXPAUtagNMHDR@@PAJ@Z 00501140 f   SetProxy.obj
 0001:00100220       ?OnDeltaposSpin1@CSetProxy@@IAEXPAUtagNMHDR@@PAJ@Z 00501220 f   SetProxy.obj
 0001:00100670       ?OnDeltaposSpin2@CSetProxy@@IAEXPAUtagNMHDR@@PAJ@Z 00501670 f   SetProxy.obj
 0001:00100840       ?OnModifyproxy@CSetProxy@@IAEXXZ 00501840 f   SetProxy.obj
 0001:00100b10       ?OnItemchangedCates@CSetProxy@@IAEXPAUtagNMHDR@@PAJ@Z 00501b10 f   SetProxy.obj
 0001:00100b90       ?FillProxyList@CSetProxy@@QAEXH@Z 00501b90 f   SetProxy.obj
 0001:00100dd0       ?SetItemCount@CListCtrl@@QAEXH@Z 00501dd0 f i SetProxy.obj
 0001:00100e00       ?OnEndlabeleditCates@CSetProxy@@IAEXPAUtagNMHDR@@PAJ@Z 00501e00 f   SetProxy.obj
 0001:00100ed0       ?OnNewcate@CSetProxy@@IAEXXZ 00501ed0 f   SetProxy.obj
 0001:001010e0       ?OnChangeBypass@CSetProxy@@IAEXXZ 005020e0 f   SetProxy.obj
 0001:00101170       ?OnDelcate@CSetProxy@@IAEXXZ 00502170 f   SetProxy.obj
 0001:00101340       ?OnItemchangedProxyList@CSetProxy@@IAEXPAUtagNMHDR@@PAJ@Z 00502340 f   SetProxy.obj
 0001:00101410       ?OnBegindragProxyList@CSetProxy@@IAEXPAUtagNMHDR@@PAJ@Z 00502410 f   SetProxy.obj
 0001:00101530       ?GetDesktopWindow@CWnd@@SGPAV1@XZ 00502530 f i SetProxy.obj
 0001:00101550       ?BeginDrag@CImageList@@QAEHHVCPoint@@@Z 00502550 f i SetProxy.obj
 0001:00101580       ?DragEnter@CImageList@@SGHPAVCWnd@@VCPoint@@@Z 00502580 f i SetProxy.obj
 0001:001015b0       ?OnLButtonUp@CSetProxy@@IAEXIVCPoint@@@Z 005025b0 f   SetProxy.obj
 0001:00101800       ?RedrawItems@CListCtrl@@QAEHHH@Z 00502800 f i SetProxy.obj
 0001:00101830       ?EndDrag@CImageList@@SGXXZ 00502830 f i SetProxy.obj
 0001:00101850       ?DragLeave@CImageList@@SGHPAVCWnd@@@Z 00502850 f i SetProxy.obj
 0001:00101880       ?OnMouseMove@CSetProxy@@IAEXIVCPoint@@@Z 00502880 f   SetProxy.obj
 0001:001019d0       ?DragMove@CImageList@@SGHVCPoint@@@Z 005029d0 f i SetProxy.obj
 0001:001019f0       ?DragShowNolock@CImageList@@SGHH@Z 005029f0 f i SetProxy.obj
 0001:00101a10       ?OnDblclkProxyList@CSetProxy@@IAEXPAUtagNMHDR@@PAJ@Z 00502a10 f   SetProxy.obj
 0001:00101a40       ?InsertAt@?$CArray@PAVCProxyItem@@PAV1@@@QAEXHPAVCProxyItem@@H@Z 00502a40 f i SetProxy.obj
 0001:00101b20       ?RemoveAt@?$CArray@PAVCProxyItem@@PAV1@@@QAEXHH@Z 00502b20 f i SetProxy.obj
 0001:00101ba0       ?SetAt@?$CArray@PAVCProxyList@@PAV1@@@QAEXHPAVCProxyList@@@Z 00502ba0 f i SetProxy.obj
 0001:00101bd0       ?ElementAt@?$CArray@PAVCProxyList@@PAV1@@@QAEAAPAVCProxyList@@H@Z 00502bd0 f i SetProxy.obj
 0001:00101c00       ?RemoveAt@?$CArray@PAVCProxyList@@PAV1@@@QAEXHH@Z 00502c00 f i SetProxy.obj
 0001:00101d40       ??0CSetSCDlg@@QAE@PAVCWnd@@@Z 00502d40 f   SetSCDlg.obj
 0001:00101e10       ??_ECSetSCDlg@@UAEPAXI@Z   00502e10 f i SetSCDlg.obj
 0001:00101e10       ??_GCSetSCDlg@@UAEPAXI@Z   00502e10 f i SetSCDlg.obj
 0001:00101e50       ?DoDataExchange@CSetSCDlg@@MAEXPAVCDataExchange@@@Z 00502e50 f   SetSCDlg.obj
 0001:00101ef0       ?GetMessageMap@CSetSCDlg@@MBEPBUAFX_MSGMAP@@XZ 00502ef0 f   SetSCDlg.obj
 0001:00101f10       ?OnInitDialog@CSetSCDlg@@MAEHXZ 00502f10 f   SetSCDlg.obj
 0001:00102180       ?OnOK@CSetSCDlg@@MAEXXZ    00503180 f   SetSCDlg.obj
 0001:001022e0       ?OnUpdate@CSetSCDlg@@IAEXXZ 005032e0 f   SetSCDlg.obj
 0001:00102380       ?OnAppend@CSetSCDlg@@IAEXXZ 00503380 f   SetSCDlg.obj
 0001:00102530       ?OnItemchangedList1@CSetSCDlg@@IAEXPAUtagNMHDR@@PAJ@Z 00503530 f   SetSCDlg.obj
 0001:00102640       ?OnSelchangeKeylist@CSetSCDlg@@IAEXXZ 00503640 f   SetSCDlg.obj
 0001:00102760       ??0CSimpleSAH@@QAE@XZ      00503760 f   SimpleSAH.obj
 0001:001027e0       ??_GCSimpleSAH@@UAEPAXI@Z  005037e0 f i SimpleSAH.obj
 0001:001027e0       ??_ECSimpleSAH@@UAEPAXI@Z  005037e0 f i SimpleSAH.obj
 0001:00102820       ??1CSimpleSAH@@UAE@XZ      00503820 f   SimpleSAH.obj
 0001:001028b0       ?GetNextTags@CSimpleSAH@@QAEHAAVCStringList@@@Z 005038b0 f   SimpleSAH.obj
 0001:00102da0       ?GetAttribute@CSimpleSAH@@QAE?AVCString@@PBD@Z 00503da0 f   SimpleSAH.obj
 0001:001030d0       ?SetAttribute@CSimpleSAH@@QAEHPBD0@Z 005040d0 f   SimpleSAH.obj
 0001:001034c0       ?LoadHTML@CSimpleSAH@@QAEHPBDH@Z 005044c0 f   SimpleSAH.obj
 0001:001035d0       ?Close@CSimpleSAH@@QAEXXZ  005045d0 f   SimpleSAH.obj
 0001:00103610       ?AddText@CSimpleSAH@@QAEHAAVCString@@@Z 00504610 f   SimpleSAH.obj
 0001:00103690       ?OnInitMenuPopup@CWnd@@IAEXPAVCMenu@@IH@Z 00504690 f i SizableReBar.obj
 0001:00103770       ?GetRuntimeClass@CSizableReBar@@UBEPAUCRuntimeClass@@XZ 00504770 f   SizableReBar.obj
 0001:00103790       ??0CSizableReBar@@QAE@XZ   00504790 f   SizableReBar.obj
 0001:001038a0       ??_GCSizableReBar@@UAEPAXI@Z 005048a0 f i SizableReBar.obj
 0001:001038a0       ??_ECSizableReBar@@UAEPAXI@Z 005048a0 f i SizableReBar.obj
 0001:001038e0       ??1CReBar@@UAE@XZ          005048e0 f i SizableReBar.obj
 0001:00103900       ??1CSizableReBar@@UAE@XZ   00504900 f   SizableReBar.obj
 0001:00103970       ?Create@CSizableReBar@@QAE_NPAVCWnd@@IK@Z 00504970 f   SizableReBar.obj
 0001:00103a60       ?AddBar@CSizableReBar@@QAE_NPAVCWnd@@PBDPAVCBitmap@@K1_N@Z 00504a60 f   SizableReBar.obj
 0001:00103ab0       ?AddBar@CSizableReBar@@QAE_NPAVCWnd@@KKPBDK1_N@Z 00504ab0 f   SizableReBar.obj
 0001:00103b00       ?SetBkImage@CSizableReBar@@QAE_NPAVCBitmap@@@Z 00504b00 f   SizableReBar.obj
 0001:00103b90       ?GetReBarCtrl@CReBar@@QBEAAVCReBarCtrl@@XZ 00504b90 f i SizableReBar.obj
 0001:00103bb0       ?EnableContextMenu@CSizableReBar@@QAEX_N0@Z 00504bb0 f   SizableReBar.obj
 0001:00103be0       ?LoadState@CSizableReBar@@QAEXPBD@Z 00504be0 f   SizableReBar.obj
 0001:00103d40       ?MoveBand@CReBarCtrl@@QAEHII@Z 00504d40 f i SizableReBar.obj
 0001:00103d70       ?SaveState@CSizableReBar@@QAEXPBD@Z 00504d70 f   SizableReBar.obj
 0001:00103ed0       ?GetReBarCtrl@CSizableReBar@@QBEAAVCReBarCtrl@@XZ 00504ed0 f   SizableReBar.obj
 0001:00103ef0       ?PostAddBar@CSizableReBar@@IAE_NPAVCWnd@@PBD_N@Z 00504ef0 f   SizableReBar.obj
 0001:00104040       ?CalcFixedLayout@CSizableReBar@@UAE?AVCSize@@HH@Z 00505040 f   SizableReBar.obj
 0001:00104130       ?CalcDynamicLayout@CSizableReBar@@UAE?AVCSize@@HK@Z 00505130 f   SizableReBar.obj
 0001:00104180       ?OnNotify@CSizableReBar@@MAEHIJPAJ@Z 00505180 f   SizableReBar.obj
 0001:001042c0       ?OnUpdateCmdUI@CSizableReBar@@MAEXPAVCFrameWnd@@H@Z 005052c0 f   SizableReBar.obj
 0001:00104300       ?GetMessageMap@CSizableReBar@@MBEPBUAFX_MSGMAP@@XZ 00505300 f   SizableReBar.obj
 0001:00104320       ?OnCreate@CSizableReBar@@IAEHPAUtagCREATESTRUCTA@@@Z 00505320 f   SizableReBar.obj
 0001:001043a0       ?SetOwner@CWnd@@QAEXPAV1@@Z 005053a0 f i SizableReBar.obj
 0001:001043e0       ?OnNcLButtonDown@CSizableReBar@@IAEXIVCPoint@@@Z 005053e0 f   SizableReBar.obj
 0001:00104430       ?OnMouseMove@CSizableReBar@@IAEXIVCPoint@@@Z 00505430 f   SizableReBar.obj
 0001:00104480       ?OnLButtonUp@CSizableReBar@@IAEXIVCPoint@@@Z 00505480 f   SizableReBar.obj
 0001:001044c0       ?OnCaptureChanged@CSizableReBar@@IAEXPAVCWnd@@@Z 005054c0 f   SizableReBar.obj
 0001:00104500       ?OnCaptureChanged@CWnd@@IAEXPAV1@@Z 00505500 f i SizableReBar.obj
 0001:00104520       ?OnNcCalcSize@CSizableReBar@@IAEXHPAUtagNCCALCSIZE_PARAMS@@@Z 00505520 f   SizableReBar.obj
 0001:001045d0       ?SubtractRect@CRect@@QAEHPBUtagRECT@@0@Z 005055d0 f i SizableReBar.obj
 0001:00104600       ?OnNcCalcSize@CWnd@@IAEXHPAUtagNCCALCSIZE_PARAMS@@@Z 00505600 f i SizableReBar.obj
 0001:00104620       ?OnNcPaint@CSizableReBar@@IAEXXZ 00505620 f   SizableReBar.obj
 0001:00104650       ?OnNcHitTest@CSizableReBar@@IAEIVCPoint@@@Z 00505650 f   SizableReBar.obj
 0001:001046e0       ?OnSize@CSizableReBar@@IAEXIHH@Z 005056e0 f   SizableReBar.obj
 0001:00104750       ?OnContextMenu@CSizableReBar@@IAEXPAVCWnd@@VCPoint@@@Z 00505750 f   SizableReBar.obj
 0001:00104ac0       ??BCMenu@@QBEPAUHMENU__@@XZ 00505ac0 f i SizableReBar.obj
 0001:00104af0       ?HitTest@CReBarCtrl@@QAEHPAU_RB_HITTESTINFO@@@Z 00505af0 f i SizableReBar.obj
 0001:00104b20       ?GetInstance@CWinAppEx@@SAPAV1@XZ 00505b20 f i SizableReBar.obj
 0001:00104b40       ?GetSizingEdgeHitCode@CSizableReBar@@IBEIXZ 00505b40 f   SizableReBar.obj
 0001:00104bb0       ?GetSizingEdgeRect@CSizableReBar@@IBE_NABVCRect@@AAV2@I@Z 00505bb0 f   SizableReBar.obj
 0001:00104c80       ?StartTracking@CSizableReBar@@IAEXIVCPoint@@@Z 00505c80 f   SizableReBar.obj
 0001:00104d30       ??GCSize@@QBE?AV0@UtagSIZE@@@Z 00505d30 f i SizableReBar.obj
 0001:00104d70       ?StopTracking@CSizableReBar@@IAEXXZ 00505d70 f   SizableReBar.obj
 0001:00104db0       ?DelayRecalcLayout@CFrameWnd@@QAEXH@Z 00505db0 f i SizableReBar.obj
 0001:00104df0       ?OnTrackUpdateSize@CSizableReBar@@IAEXVCPoint@@@Z 00505df0 f   SizableReBar.obj
 0001:00104f90       ??9CSize@@QBEHUtagSIZE@@@Z 00505f90 f i SizableReBar.obj
 0001:00104fd0       ??GCPoint@@QBE?AVCSize@@UtagPOINT@@@Z 00505fd0 f i SizableReBar.obj
 0001:00105010       ??0CRect@@QAE@UtagPOINT@@UtagSIZE@@@Z 00506010 f i SizableReBar.obj
 0001:00105060       ?SizeToRect@CReBarCtrl@@QAEHAAVCRect@@@Z 00506060 f i SizableReBar.obj
 0001:00105090       ?DrawGripper@CSizableReBar@@QAEXAAVCDC@@@Z 00506090 f   SizableReBar.obj
 0001:001050b0       ??0?$CArray@UBARINFO@CSizableReBar@@AAU12@@@QAE@XZ 005060b0 f i SizableReBar.obj
 0001:00105100       ?GetUpperBound@?$CArray@UBARINFO@CSizableReBar@@AAU12@@@QBEHXZ 00506100 f i SizableReBar.obj
 0001:00105120       ?Add@?$CArray@UBARINFO@CSizableReBar@@AAU12@@@QAEHAAUBARINFO@CSizableReBar@@@Z 00506120 f i SizableReBar.obj
 0001:00105160       ??A?$CArray@UBARINFO@CSizableReBar@@AAU12@@@QAEAAUBARINFO@CSizableReBar@@H@Z 00506160 f i SizableReBar.obj
 0001:00105190       ??1?$CArray@UBARINFO@CSizableReBar@@AAU12@@@UAE@XZ 00506190 f i SizableReBar.obj
 0001:00105220       ?Serialize@?$CArray@UBARINFO@CSizableReBar@@AAU12@@@UAEXAAVCArchive@@@Z 00506220 f i SizableReBar.obj
 0001:00105290       ??_E?$CArray@UBARINFO@CSizableReBar@@AAU12@@@UAEPAXI@Z 00506290 f i SizableReBar.obj
 0001:00105290       ??_G?$CArray@UBARINFO@CSizableReBar@@AAU12@@@UAEPAXI@Z 00506290 f i SizableReBar.obj
 0001:001052d0       ?SetSize@?$CArray@UBARINFO@CSizableReBar@@AAU12@@@QAEXHH@Z 005062d0 f i SizableReBar.obj
 0001:00105520       ?ElementAt@?$CArray@UBARINFO@CSizableReBar@@AAU12@@@QAEAAUBARINFO@CSizableReBar@@H@Z 00506520 f i SizableReBar.obj
 0001:00105550       ?SetAtGrow@?$CArray@UBARINFO@CSizableReBar@@AAU12@@@QAEXHAAUBARINFO@CSizableReBar@@@Z 00506550 f i SizableReBar.obj
 0001:001055a0       ?DestructElements@@YGXPAUBARINFO@CSizableReBar@@H@Z 005065a0 f i SizableReBar.obj
 0001:001055e0       ?SerializeElements@@YGXAAVCArchive@@PAUBARINFO@CSizableReBar@@H@Z 005065e0 f i SizableReBar.obj
 0001:00105630       ?ConstructElements@@YGXPAUBARINFO@CSizableReBar@@H@Z 00506630 f i SizableReBar.obj
 0001:00105690       ??0CSortListCtrl@@QAE@XZ   00506690 f   SortListCtrl.obj
 0001:001056d0       ??_ECSortListCtrl@@UAEPAXI@Z 005066d0 f i SortListCtrl.obj
 0001:001056d0       ??_GCSortListCtrl@@UAEPAXI@Z 005066d0 f i SortListCtrl.obj
 0001:00105710       ??1CSortListCtrl@@UAE@XZ   00506710 f   SortListCtrl.obj
 0001:00105740       ?GetMessageMap@CSortListCtrl@@MBEPBUAFX_MSGMAP@@XZ 00506740 f   SortListCtrl.obj
 0001:00105760       ?OnColumnclick@CSortListCtrl@@IAEXPAUtagNMHDR@@PAJ@Z 00506760 f   SortListCtrl.obj
 0001:00105830       ??0CWaitCursor@@QAE@XZ     00506830 f i SortListCtrl.obj
 0001:00105860       ??1CWaitCursor@@QAE@XZ     00506860 f i SortListCtrl.obj
 0001:00105880       ?SortItems@CListCtrl@@QAEHP6GHJJJ@ZK@Z 00506880 f i SortListCtrl.obj
 0001:001058b0       ?CompareEntries@CSortListCtrl@@KGHJJJ@Z 005068b0 f   SortListCtrl.obj
 0001:001059a0       ?FindIndex@CSortListCtrl@@QAEHK@Z 005069a0 f   SortListCtrl.obj
 0001:00105a00       ?AddSortIndexData@CSortListCtrl@@QAEXXZ 00506a00 f   SortListCtrl.obj
 0001:00105ad0       ?CreateObject@CStatusBarWithProgress@@SGPAVCObject@@XZ 00506ad0 f   StatusBarWithProgress.obj
 0001:00105b40       ?GetRuntimeClass@CStatusBarWithProgress@@UBEPAUCRuntimeClass@@XZ 00506b40 f   StatusBarWithProgress.obj
 0001:00105b60       ?GetMessageMap@CStatusBarWithProgress@@MBEPBUAFX_MSGMAP@@XZ 00506b60 f   StatusBarWithProgress.obj
 0001:00105b80       ??0CStatusBarWithProgress@@QAE@H@Z 00506b80 f   StatusBarWithProgress.obj
 0001:00105c20       ??_GCStatusBarWithProgress@@UAEPAXI@Z 00506c20 f i StatusBarWithProgress.obj
 0001:00105c20       ??_ECStatusBarWithProgress@@UAEPAXI@Z 00506c20 f i StatusBarWithProgress.obj
 0001:00105c60       ?InitImage@CStatusBarWithProgress@@QAEXXZ 00506c60 f   StatusBarWithProgress.obj
 0001:00105d50       ?Create@CStatusBarWithProgress@@UAEHPAVCWnd@@KI@Z 00506d50 f   StatusBarWithProgress.obj
 0001:001060c0       ?SetMinHeight@CStatusBarCtrl@@QAEXH@Z 005070c0 f i StatusBarWithProgress.obj
 0001:001060f0       ?ShowProgressBar@CStatusBarWithProgress@@QAEHH@Z 005070f0 f   StatusBarWithProgress.obj
 0001:00106200       ?AdjustProgressBarPosition@CStatusBarWithProgress@@QAEXXZ 00507200 f   StatusBarWithProgress.obj
 0001:001062e0       ?InflateRect@CRect@@QAEXHH@Z 005072e0 f i StatusBarWithProgress.obj
 0001:00106310       ?OnSize@CStatusBarWithProgress@@IAEXIHH@Z 00507310 f   StatusBarWithProgress.obj
 0001:00106360       ?AdjustToolbarPosition@CStatusBarWithProgress@@QAEXXZ 00507360 f   StatusBarWithProgress.obj
 0001:00106430       ?SetWindowTextA@CStatusBarWithProgress@@QAEXPBD@Z 00507430 f   StatusBarWithProgress.obj
 0001:00106460       ?IdleUpdateUI@CStatusBarWithProgress@@QAEXXZ 00507460 f   StatusBarWithProgress.obj
 0001:001064d0       ?cmpstopword@@YAHPAPAD0@Z  005074d0 f   StopWord.obj
 0001:00106500       ??0CStopWord@@QAE@XZ       00507500 f   StopWord.obj
